   1               		.file	"main.c"
   2               	__SREG__ = 0x3f
   3               	__SP_H__ = 0x3e
   4               	__SP_L__ = 0x3d
   5               	__CCP__  = 0x34
   6               	__tmp_reg__ = 0
   7               	__zero_reg__ = 1
  15               	.Ltext0:
  16               	.global	crc8
  18               	crc8:
  19               	.LFB4:
  20               	.LM1:
  21               	.LVL0:
  22               	/* prologue: function */
  23               	/* frame size = 0 */
  24 0000 DC01      		movw r26,r24
  25               	.LM2:
  26 0002 20E0      		ldi r18,lo8(0)
  27               	.LVL1:
  28 0004 40E0      		ldi r20,lo8(0)
  29 0006 50E0      		ldi r21,hi8(0)
  30               	.LVL2:
  31               	.LM3:
  32 0008 98E1      		ldi r25,lo8(24)
  33 000a 00C0      		rjmp .L2
  34               	.LVL3:
  35               	.L7:
  36               	.LM4:
  37 000c FD01      		movw r30,r26
  38               	.LVL4:
  39 000e E40F      		add r30,r20
  40 0010 F51F      		adc r31,r21
  41 0012 E081      		ld r30,Z
  42               	.LVL5:
  43 0014 38E0      		ldi r19,lo8(8)
  44               	.L6:
  45               	.LM5:
  46 0016 8E2F      		mov r24,r30
  47 0018 8227      		eor r24,r18
  48               	.LM6:
  49 001a F82F      		mov r31,r24
  50 001c F170      		andi r31,lo8(1)
  51 001e 80FD      		sbrc r24,0
  52               	.LM7:
  53 0020 2927      		eor r18,r25
  54               	.L3:
  55               	.LM8:
  56 0022 2695      		lsr r18
  57               	.LM9:
  58 0024 F130      		cpi r31,lo8(1)
  59 0026 01F4      		brne .L4
  60               	.LM10:
  61 0028 2068      		ori r18,lo8(-128)
  62               	.L4:
  63               	.LM11:
  64 002a 3150      		subi r19,lo8(-(-1))
  65               	.LM12:
  66 002c 01F0      		breq .L5
  67               	.LM13:
  68 002e E695      		lsr r30
  69 0030 00C0      		rjmp .L6
  70               	.L5:
  71               	.LM14:
  72 0032 4F5F      		subi r20,lo8(-(1))
  73 0034 5F4F      		sbci r21,hi8(-(1))
  74               	.LVL6:
  75               	.L2:
  76 0036 4617      		cp r20,r22
  77 0038 5707      		cpc r21,r23
  78 003a 01F4      		brne .L7
  79               	.LM15:
  80 003c 822F      		mov r24,r18
  81               	/* epilogue start */
  82 003e 0895      		ret
  83               	.LFE4:
  85               	.global	OW_GET_IN_B
  87               	OW_GET_IN_B:
  88               	.LFB6:
  89               	.LM16:
  90               	/* prologue: function */
  91               	/* frame size = 0 */
  92               	.LM17:
  93 0040 8091 0000 		lds r24,cur_p
  94 0044 8336      		cpi r24,lo8(99)
  95 0046 01F0      		breq .L12
  96 0048 8436      		cpi r24,lo8(100)
  97 004a 01F0      		breq .L13
  98 004c 8236      		cpi r24,lo8(98)
  99 004e 01F0      		breq .L11
 100 0050 30E0      		ldi r19,lo8(0)
 101 0052 00C0      		rjmp .L14
 102               	.L11:
 103               	.LM18:
 104 0054 36B3      		in r19,54-32
 105 0056 00C0      		rjmp .L16
 106               	.L12:
 107               	.LM19:
 108 0058 33B3      		in r19,51-32
 109 005a 00C0      		rjmp .L16
 110               	.L13:
 111               	.LM20:
 112 005c 30B3      		in r19,48-32
 113               	.L16:
 114 005e 2091 0000 		lds r18,cur_c
 115 0062 81E0      		ldi r24,lo8(1)
 116 0064 90E0      		ldi r25,hi8(1)
 117 0066 00C0      		rjmp 2f
 118 0068 880F      	1:	lsl r24
 119 006a 991F      		rol r25
 120 006c 2A95      	2:	dec r18
 121 006e 02F4      		brpl 1b
 122 0070 3823      		and r19,r24
 123               	.L14:
 124               	.LM21:
 125 0072 832F      		mov r24,r19
 126               	/* epilogue start */
 127 0074 0895      		ret
 128               	.LFE6:
 130               	.global	OW_OUT_LOW_B
 132               	OW_OUT_LOW_B:
 133               	.LFB7:
 134               	.LM22:
 135               	/* prologue: function */
 136               	/* frame size = 0 */
 137               	.LM23:
 138 0076 8091 0000 		lds r24,cur_p
 139 007a 8336      		cpi r24,lo8(99)
 140 007c 01F0      		breq .L20
 141 007e 8436      		cpi r24,lo8(100)
 142 0080 01F0      		breq .L21
 143 0082 8236      		cpi r24,lo8(98)
 144 0084 01F4      		brne .L22
 145               	.LM24:
 146 0086 38B3      		in r19,56-32
 147 0088 2091 0000 		lds r18,cur_c
 148 008c 81E0      		ldi r24,lo8(1)
 149 008e 90E0      		ldi r25,hi8(1)
 150 0090 00C0      		rjmp 2f
 151 0092 880F      	1:	lsl r24
 152 0094 991F      		rol r25
 153 0096 2A95      	2:	dec r18
 154 0098 02F4      		brpl 1b
 155 009a 8095      		com r24
 156 009c 8323      		and r24,r19
 157 009e 88BB      		out 56-32,r24
 158 00a0 0895      		ret
 159               	.L20:
 160               	.LM25:
 161 00a2 35B3      		in r19,53-32
 162 00a4 2091 0000 		lds r18,cur_c
 163 00a8 81E0      		ldi r24,lo8(1)
 164 00aa 90E0      		ldi r25,hi8(1)
 165 00ac 00C0      		rjmp 2f
 166 00ae 880F      	1:	lsl r24
 167 00b0 991F      		rol r25
 168 00b2 2A95      	2:	dec r18
 169 00b4 02F4      		brpl 1b
 170 00b6 8095      		com r24
 171 00b8 8323      		and r24,r19
 172 00ba 85BB      		out 53-32,r24
 173 00bc 0895      		ret
 174               	.L21:
 175               	.LM26:
 176 00be 32B3      		in r19,50-32
 177 00c0 2091 0000 		lds r18,cur_c
 178 00c4 81E0      		ldi r24,lo8(1)
 179 00c6 90E0      		ldi r25,hi8(1)
 180 00c8 00C0      		rjmp 2f
 181 00ca 880F      	1:	lsl r24
 182 00cc 991F      		rol r25
 183 00ce 2A95      	2:	dec r18
 184 00d0 02F4      		brpl 1b
 185 00d2 8095      		com r24
 186 00d4 8323      		and r24,r19
 187 00d6 82BB      		out 50-32,r24
 188               	.L22:
 189 00d8 0895      		ret
 190               	.LFE7:
 192               	.global	OW_DIR_OUT_B
 194               	OW_DIR_OUT_B:
 195               	.LFB8:
 196               	.LM27:
 197               	/* prologue: function */
 198               	/* frame size = 0 */
 199               	.LM28:
 200 00da 8091 0000 		lds r24,cur_p
 201 00de 8336      		cpi r24,lo8(99)
 202 00e0 01F0      		breq .L26
 203 00e2 8436      		cpi r24,lo8(100)
 204 00e4 01F0      		breq .L27
 205 00e6 8236      		cpi r24,lo8(98)
 206 00e8 01F4      		brne .L28
 207               	.LM29:
 208 00ea 87B3      		in r24,55-32
 209 00ec 9091 0000 		lds r25,cur_c
 210 00f0 21E0      		ldi r18,lo8(1)
 211 00f2 30E0      		ldi r19,hi8(1)
 212 00f4 00C0      		rjmp 2f
 213 00f6 220F      	1:	lsl r18
 214 00f8 331F      		rol r19
 215 00fa 9A95      	2:	dec r25
 216 00fc 02F4      		brpl 1b
 217 00fe 822B      		or r24,r18
 218 0100 87BB      		out 55-32,r24
 219 0102 0895      		ret
 220               	.L26:
 221               	.LM30:
 222 0104 84B3      		in r24,52-32
 223 0106 9091 0000 		lds r25,cur_c
 224 010a 21E0      		ldi r18,lo8(1)
 225 010c 30E0      		ldi r19,hi8(1)
 226 010e 00C0      		rjmp 2f
 227 0110 220F      	1:	lsl r18
 228 0112 331F      		rol r19
 229 0114 9A95      	2:	dec r25
 230 0116 02F4      		brpl 1b
 231 0118 822B      		or r24,r18
 232 011a 84BB      		out 52-32,r24
 233 011c 0895      		ret
 234               	.L27:
 235               	.LM31:
 236 011e 81B3      		in r24,49-32
 237 0120 9091 0000 		lds r25,cur_c
 238 0124 21E0      		ldi r18,lo8(1)
 239 0126 30E0      		ldi r19,hi8(1)
 240 0128 00C0      		rjmp 2f
 241 012a 220F      	1:	lsl r18
 242 012c 331F      		rol r19
 243 012e 9A95      	2:	dec r25
 244 0130 02F4      		brpl 1b
 245 0132 822B      		or r24,r18
 246 0134 81BB      		out 49-32,r24
 247               	.L28:
 248 0136 0895      		ret
 249               	.LFE8:
 251               	.global	OW_DIR_IN_B
 253               	OW_DIR_IN_B:
 254               	.LFB9:
 255               	.LM32:
 256               	/* prologue: function */
 257               	/* frame size = 0 */
 258               	.LM33:
 259 0138 8091 0000 		lds r24,cur_p
 260 013c 8336      		cpi r24,lo8(99)
 261 013e 01F0      		breq .L32
 262 0140 8436      		cpi r24,lo8(100)
 263 0142 01F0      		breq .L33
 264 0144 8236      		cpi r24,lo8(98)
 265 0146 01F4      		brne .L34
 266               	.LM34:
 267 0148 97B3      		in r25,55-32
 268 014a 8091 0000 		lds r24,mask
 269 014e 8923      		and r24,r25
 270 0150 87BB      		out 55-32,r24
 271 0152 0895      		ret
 272               	.L32:
 273               	.LM35:
 274 0154 94B3      		in r25,52-32
 275 0156 8091 0000 		lds r24,mask
 276 015a 8923      		and r24,r25
 277 015c 84BB      		out 52-32,r24
 278 015e 0895      		ret
 279               	.L33:
 280               	.LM36:
 281 0160 91B3      		in r25,49-32
 282 0162 8091 0000 		lds r24,mask
 283 0166 8923      		and r24,r25
 284 0168 81BB      		out 49-32,r24
 285               	.L34:
 286 016a 0895      		ret
 287               	.LFE9:
 289               	.global	OW_OUT_HIGH_B
 291               	OW_OUT_HIGH_B:
 292               	.LFB10:
 293               	.LM37:
 294               	/* prologue: function */
 295               	/* frame size = 0 */
 296               	.LM38:
 297 016c 8091 0000 		lds r24,cur_p
 298 0170 8336      		cpi r24,lo8(99)
 299 0172 01F0      		breq .L38
 300 0174 8436      		cpi r24,lo8(100)
 301 0176 01F0      		breq .L39
 302 0178 8236      		cpi r24,lo8(98)
 303 017a 01F4      		brne .L40
 304               	.LM39:
 305 017c 88B3      		in r24,56-32
 306 017e 9091 0000 		lds r25,cur_c
 307 0182 21E0      		ldi r18,lo8(1)
 308 0184 30E0      		ldi r19,hi8(1)
 309 0186 00C0      		rjmp 2f
 310 0188 220F      	1:	lsl r18
 311 018a 331F      		rol r19
 312 018c 9A95      	2:	dec r25
 313 018e 02F4      		brpl 1b
 314 0190 822B      		or r24,r18
 315 0192 88BB      		out 56-32,r24
 316               	.L38:
 317               	.LM40:
 318 0194 85B3      		in r24,53-32
 319 0196 9091 0000 		lds r25,cur_c
 320 019a 21E0      		ldi r18,lo8(1)
 321 019c 30E0      		ldi r19,hi8(1)
 322 019e 00C0      		rjmp 2f
 323 01a0 220F      	1:	lsl r18
 324 01a2 331F      		rol r19
 325 01a4 9A95      	2:	dec r25
 326 01a6 02F4      		brpl 1b
 327 01a8 822B      		or r24,r18
 328 01aa 85BB      		out 53-32,r24
 329               	.L39:
 330               	.LM41:
 331 01ac 82B3      		in r24,50-32
 332 01ae 9091 0000 		lds r25,cur_c
 333 01b2 21E0      		ldi r18,lo8(1)
 334 01b4 30E0      		ldi r19,hi8(1)
 335 01b6 00C0      		rjmp 2f
 336 01b8 220F      	1:	lsl r18
 337 01ba 331F      		rol r19
 338 01bc 9A95      	2:	dec r25
 339 01be 02F4      		brpl 1b
 340 01c0 822B      		or r24,r18
 341 01c2 82BB      		out 50-32,r24
 342               	.L40:
 343 01c4 0895      		ret
 344               	.LFE10:
 346               	.global	ow_bit_io_b
 348               	ow_bit_io_b:
 349               	.LFB11:
 350               	.LM42:
 351               	.LVL7:
 352 01c6 1F93      		push r17
 353               	/* prologue: function */
 354               	/* frame size = 0 */
 355 01c8 182F      		mov r17,r24
 356               	.LM43:
 357               	/* #APP */
 358               	 ;  153 "ds18b20.c" 1
 359 01ca F894      		cli
 360               	 ;  0 "" 2
 361               	.LM44:
 362               	/* #NOAPP */
 363 01cc 0E94 0000 		call OW_DIR_OUT_B
 364               	.LVL8:
 365               	.LBB191:
 366               	.LBB192:
 367               	.LM45:
 368 01d0 82E0      		ldi r24,lo8(2)
 369 01d2 90E0      		ldi r25,hi8(2)
 370               	.LVL9:
 371               	/* #APP */
 372               	 ;  13 "delay.h" 1
 373 01d4 8115      		cp  r24,__zero_reg__ 
 374 01d6 9105      		cpc r25,__zero_reg__ 
 375 01d8 01F0      		breq L_Exit_299       
 376               		L_LOOP_299:           
 377 01da 0197      		sbiw r24,1            
 378 01dc 01F4      		brne L_LOOP_299       
 379               		L_Exit_299:           
 380               		
 381               	 ;  0 "" 2
 382               	/* #NOAPP */
 383               	.LBE192:
 384               	.LBE191:
 385               	.LM46:
 386 01de 1123      		tst r17
 387 01e0 01F0      		breq .L42
 388 01e2 0E94 0000 		call OW_DIR_IN_B
 389               	.LVL10:
 390               	.L42:
 391               	.LBB193:
 392               	.LBB194:
 393               	.LM47:
 394 01e6 83E2      		ldi r24,lo8(35)
 395 01e8 90E0      		ldi r25,hi8(35)
 396               	.LVL11:
 397               	/* #APP */
 398               	 ;  13 "delay.h" 1
 399 01ea 8115      		cp  r24,__zero_reg__ 
 400 01ec 9105      		cpc r25,__zero_reg__ 
 401 01ee 01F0      		breq L_Exit_315       
 402               		L_LOOP_315:           
 403 01f0 0197      		sbiw r24,1            
 404 01f2 01F4      		brne L_LOOP_315       
 405               		L_Exit_315:           
 406               		
 407               	 ;  0 "" 2
 408               	/* #NOAPP */
 409               	.LBE194:
 410               	.LBE193:
 411               	.LM48:
 412 01f4 0E94 0000 		call OW_GET_IN_B
 413               	.LVL12:
 414 01f8 8823      		tst r24
 415 01fa 01F4      		brne .L43
 416 01fc 10E0      		ldi r17,lo8(0)
 417               	.L43:
 418               	.LBB195:
 419               	.LBB196:
 420               	.LM49:
 421 01fe 8CE7      		ldi r24,lo8(124)
 422 0200 90E0      		ldi r25,hi8(124)
 423               	.LVL13:
 424               	/* #APP */
 425               	 ;  13 "delay.h" 1
 426 0202 8115      		cp  r24,__zero_reg__ 
 427 0204 9105      		cpc r25,__zero_reg__ 
 428 0206 01F0      		breq L_Exit_331       
 429               		L_LOOP_331:           
 430 0208 0197      		sbiw r24,1            
 431 020a 01F4      		brne L_LOOP_331       
 432               		L_Exit_331:           
 433               		
 434               	 ;  0 "" 2
 435               	/* #NOAPP */
 436               	.LBE196:
 437               	.LBE195:
 438               	.LM50:
 439 020c 0E94 0000 		call OW_DIR_IN_B
 440               	.LVL14:
 441               	.LM51:
 442               	/* #APP */
 443               	 ;  167 "ds18b20.c" 1
 444 0210 7894      		sei
 445               	 ;  0 "" 2
 446               	.LM52:
 447               	/* #NOAPP */
 448 0212 812F      		mov r24,r17
 449               	/* epilogue start */
 450 0214 1F91      		pop r17
 451               	.LVL15:
 452 0216 0895      		ret
 453               	.LFE11:
 455               	.global	ow_byte_wr_b
 457               	ow_byte_wr_b:
 458               	.LFB12:
 459               	.LM53:
 460               	.LVL16:
 461 0218 0F93      		push r16
 462 021a 1F93      		push r17
 463               	/* prologue: function */
 464               	/* frame size = 0 */
 465 021c 182F      		mov r17,r24
 466               	.LM54:
 467 021e 08E0      		ldi r16,lo8(8)
 468               	.LVL17:
 469               	.L47:
 470               	.LM55:
 471 0220 812F      		mov r24,r17
 472 0222 8170      		andi r24,lo8(1)
 473 0224 0E94 0000 		call ow_bit_io_b
 474               	.LM56:
 475 0228 1695      		lsr r17
 476               	.LM57:
 477 022a 8111      		cpse r24,__zero_reg__
 478 022c 1068      		ori r17,lo8(-128)
 479               	.L46:
 480               	.LM58:
 481 022e 0150      		subi r16,lo8(-(-1))
 482 0230 01F4      		brne .L47
 483               	.LM59:
 484 0232 812F      		mov r24,r17
 485               	/* epilogue start */
 486 0234 1F91      		pop r17
 487               	.LVL18:
 488 0236 0F91      		pop r16
 489               	.LVL19:
 490 0238 0895      		ret
 491               	.LFE12:
 493               	.global	ow_byte_rd_b
 495               	ow_byte_rd_b:
 496               	.LFB13:
 497               	.LM60:
 498               	/* prologue: function */
 499               	/* frame size = 0 */
 500               	.LM61:
 501 023a 8FEF      		ldi r24,lo8(-1)
 502 023c 0E94 0000 		call ow_byte_wr_b
 503               	/* epilogue start */
 504               	.LM62:
 505 0240 0895      		ret
 506               	.LFE13:
 508               	.global	ow_reset_b
 510               	ow_reset_b:
 511               	.LFB15:
 512               	.LM63:
 513 0242 0F93      		push r16
 514 0244 1F93      		push r17
 515               	/* prologue: function */
 516               	/* frame size = 0 */
 517               	.LM64:
 518 0246 0E94 0000 		call OW_OUT_LOW_B
 519               	.LM65:
 520 024a 0E94 0000 		call OW_DIR_OUT_B
 521               	.LBB197:
 522               	.LBB198:
 523               	.LM66:
 524 024e 85E3      		ldi r24,lo8(1333)
 525 0250 95E0      		ldi r25,hi8(1333)
 526               	.LVL20:
 527               	/* #APP */
 528               	 ;  13 "delay.h" 1
 529 0252 8115      		cp  r24,__zero_reg__ 
 530 0254 9105      		cpc r25,__zero_reg__ 
 531 0256 01F0      		breq L_Exit_407       
 532               		L_LOOP_407:           
 533 0258 0197      		sbiw r24,1            
 534 025a 01F4      		brne L_LOOP_407       
 535               		L_Exit_407:           
 536               		
 537               	 ;  0 "" 2
 538               	/* #NOAPP */
 539               	.LBE198:
 540               	.LBE197:
 541               	.LM67:
 542 025c 0FB7      		in r16,__SREG__
 543               	.LVL21:
 544               	.LM68:
 545               	/* #APP */
 546               	 ;  211 "ds18b20.c" 1
 547 025e F894      		cli
 548               	 ;  0 "" 2
 549               	.LM69:
 550               	/* #NOAPP */
 551 0260 0E94 0000 		call OW_DIR_IN_B
 552               	.LVL22:
 553               	.LBB199:
 554               	.LBB200:
 555               	.LM70:
 556 0264 87EB      		ldi r24,lo8(183)
 557 0266 90E0      		ldi r25,hi8(183)
 558               	.LVL23:
 559               	/* #APP */
 560               	 ;  13 "delay.h" 1
 561 0268 8115      		cp  r24,__zero_reg__ 
 562 026a 9105      		cpc r25,__zero_reg__ 
 563 026c 01F0      		breq L_Exit_419       
 564               		L_LOOP_419:           
 565 026e 0197      		sbiw r24,1            
 566 0270 01F4      		brne L_LOOP_419       
 567               		L_Exit_419:           
 568               		
 569               	 ;  0 "" 2
 570               	/* #NOAPP */
 571               	.LBE200:
 572               	.LBE199:
 573               	.LM71:
 574 0272 0E94 0000 		call OW_GET_IN_B
 575               	.LVL24:
 576 0276 182F      		mov r17,r24
 577               	.LVL25:
 578               	.LBB201:
 579               	.LBB202:
 580               	.LM72:
 581 0278 8DE7      		ldi r24,lo8(1149)
 582 027a 94E0      		ldi r25,hi8(1149)
 583               	.LVL26:
 584               	/* #APP */
 585               	 ;  13 "delay.h" 1
 586 027c 8115      		cp  r24,__zero_reg__ 
 587 027e 9105      		cpc r25,__zero_reg__ 
 588 0280 01F0      		breq L_Exit_430       
 589               		L_LOOP_430:           
 590 0282 0197      		sbiw r24,1            
 591 0284 01F4      		brne L_LOOP_430       
 592               		L_Exit_430:           
 593               		
 594               	 ;  0 "" 2
 595               	/* #NOAPP */
 596               	.LBE202:
 597               	.LBE201:
 598               	.LM73:
 599 0286 0E94 0000 		call OW_GET_IN_B
 600               	.LVL27:
 601 028a 8823      		tst r24
 602 028c 01F4      		brne .L53
 603 028e 11E0      		ldi r17,lo8(1)
 604               	.L53:
 605               	.LM74:
 606 0290 0FBF      		out __SREG__,r16
 607               	.LM75:
 608               	/* #APP */
 609               	 ;  225 "ds18b20.c" 1
 610 0292 7894      		sei
 611               	 ;  0 "" 2
 612               	.LM76:
 613               	/* #NOAPP */
 614 0294 812F      		mov r24,r17
 615               	/* epilogue start */
 616 0296 1F91      		pop r17
 617               	.LVL28:
 618 0298 0F91      		pop r16
 619               	.LVL29:
 620 029a 0895      		ret
 621               	.LFE15:
 623               	.global	ow_command_simple_b
 625               	ow_command_simple_b:
 626               	.LFB14:
 627               	.LM77:
 628               	.LVL30:
 629 029c 1F93      		push r17
 630               	/* prologue: function */
 631               	/* frame size = 0 */
 632 029e 182F      		mov r17,r24
 633               	.LM78:
 634 02a0 0E94 0000 		call ow_reset_b
 635               	.LVL31:
 636               	.LM79:
 637 02a4 8CEC      		ldi r24,lo8(-52)
 638 02a6 0E94 0000 		call ow_byte_wr_b
 639               	.LM80:
 640 02aa 812F      		mov r24,r17
 641 02ac 0E94 0000 		call ow_byte_wr_b
 642               	/* epilogue start */
 643               	.LM81:
 644 02b0 1F91      		pop r17
 645               	.LVL32:
 646 02b2 0895      		ret
 647               	.LFE14:
 649               	.global	ow_parasite_enable_b
 651               	ow_parasite_enable_b:
 652               	.LFB16:
 653               	.LM82:
 654               	/* prologue: function */
 655               	/* frame size = 0 */
 656               	.LM83:
 657 02b4 0E94 0000 		call OW_OUT_HIGH_B
 658               	.LM84:
 659 02b8 0E94 0000 		call OW_DIR_OUT_B
 660               	/* epilogue start */
 661               	.LM85:
 662 02bc 0895      		ret
 663               	.LFE16:
 665               	.global	cur_set
 667               	cur_set:
 668               	.LFB17:
 669               	.LM86:
 670               	.LVL33:
 671               	/* prologue: function */
 672               	/* frame size = 0 */
 673               	.LM87:
 674 02be 8093 0000 		sts cur_p,r24
 675               	.LM88:
 676 02c2 6093 0000 		sts cur_c,r22
 677               	.LM89:
 678 02c6 81E0      		ldi r24,lo8(1)
 679 02c8 90E0      		ldi r25,hi8(1)
 680               	.LVL34:
 681 02ca 00C0      		rjmp 2f
 682 02cc 880F      	1:	lsl r24
 683 02ce 991F      		rol r25
 684 02d0 6A95      	2:	dec r22
 685 02d2 02F4      		brpl 1b
 686 02d4 8095      		com r24
 687 02d6 8093 0000 		sts mask,r24
 688               	/* epilogue start */
 689               	.LM90:
 690 02da 0895      		ret
 691               	.LFE17:
 693               	.global	DS18B20_read_meas_single
 695               	DS18B20_read_meas_single:
 696               	.LFB18:
 697               	.LM91:
 698               	.LVL35:
 699 02dc CF92      		push r12
 700 02de DF92      		push r13
 701 02e0 EF92      		push r14
 702 02e2 FF92      		push r15
 703 02e4 0F93      		push r16
 704 02e6 1F93      		push r17
 705 02e8 DF93      		push r29
 706 02ea CF93      		push r28
 707 02ec CDB7      		in r28,__SP_L__
 708 02ee DEB7      		in r29,__SP_H__
 709 02f0 2997      		sbiw r28,9
 710 02f2 0FB6      		in __tmp_reg__,__SREG__
 711 02f4 F894      		cli
 712 02f6 DEBF      		out __SP_H__,r29
 713 02f8 0FBE      		out __SREG__,__tmp_reg__
 714 02fa CDBF      		out __SP_L__,r28
 715               	/* prologue: function */
 716               	/* frame size = 9 */
 717 02fc 6C01      		movw r12,r24
 718               	.LBB203:
 719               	.LBB204:
 720               	.LM92:
 721 02fe 6093 0000 		sts cur_p,r22
 722               	.LM93:
 723 0302 4093 0000 		sts cur_c,r20
 724               	.LM94:
 725 0306 81E0      		ldi r24,lo8(1)
 726 0308 90E0      		ldi r25,hi8(1)
 727               	.LVL36:
 728 030a 00C0      		rjmp 2f
 729 030c 880F      	1:	lsl r24
 730 030e 991F      		rol r25
 731 0310 4A95      	2:	dec r20
 732 0312 02F4      		brpl 1b
 733 0314 8095      		com r24
 734 0316 8093 0000 		sts mask,r24
 735               	.LBE204:
 736               	.LBE203:
 737               	.LM95:
 738 031a 8EEB      		ldi r24,lo8(-66)
 739 031c 0E94 0000 		call ow_command_simple_b
 740               	.LVL37:
 741 0320 8E01      		movw r16,r28
 742 0322 0F5F      		subi r16,lo8(-(1))
 743 0324 1F4F      		sbci r17,hi8(-(1))
 744               	.LM96:
 745 0326 8AE0      		ldi r24,lo8(10)
 746 0328 E82E      		mov r14,r24
 747 032a F12C      		mov r15,__zero_reg__
 748 032c EC0E      		add r14,r28
 749 032e FD1E      		adc r15,r29
 750               	.L62:
 751 0330 0E94 0000 		call ow_byte_rd_b
 752 0334 F801      		movw r30,r16
 753 0336 8193      		st Z+,r24
 754 0338 8F01      		movw r16,r30
 755 033a EE15      		cp r30,r14
 756 033c FF05      		cpc r31,r15
 757 033e 01F4      		brne .L62
 758               	.LM97:
 759 0340 CE01      		movw r24,r28
 760 0342 0196      		adiw r24,1
 761 0344 69E0      		ldi r22,lo8(9)
 762 0346 70E0      		ldi r23,hi8(9)
 763 0348 0E94 0000 		call crc8
 764 034c 8823      		tst r24
 765 034e 01F0      		breq .L63
 766 0350 83E0      		ldi r24,lo8(3)
 767 0352 00C0      		rjmp .L64
 768               	.L63:
 769               	.LM98:
 770 0354 9A81      		ldd r25,Y+2
 771 0356 80E0      		ldi r24,lo8(0)
 772 0358 2981      		ldd r18,Y+1
 773 035a 30E0      		ldi r19,lo8(0)
 774 035c 822B      		or r24,r18
 775 035e 932B      		or r25,r19
 776 0360 F601      		movw r30,r12
 777 0362 9183      		std Z+1,r25
 778 0364 8083      		st Z,r24
 779 0366 80E0      		ldi r24,lo8(0)
 780               	.L64:
 781               	/* epilogue start */
 782               	.LM99:
 783 0368 2996      		adiw r28,9
 784 036a 0FB6      		in __tmp_reg__,__SREG__
 785 036c F894      		cli
 786 036e DEBF      		out __SP_H__,r29
 787 0370 0FBE      		out __SREG__,__tmp_reg__
 788 0372 CDBF      		out __SP_L__,r28
 789 0374 CF91      		pop r28
 790 0376 DF91      		pop r29
 791 0378 1F91      		pop r17
 792 037a 0F91      		pop r16
 793 037c FF90      		pop r15
 794 037e EF90      		pop r14
 795 0380 DF90      		pop r13
 796 0382 CF90      		pop r12
 797               	.LVL38:
 798 0384 0895      		ret
 799               	.LFE18:
 801               	.global	DS18B20_start_meas
 803               	DS18B20_start_meas:
 804               	.LFB19:
 805               	.LM100:
 806               	.LVL39:
 807 0386 1F93      		push r17
 808               	/* prologue: function */
 809               	/* frame size = 0 */
 810 0388 182F      		mov r17,r24
 811               	.LBB205:
 812               	.LBB206:
 813               	.LM101:
 814 038a 6093 0000 		sts cur_p,r22
 815               	.LM102:
 816 038e 4093 0000 		sts cur_c,r20
 817               	.LM103:
 818 0392 81E0      		ldi r24,lo8(1)
 819 0394 90E0      		ldi r25,hi8(1)
 820               	.LVL40:
 821 0396 00C0      		rjmp 2f
 822 0398 880F      	1:	lsl r24
 823 039a 991F      		rol r25
 824 039c 4A95      	2:	dec r20
 825 039e 02F4      		brpl 1b
 826 03a0 8095      		com r24
 827 03a2 8093 0000 		sts mask,r24
 828               	.LBE206:
 829               	.LBE205:
 830               	.LM104:
 831 03a6 0E94 0000 		call ow_reset_b
 832               	.LVL41:
 833               	.LM105:
 834 03aa 0E94 0000 		call OW_GET_IN_B
 835 03ae 8823      		tst r24
 836 03b0 01F4      		brne .L68
 837 03b2 82E0      		ldi r24,lo8(2)
 838 03b4 00C0      		rjmp .L69
 839               	.L68:
 840               	.LM106:
 841 03b6 84E4      		ldi r24,lo8(68)
 842 03b8 0E94 0000 		call ow_command_simple_b
 843               	.LM107:
 844 03bc 1130      		cpi r17,lo8(1)
 845 03be 01F0      		breq .L72
 846               	.L70:
 847               	.LM108:
 848 03c0 0E94 0000 		call ow_parasite_enable_b
 849               	.L72:
 850 03c4 80E0      		ldi r24,lo8(0)
 851               	.L69:
 852               	/* epilogue start */
 853               	.LM109:
 854 03c6 1F91      		pop r17
 855               	.LVL42:
 856 03c8 0895      		ret
 857               	.LFE19:
 859               	.global	i2c_init
 861               	i2c_init:
 862               	.LFB20:
 863               	.LM110:
 864               	/* prologue: function */
 865               	/* frame size = 0 */
 866               	.LM111:
 867 03ca 8A98      		cbi 49-32,2
 868               	.LM112:
 869 03cc 8B98      		cbi 49-32,3
 870               	.LM113:
 871 03ce 9298      		cbi 50-32,2
 872               	.LM114:
 873 03d0 9398      		cbi 50-32,3
 874               	/* epilogue start */
 875               	.LM115:
 876 03d2 0895      		ret
 877               	.LFE20:
 879               	.global	i2c_busy
 881               	i2c_busy:
 882               	.LFB21:
 883               	.LM116:
 884               	/* prologue: function */
 885               	/* frame size = 0 */
 886               	.L76:
 887               	.LM117:
 888 03d4 81B3      		in r24,49-32
 889 03d6 8C70      		andi r24,lo8(12)
 890 03d8 01F4      		brne .L76
 891               	/* epilogue start */
 892               	.LM118:
 893 03da 0895      		ret
 894               	.LFE21:
 896               	.global	i2c_start
 898               	i2c_start:
 899               	.LFB22:
 900               	.LM119:
 901               	/* prologue: function */
 902               	/* frame size = 0 */
 903               	.LM120:
 904 03dc 8A98      		cbi 49-32,2
 905               	.LM121:
 906 03de 8B98      		cbi 49-32,3
 907               	.LBB207:
 908               	.LBB208:
 909               	.LM122:
 910 03e0 85E0      		ldi r24,lo8(5)
 911 03e2 90E0      		ldi r25,hi8(5)
 912 03e4 FC01      		movw r30,r24
 913               	.LVL43:
 914               	/* #APP */
 915               	 ;  13 "delay.h" 1
 916 03e6 E115      		cp  r30,__zero_reg__ 
 917 03e8 F105      		cpc r31,__zero_reg__ 
 918 03ea 01F0      		breq L_Exit_689       
 919               		L_LOOP_689:           
 920 03ec 3197      		sbiw r30,1            
 921 03ee 01F4      		brne L_LOOP_689       
 922               		L_Exit_689:           
 923               		
 924               	 ;  0 "" 2
 925               	/* #NOAPP */
 926               	.LBE208:
 927               	.LBE207:
 928               	.LM123:
 929 03f0 8A9A      		sbi 49-32,2
 930               	.LBB209:
 931               	.LBB210:
 932               	.LM124:
 933 03f2 FC01      		movw r30,r24
 934               	.LVL44:
 935               	/* #APP */
 936               	 ;  13 "delay.h" 1
 937 03f4 E115      		cp  r30,__zero_reg__ 
 938 03f6 F105      		cpc r31,__zero_reg__ 
 939 03f8 01F0      		breq L_Exit_700       
 940               		L_LOOP_700:           
 941 03fa 3197      		sbiw r30,1            
 942 03fc 01F4      		brne L_LOOP_700       
 943               		L_Exit_700:           
 944               		
 945               	 ;  0 "" 2
 946               	/* #NOAPP */
 947               	.LBE210:
 948               	.LBE209:
 949               	.LM125:
 950 03fe 8B9A      		sbi 49-32,3
 951               	.LBB211:
 952               	.LBB212:
 953               	.LM126:
 954               	/* #APP */
 955               	 ;  13 "delay.h" 1
 956 0400 8115      		cp  r24,__zero_reg__ 
 957 0402 9105      		cpc r25,__zero_reg__ 
 958 0404 01F0      		breq L_Exit_708       
 959               		L_LOOP_708:           
 960 0406 0197      		sbiw r24,1            
 961 0408 01F4      		brne L_LOOP_708       
 962               		L_Exit_708:           
 963               		
 964               	 ;  0 "" 2
 965               	.LVL45:
 966               	/* epilogue start */
 967               	/* #NOAPP */
 968               	.LBE212:
 969               	.LBE211:
 970               	.LM127:
 971 040a 0895      		ret
 972               	.LFE22:
 974               	.global	i2c_stop
 976               	i2c_stop:
 977               	.LFB23:
 978               	.LM128:
 979               	/* prologue: function */
 980               	/* frame size = 0 */
 981               	.LM129:
 982 040c 8A9A      		sbi 49-32,2
 983               	.LM130:
 984 040e 8B98      		cbi 49-32,3
 985               	.LBB213:
 986               	.LBB214:
 987               	.LM131:
 988 0410 85E0      		ldi r24,lo8(5)
 989 0412 90E0      		ldi r25,hi8(5)
 990 0414 FC01      		movw r30,r24
 991               	.LVL46:
 992               	/* #APP */
 993               	 ;  13 "delay.h" 1
 994 0416 E115      		cp  r30,__zero_reg__ 
 995 0418 F105      		cpc r31,__zero_reg__ 
 996 041a 01F0      		breq L_Exit_731       
 997               		L_LOOP_731:           
 998 041c 3197      		sbiw r30,1            
 999 041e 01F4      		brne L_LOOP_731       
 1000               		L_Exit_731:           
 1001               		
 1002               	 ;  0 "" 2
 1003               	/* #NOAPP */
 1004               	.LBE214:
 1005               	.LBE213:
 1006               	.LM132:
 1007 0420 8A98      		cbi 49-32,2
 1008               	.LBB215:
 1009               	.LBB216:
 1010               	.LM133:
 1011               	/* #APP */
 1012               	 ;  13 "delay.h" 1
 1013 0422 8115      		cp  r24,__zero_reg__ 
 1014 0424 9105      		cpc r25,__zero_reg__ 
 1015 0426 01F0      		breq L_Exit_739       
 1016               		L_LOOP_739:           
 1017 0428 0197      		sbiw r24,1            
 1018 042a 01F4      		brne L_LOOP_739       
 1019               		L_Exit_739:           
 1020               		
 1021               	 ;  0 "" 2
 1022               	.LVL47:
 1023               	/* epilogue start */
 1024               	/* #NOAPP */
 1025               	.LBE216:
 1026               	.LBE215:
 1027               	.LM134:
 1028 042c 0895      		ret
 1029               	.LFE23:
 1031               	.global	i2c_sendbyte
 1033               	i2c_sendbyte:
 1034               	.LFB24:
 1035               	.LM135:
 1036               	.LVL48:
 1037               	/* prologue: function */
 1038               	/* frame size = 0 */
 1039               	.LM136:
 1040 042e 98E0      		ldi r25,lo8(8)
 1041               	.LVL49:
 1042               	.LBB217:
 1043               	.LBB218:
 1044               	.LM137:
 1045 0430 25E0      		ldi r18,lo8(5)
 1046 0432 30E0      		ldi r19,hi8(5)
 1047               	.LVL50:
 1048               	.L87:
 1049               	.LBE218:
 1050               	.LBE217:
 1051               	.LM138:
 1052 0434 87FF      		sbrs r24,7
 1053 0436 00C0      		rjmp .L84
 1054               	.LM139:
 1055 0438 8A98      		cbi 49-32,2
 1056 043a 00C0      		rjmp .L85
 1057               	.L84:
 1058               	.LM140:
 1059 043c 8A9A      		sbi 49-32,2
 1060               	.L85:
 1061               	.LBB220:
 1062               	.LBB219:
 1063               	.LM141:
 1064 043e 45E0      		ldi r20,lo8(5)
 1065 0440 50E0      		ldi r21,hi8(5)
 1066 0442 F901      		movw r30,r18
 1067               	.LVL51:
 1068               	/* #APP */
 1069               	 ;  13 "delay.h" 1
 1070 0444 E115      		cp  r30,__zero_reg__ 
 1071 0446 F105      		cpc r31,__zero_reg__ 
 1072 0448 01F0      		breq L_Exit_782       
 1073               		L_LOOP_782:           
 1074 044a 3197      		sbiw r30,1            
 1075 044c 01F4      		brne L_LOOP_782       
 1076               		L_Exit_782:           
 1077               		
 1078               	 ;  0 "" 2
 1079               	/* #NOAPP */
 1080               	.LBE219:
 1081               	.LBE220:
 1082               	.LM142:
 1083 044e 8B98      		cbi 49-32,3
 1084               	.LBB221:
 1085               	.LBB222:
 1086               	.LM143:
 1087 0450 F901      		movw r30,r18
 1088               	.LVL52:
 1089               	/* #APP */
 1090               	 ;  13 "delay.h" 1
 1091 0452 E115      		cp  r30,__zero_reg__ 
 1092 0454 F105      		cpc r31,__zero_reg__ 
 1093 0456 01F0      		breq L_Exit_793       
 1094               		L_LOOP_793:           
 1095 0458 3197      		sbiw r30,1            
 1096 045a 01F4      		brne L_LOOP_793       
 1097               		L_Exit_793:           
 1098               		
 1099               	 ;  0 "" 2
 1100               	/* #NOAPP */
 1101               	.LBE222:
 1102               	.LBE221:
 1103               	.LM144:
 1104 045c 8B9A      		sbi 49-32,3
 1105               	.LBB223:
 1106               	.LBB224:
 1107               	.LM145:
 1108 045e F901      		movw r30,r18
 1109               	.LVL53:
 1110               	/* #APP */
 1111               	 ;  13 "delay.h" 1
 1112 0460 E115      		cp  r30,__zero_reg__ 
 1113 0462 F105      		cpc r31,__zero_reg__ 
 1114 0464 01F0      		breq L_Exit_804       
 1115               		L_LOOP_804:           
 1116 0466 3197      		sbiw r30,1            
 1117 0468 01F4      		brne L_LOOP_804       
 1118               		L_Exit_804:           
 1119               		
 1120               	 ;  0 "" 2
 1121               	/* #NOAPP */
 1122               	.LBE224:
 1123               	.LBE223:
 1124               	.LM146:
 1125 046a 9150      		subi r25,lo8(-(-1))
 1126 046c 01F0      		breq .L86
 1127               	.LM147:
 1128 046e 880F      		lsl r24
 1129               	.LVL54:
 1130 0470 00C0      		rjmp .L87
 1131               	.L86:
 1132               	.LM148:
 1133 0472 8A9A      		sbi 49-32,2
 1134               	.LM149:
 1135 0474 8B98      		cbi 49-32,3
 1136               	.LBB225:
 1137               	.LBB226:
 1138               	.LM150:
 1139 0476 CA01      		movw r24,r20
 1140               	.LVL55:
 1141               	/* #APP */
 1142               	 ;  13 "delay.h" 1
 1143 0478 8115      		cp  r24,__zero_reg__ 
 1144 047a 9105      		cpc r25,__zero_reg__ 
 1145 047c 01F0      		breq L_Exit_828       
 1146               		L_LOOP_828:           
 1147 047e 0197      		sbiw r24,1            
 1148 0480 01F4      		brne L_LOOP_828       
 1149               		L_Exit_828:           
 1150               		
 1151               	 ;  0 "" 2
 1152               	/* #NOAPP */
 1153               	.LBE226:
 1154               	.LBE225:
 1155               	.LM151:
 1156 0482 80B3      		in r24,48-32
 1157               	.LVL56:
 1158               	.LM152:
 1159 0484 8B9A      		sbi 49-32,3
 1160               	.LBB227:
 1161               	.LBB228:
 1162               	.LM153:
 1163 0486 FA01      		movw r30,r20
 1164               	.LVL57:
 1165               	/* #APP */
 1166               	 ;  13 "delay.h" 1
 1167 0488 E115      		cp  r30,__zero_reg__ 
 1168 048a F105      		cpc r31,__zero_reg__ 
 1169 048c 01F0      		breq L_Exit_841       
 1170               		L_LOOP_841:           
 1171 048e 3197      		sbiw r30,1            
 1172 0490 01F4      		brne L_LOOP_841       
 1173               		L_Exit_841:           
 1174               		
 1175               	 ;  0 "" 2
 1176               	/* #NOAPP */
 1177 0492 8695      		lsr r24
 1178 0494 8695      		lsr r24
 1179 0496 8095      		com r24
 1180               	.LBE228:
 1181               	.LBE227:
 1182               	.LM154:
 1183 0498 8170      		andi r24,lo8(1)
 1184               	/* epilogue start */
 1185 049a 0895      		ret
 1186               	.LFE24:
 1188               	.global	i2c_readbyte
 1190               	i2c_readbyte:
 1191               	.LFB25:
 1192               	.LM155:
 1193               	.LVL58:
 1194               	/* prologue: function */
 1195               	/* frame size = 0 */
 1196 049c 682F      		mov r22,r24
 1197               	.LM156:
 1198 049e 8A98      		cbi 49-32,2
 1199 04a0 38E0      		ldi r19,lo8(8)
 1200               	.LVL59:
 1201 04a2 20E0      		ldi r18,lo8(0)
 1202               	.LVL60:
 1203               	.LBB229:
 1204               	.LBB230:
 1205               	.LM157:
 1206 04a4 45E0      		ldi r20,lo8(5)
 1207 04a6 50E0      		ldi r21,hi8(5)
 1208               	.LVL61:
 1209               	.L90:
 1210               	.LBE230:
 1211               	.LBE229:
 1212               	.LM158:
 1213 04a8 220F      		lsl r18
 1214               	.LM159:
 1215 04aa 8B98      		cbi 49-32,3
 1216               	.LBB232:
 1217               	.LBB231:
 1218               	.LM160:
 1219 04ac CA01      		movw r24,r20
 1220               	.LVL62:
 1221               	/* #APP */
 1222               	 ;  13 "delay.h" 1
 1223 04ae 8115      		cp  r24,__zero_reg__ 
 1224 04b0 9105      		cpc r25,__zero_reg__ 
 1225 04b2 01F0      		breq L_Exit_884       
 1226               		L_LOOP_884:           
 1227 04b4 0197      		sbiw r24,1            
 1228 04b6 01F4      		brne L_LOOP_884       
 1229               		L_Exit_884:           
 1230               		
 1231               	 ;  0 "" 2
 1232               	/* #NOAPP */
 1233               	.LBE231:
 1234               	.LBE232:
 1235               	.LM161:
 1236 04b8 80B3      		in r24,48-32
 1237               	.LVL63:
 1238               	.LM162:
 1239 04ba 90E0      		ldi r25,lo8(0)
 1240               	.LVL64:
 1241 04bc 8470      		andi r24,lo8(4)
 1242 04be 9070      		andi r25,hi8(4)
 1243               	.LVL65:
 1244 04c0 9595      		asr r25
 1245 04c2 8795      		ror r24
 1246 04c4 9595      		asr r25
 1247 04c6 8795      		ror r24
 1248               	.LVL66:
 1249               	.LM163:
 1250 04c8 282B      		or r18,r24
 1251               	.LM164:
 1252 04ca 8B9A      		sbi 49-32,3
 1253               	.LBB233:
 1254               	.LBB234:
 1255               	.LM165:
 1256 04cc CA01      		movw r24,r20
 1257               	.LVL67:
 1258               	/* #APP */
 1259               	 ;  13 "delay.h" 1
 1260 04ce 8115      		cp  r24,__zero_reg__ 
 1261 04d0 9105      		cpc r25,__zero_reg__ 
 1262 04d2 01F0      		breq L_Exit_905       
 1263               		L_LOOP_905:           
 1264 04d4 0197      		sbiw r24,1            
 1265 04d6 01F4      		brne L_LOOP_905       
 1266               		L_Exit_905:           
 1267               		
 1268               	 ;  0 "" 2
 1269               	/* #NOAPP */
 1270               	.LBE234:
 1271               	.LBE233:
 1272               	.LM166:
 1273 04d8 3150      		subi r19,lo8(-(-1))
 1274 04da 01F4      		brne .L90
 1275               	.LM167:
 1276 04dc 6111      		cpse r22,__zero_reg__
 1277               	.LM168:
 1278 04de 8A9A      		sbi 49-32,2
 1279               	.L91:
 1280               	.LM169:
 1281 04e0 8B98      		cbi 49-32,3
 1282               	.LBB235:
 1283               	.LBB236:
 1284               	.LM170:
 1285 04e2 85E0      		ldi r24,lo8(5)
 1286 04e4 90E0      		ldi r25,hi8(5)
 1287               	.LVL68:
 1288               	/* #APP */
 1289               	 ;  13 "delay.h" 1
 1290 04e6 8115      		cp  r24,__zero_reg__ 
 1291 04e8 9105      		cpc r25,__zero_reg__ 
 1292 04ea 01F0      		breq L_Exit_927       
 1293               		L_LOOP_927:           
 1294 04ec 0197      		sbiw r24,1            
 1295 04ee 01F4      		brne L_LOOP_927       
 1296               		L_Exit_927:           
 1297               		
 1298               	 ;  0 "" 2
 1299               	/* #NOAPP */
 1300               	.LBE236:
 1301               	.LBE235:
 1302               	.LM171:
 1303 04f0 8B9A      		sbi 49-32,3
 1304               	.LM172:
 1305 04f2 822F      		mov r24,r18
 1306               	.LVL69:
 1307               	/* epilogue start */
 1308 04f4 0895      		ret
 1309               	.LFE25:
 1311               	.global	DS_write
 1313               	DS_write:
 1314               	.LFB26:
 1315               	.LM173:
 1316               	.LVL70:
 1317 04f6 0F93      		push r16
 1318 04f8 1F93      		push r17
 1319               	/* prologue: function */
 1320               	/* frame size = 0 */
 1321 04fa 182F      		mov r17,r24
 1322 04fc 062F      		mov r16,r22
 1323               	.LM174:
 1324 04fe 0E94 0000 		call i2c_start
 1325               	.LVL71:
 1326               	.LM175:
 1327 0502 80ED      		ldi r24,lo8(-48)
 1328 0504 0E94 0000 		call i2c_sendbyte
 1329               	.LM176:
 1330 0508 812F      		mov r24,r17
 1331 050a 0E94 0000 		call i2c_sendbyte
 1332               	.LM177:
 1333 050e 802F      		mov r24,r16
 1334 0510 0E94 0000 		call i2c_sendbyte
 1335               	.LM178:
 1336 0514 0E94 0000 		call i2c_stop
 1337               	/* epilogue start */
 1338               	.LM179:
 1339 0518 1F91      		pop r17
 1340               	.LVL72:
 1341 051a 0F91      		pop r16
 1342               	.LVL73:
 1343 051c 0895      		ret
 1344               	.LFE26:
 1346               	.global	DS_read
 1348               	DS_read:
 1349               	.LFB27:
 1350               	.LM180:
 1351               	.LVL74:
 1352 051e 1F93      		push r17
 1353               	/* prologue: function */
 1354               	/* frame size = 0 */
 1355 0520 182F      		mov r17,r24
 1356               	.LM181:
 1357 0522 0E94 0000 		call i2c_start
 1358               	.LVL75:
 1359               	.LM182:
 1360 0526 80ED      		ldi r24,lo8(-48)
 1361 0528 0E94 0000 		call i2c_sendbyte
 1362               	.LM183:
 1363 052c 812F      		mov r24,r17
 1364 052e 0E94 0000 		call i2c_sendbyte
 1365               	.LM184:
 1366 0532 0E94 0000 		call i2c_stop
 1367               	.LM185:
 1368 0536 0E94 0000 		call i2c_start
 1369               	.LM186:
 1370 053a 81ED      		ldi r24,lo8(-47)
 1371 053c 0E94 0000 		call i2c_sendbyte
 1372               	.LM187:
 1373 0540 80E0      		ldi r24,lo8(0)
 1374 0542 0E94 0000 		call i2c_readbyte
 1375 0546 182F      		mov r17,r24
 1376               	.LVL76:
 1377               	.LM188:
 1378 0548 0E94 0000 		call i2c_stop
 1379               	.LM189:
 1380 054c 812F      		mov r24,r17
 1381               	/* epilogue start */
 1382 054e 1F91      		pop r17
 1383               	.LVL77:
 1384 0550 0895      		ret
 1385               	.LFE27:
 1387               	.global	DS1307_init
 1389               	DS1307_init:
 1390               	.LFB28:
 1391               	.LM190:
 1392               	/* prologue: function */
 1393               	/* frame size = 0 */
 1394               	.LM191:
 1395 0552 82E0      		ldi r24,lo8(2)
 1396 0554 0E94 0000 		call DS_read
 1397 0558 682F      		mov r22,r24
 1398               	.LVL78:
 1399               	.LM192:
 1400 055a 86FF      		sbrs r24,6
 1401 055c 00C0      		rjmp .L99
 1402               	.LVL79:
 1403               	.LM193:
 1404 055e 6F7B      		andi r22,lo8(-65)
 1405               	.LVL80:
 1406 0560 82E0      		ldi r24,lo8(2)
 1407 0562 0E94 0000 		call DS_write
 1408               	.LVL81:
 1409               	.L99:
 1410               	.LM194:
 1411 0566 80E0      		ldi r24,lo8(0)
 1412               	.LVL82:
 1413 0568 0E94 0000 		call DS_read
 1414               	.LVL83:
 1415 056c 682F      		mov r22,r24
 1416               	.LVL84:
 1417               	.LM195:
 1418 056e 87FF      		sbrs r24,7
 1419 0570 00C0      		rjmp .L101
 1420               	.LVL85:
 1421               	.LM196:
 1422 0572 6F77      		andi r22,lo8(127)
 1423               	.LVL86:
 1424 0574 80E0      		ldi r24,lo8(0)
 1425 0576 0E94 0000 		call DS_write
 1426               	.LVL87:
 1427               	.L101:
 1428 057a 0895      		ret
 1429               	.LFE28:
 1431               	.global	DS1307
 1433               	DS1307:
 1434               	.LFB29:
 1435               	.LM197:
 1436               	/* prologue: function */
 1437               	/* frame size = 0 */
 1438               	.LM198:
 1439 057c 0E94 0000 		call i2c_start
 1440               	.LM199:
 1441 0580 80ED      		ldi r24,lo8(-48)
 1442 0582 0E94 0000 		call i2c_sendbyte
 1443               	.LM200:
 1444 0586 80E0      		ldi r24,lo8(0)
 1445 0588 0E94 0000 		call i2c_sendbyte
 1446               	.LM201:
 1447 058c 0E94 0000 		call i2c_start
 1448               	.LM202:
 1449 0590 81ED      		ldi r24,lo8(-47)
 1450 0592 0E94 0000 		call i2c_sendbyte
 1451               	.LM203:
 1452 0596 81E0      		ldi r24,lo8(1)
 1453 0598 0E94 0000 		call i2c_readbyte
 1454 059c 8093 0000 		sts buffer_ds,r24
 1455               	.LM204:
 1456 05a0 81E0      		ldi r24,lo8(1)
 1457 05a2 0E94 0000 		call i2c_readbyte
 1458 05a6 8093 0000 		sts buffer_ds+1,r24
 1459               	.LM205:
 1460 05aa 80E0      		ldi r24,lo8(0)
 1461 05ac 0E94 0000 		call i2c_readbyte
 1462 05b0 8093 0000 		sts buffer_ds+2,r24
 1463               	.LM206:
 1464 05b4 0E94 0000 		call i2c_stop
 1465               	/* epilogue start */
 1466               	.LM207:
 1467 05b8 0895      		ret
 1468               	.LFE29:
 1470               	.global	IntToDec
 1472               	IntToDec:
 1473               	.LFB30:
 1474               	.LM208:
 1475               	.LVL88:
 1476               	/* prologue: function */
 1477               	/* frame size = 0 */
 1478               	.LM209:
 1479 05ba 64E6      		ldi r22,lo8(100)
 1480 05bc 0E94 0000 		call __udivmodqi4
 1481               	.LVL89:
 1482 05c0 492F      		mov r20,r25
 1483 05c2 892F      		mov r24,r25
 1484 05c4 6AE0      		ldi r22,lo8(10)
 1485 05c6 0E94 0000 		call __udivmodqi4
 1486 05ca 282F      		mov r18,r24
 1487 05cc 30E0      		ldi r19,lo8(0)
 1488 05ce E4E0      		ldi r30,4
 1489 05d0 220F      	1:	lsl r18
 1490 05d2 331F      		rol r19
 1491 05d4 EA95      		dec r30
 1492 05d6 01F4      		brne 1b
 1493 05d8 842F      		mov r24,r20
 1494 05da 0E94 0000 		call __udivmodqi4
 1495               	.LM210:
 1496 05de 892F      		mov r24,r25
 1497 05e0 820F      		add r24,r18
 1498               	/* epilogue start */
 1499 05e2 0895      		ret
 1500               	.LFE30:
 1502               	.global	DS1307_set_time
 1504               	DS1307_set_time:
 1505               	.LFB31:
 1506               	.LM211:
 1507               	/* prologue: function */
 1508               	/* frame size = 0 */
 1509               	.LM212:
 1510 05e4 8091 0000 		lds r24,buffer_time
 1511 05e8 0E94 0000 		call IntToDec
 1512 05ec 682F      		mov r22,r24
 1513 05ee 82E0      		ldi r24,lo8(2)
 1514 05f0 0E94 0000 		call DS_write
 1515               	.LM213:
 1516 05f4 8091 0000 		lds r24,buffer_time+1
 1517 05f8 0E94 0000 		call IntToDec
 1518 05fc 682F      		mov r22,r24
 1519 05fe 81E0      		ldi r24,lo8(1)
 1520 0600 0E94 0000 		call DS_write
 1521               	.LM214:
 1522 0604 8091 0000 		lds r24,buffer_time+2
 1523 0608 0E94 0000 		call IntToDec
 1524 060c 682F      		mov r22,r24
 1525 060e 80E0      		ldi r24,lo8(0)
 1526 0610 0E94 0000 		call DS_write
 1527               	/* epilogue start */
 1528               	.LM215:
 1529 0614 0895      		ret
 1530               	.LFE31:
 1532               	.global	usart_init
 1534               	usart_init:
 1535               	.LFB35:
 1536               	.LM216:
 1537               	/* prologue: function */
 1538               	/* frame size = 0 */
 1539               	.LM217:
 1540 0616 8898      		cbi 49-32,0
 1541               	.LM218:
 1542 0618 899A      		sbi 49-32,1
 1543               	.LM219:
 1544 061a 87E4      		ldi r24,lo8(71)
 1545 061c 89B9      		out 41-32,r24
 1546               	.LM220:
 1547 061e 10BC      		out 64-32,__zero_reg__
 1548               	.LM221:
 1549 0620 1BB8      		out 43-32,__zero_reg__
 1550               	.LM222:
 1551 0622 88ED      		ldi r24,lo8(-40)
 1552 0624 8AB9      		out 42-32,r24
 1553               	.LM223:
 1554 0626 86E8      		ldi r24,lo8(-122)
 1555 0628 80BD      		out 64-32,r24
 1556               	/* epilogue start */
 1557               	.LM224:
 1558 062a 0895      		ret
 1559               	.LFE35:
 1561               	.global	buffer_out
 1563               	buffer_out:
 1564               	.LFB36:
 1565               	.LM225:
 1566               	/* prologue: function */
 1567               	/* frame size = 0 */
 1568               	.LM226:
 1569 062c 8091 0000 		lds r24,buffer_index
 1570 0630 9091 0000 		lds r25,(buffer_index)+1
 1571 0634 0196      		adiw r24,1
 1572 0636 9093 0000 		sts (buffer_index)+1,r25
 1573 063a 8093 0000 		sts buffer_index,r24
 1574               	.LM227:
 1575 063e 2091 0000 		lds r18,buffer_index
 1576 0642 3091 0000 		lds r19,(buffer_index)+1
 1577 0646 8091 0000 		lds r24,usart_data_in_num
 1578 064a 9091 0000 		lds r25,(usart_data_in_num)+1
 1579 064e 2817      		cp r18,r24
 1580 0650 3907      		cpc r19,r25
 1581 0652 01F4      		brne .L111
 1582               	.LM228:
 1583 0654 1092 0000 		sts TRANSMIT,__zero_reg__
 1584               	.LM229:
 1585 0658 5398      		cbi 42-32,3
 1586               	.LM230:
 1587 065a 5598      		cbi 42-32,5
 1588               	.LM231:
 1589 065c 5E98      		cbi 43-32,6
 1590 065e 0895      		ret
 1591               	.L111:
 1592               	.LM232:
 1593 0660 E091 0000 		lds r30,buffer_index
 1594 0664 F091 0000 		lds r31,(buffer_index)+1
 1595 0668 E050      		subi r30,lo8(-(buffer))
 1596 066a F040      		sbci r31,hi8(-(buffer))
 1597 066c 8081      		ld r24,Z
 1598 066e 8CB9      		out 44-32,r24
 1599 0670 0895      		ret
 1600               	.LFE36:
 1602               	.global	__vector_14
 1604               	__vector_14:
 1605               	.LFB32:
 1606               	.LM233:
 1607 0672 1F92      		push __zero_reg__
 1608 0674 0F92      		push r0
 1609 0676 0FB6      		in r0,__SREG__
 1610 0678 0F92      		push r0
 1611 067a 1124      		clr __zero_reg__
 1612 067c 2F93      		push r18
 1613 067e 3F93      		push r19
 1614 0680 4F93      		push r20
 1615 0682 5F93      		push r21
 1616 0684 6F93      		push r22
 1617 0686 7F93      		push r23
 1618 0688 8F93      		push r24
 1619 068a 9F93      		push r25
 1620 068c AF93      		push r26
 1621 068e BF93      		push r27
 1622 0690 EF93      		push r30
 1623 0692 FF93      		push r31
 1624               	/* prologue: Signal */
 1625               	/* frame size = 0 */
 1626               	.LM234:
 1627 0694 0E94 0000 		call buffer_out
 1628               	/* epilogue start */
 1629               	.LM235:
 1630 0698 FF91      		pop r31
 1631 069a EF91      		pop r30
 1632 069c BF91      		pop r27
 1633 069e AF91      		pop r26
 1634 06a0 9F91      		pop r25
 1635 06a2 8F91      		pop r24
 1636 06a4 7F91      		pop r23
 1637 06a6 6F91      		pop r22
 1638 06a8 5F91      		pop r21
 1639 06aa 4F91      		pop r20
 1640 06ac 3F91      		pop r19
 1641 06ae 2F91      		pop r18
 1642 06b0 0F90      		pop r0
 1643 06b2 0FBE      		out __SREG__,r0
 1644 06b4 0F90      		pop r0
 1645 06b6 1F90      		pop __zero_reg__
 1646 06b8 1895      		reti
 1647               	.LFE32:
 1649               	.global	buffer_start
 1651               	buffer_start:
 1652               	.LFB37:
 1653               	.LM236:
 1654               	/* prologue: function */
 1655               	/* frame size = 0 */
 1656               	.LM237:
 1657 06ba 1092 0000 		sts (buffer_index)+1,__zero_reg__
 1658 06be 1092 0000 		sts buffer_index,__zero_reg__
 1659               	.LM238:
 1660 06c2 539A      		sbi 42-32,3
 1661               	.LM239:
 1662 06c4 8091 0000 		lds r24,buffer
 1663 06c8 8CB9      		out 44-32,r24
 1664               	.LM240:
 1665 06ca 559A      		sbi 42-32,5
 1666               	/* epilogue start */
 1667               	.LM241:
 1668 06cc 0895      		ret
 1669               	.LFE37:
 1671               	.global	__vector_15
 1673               	__vector_15:
 1674               	.LFB34:
 1675               	.LM242:
 1676 06ce 1F92      		push __zero_reg__
 1677 06d0 0F92      		push r0
 1678 06d2 0FB6      		in r0,__SREG__
 1679 06d4 0F92      		push r0
 1680 06d6 1124      		clr __zero_reg__
 1681 06d8 2F93      		push r18
 1682 06da 3F93      		push r19
 1683 06dc 4F93      		push r20
 1684 06de 5F93      		push r21
 1685 06e0 6F93      		push r22
 1686 06e2 7F93      		push r23
 1687 06e4 8F93      		push r24
 1688 06e6 9F93      		push r25
 1689 06e8 AF93      		push r26
 1690 06ea BF93      		push r27
 1691 06ec EF93      		push r30
 1692 06ee FF93      		push r31
 1693               	/* prologue: Signal */
 1694               	/* frame size = 0 */
 1695               	.LM243:
 1696 06f0 8091 0000 		lds r24,TRANSMIT
 1697 06f4 8823      		tst r24
 1698 06f6 01F0      		breq .L120
 1699 06f8 0E94 0000 		call buffer_start
 1700               	.L120:
 1701               	/* epilogue start */
 1702               	.LM244:
 1703 06fc FF91      		pop r31
 1704 06fe EF91      		pop r30
 1705 0700 BF91      		pop r27
 1706 0702 AF91      		pop r26
 1707 0704 9F91      		pop r25
 1708 0706 8F91      		pop r24
 1709 0708 7F91      		pop r23
 1710 070a 6F91      		pop r22
 1711 070c 5F91      		pop r21
 1712 070e 4F91      		pop r20
 1713 0710 3F91      		pop r19
 1714 0712 2F91      		pop r18
 1715 0714 0F90      		pop r0
 1716 0716 0FBE      		out __SREG__,r0
 1717 0718 0F90      		pop r0
 1718 071a 1F90      		pop __zero_reg__
 1719 071c 1895      		reti
 1720               	.LFE34:
 1722               	.global	__vector_13
 1724               	__vector_13:
 1725               	.LFB33:
 1726               	.LM245:
 1727 071e 1F92      		push __zero_reg__
 1728 0720 0F92      		push r0
 1729 0722 0FB6      		in r0,__SREG__
 1730 0724 0F92      		push r0
 1731 0726 1124      		clr __zero_reg__
 1732 0728 2F93      		push r18
 1733 072a 3F93      		push r19
 1734 072c 4F93      		push r20
 1735 072e 5F93      		push r21
 1736 0730 6F93      		push r22
 1737 0732 7F93      		push r23
 1738 0734 8F93      		push r24
 1739 0736 9F93      		push r25
 1740 0738 AF93      		push r26
 1741 073a BF93      		push r27
 1742 073c EF93      		push r30
 1743 073e FF93      		push r31
 1744               	/* prologue: Signal */
 1745               	/* frame size = 0 */
 1746               	.LM246:
 1747 0740 E091 0000 		lds r30,usart_count
 1748 0744 F091 0000 		lds r31,(usart_count)+1
 1749 0748 8CB1      		in r24,44-32
 1750 074a E050      		subi r30,lo8(-(usart_data_in))
 1751 074c F040      		sbci r31,hi8(-(usart_data_in))
 1752 074e 8083      		st Z,r24
 1753               	.LM247:
 1754 0750 E091 0000 		lds r30,usart_count
 1755 0754 F091 0000 		lds r31,(usart_count)+1
 1756 0758 E050      		subi r30,lo8(-(usart_data_in))
 1757 075a F040      		sbci r31,hi8(-(usart_data_in))
 1758 075c 8081      		ld r24,Z
 1759 075e 8B33      		cpi r24,lo8(59)
 1760 0760 01F4      		brne .L122
 1761               	.LM248:
 1762 0762 1092 0000 		sts (usart_count)+1,__zero_reg__
 1763 0766 1092 0000 		sts usart_count,__zero_reg__
 1764               	.LM249:
 1765 076a E091 0000 		lds r30,usart_count
 1766 076e F091 0000 		lds r31,(usart_count)+1
 1767 0772 E050      		subi r30,lo8(-(usart_data_in))
 1768 0774 F040      		sbci r31,hi8(-(usart_data_in))
 1769 0776 8083      		st Z,r24
 1770               	.L122:
 1771               	.LM250:
 1772 0778 E091 0000 		lds r30,usart_count
 1773 077c F091 0000 		lds r31,(usart_count)+1
 1774 0780 E050      		subi r30,lo8(-(usart_data_in))
 1775 0782 F040      		sbci r31,hi8(-(usart_data_in))
 1776 0784 8081      		ld r24,Z
 1777 0786 833B      		cpi r24,lo8(-77)
 1778 0788 01F4      		brne .L123
 1779               	.LM251:
 1780 078a 81E0      		ldi r24,lo8(1)
 1781 078c 8093 0000 		sts TRANSMIT,r24
 1782 0790 20E0      		ldi r18,lo8(0)
 1783 0792 30E0      		ldi r19,hi8(0)
 1784               	.LVL90:
 1785 0794 00C0      		rjmp .L124
 1786               	.L125:
 1787               	.LBB237:
 1788               	.LM252:
 1789 0796 F901      		movw r30,r18
 1790 0798 E050      		subi r30,lo8(-(usart_data_in))
 1791 079a F040      		sbci r31,hi8(-(usart_data_in))
 1792 079c 8081      		ld r24,Z
 1793 079e F901      		movw r30,r18
 1794 07a0 E050      		subi r30,lo8(-(buffer))
 1795 07a2 F040      		sbci r31,hi8(-(buffer))
 1796 07a4 8083      		st Z,r24
 1797               	.LM253:
 1798 07a6 2F5F      		subi r18,lo8(-(1))
 1799 07a8 3F4F      		sbci r19,hi8(-(1))
 1800               	.L124:
 1801 07aa 8091 0000 		lds r24,usart_count
 1802 07ae 9091 0000 		lds r25,(usart_count)+1
 1803 07b2 8217      		cp r24,r18
 1804 07b4 9307      		cpc r25,r19
 1805 07b6 00F4      		brsh .L125
 1806               	.LBE237:
 1807               	.LM254:
 1808 07b8 8091 0000 		lds r24,usart_count
 1809 07bc 9091 0000 		lds r25,(usart_count)+1
 1810 07c0 0196      		adiw r24,1
 1811 07c2 9093 0000 		sts (usart_data_in_num)+1,r25
 1812 07c6 8093 0000 		sts usart_data_in_num,r24
 1813               	.LM255:
 1814 07ca 0E94 0000 		call buffer_start
 1815               	.LVL91:
 1816               	.LM256:
 1817 07ce 1092 0000 		sts (usart_count)+1,__zero_reg__
 1818 07d2 1092 0000 		sts usart_count,__zero_reg__
 1819               	.L123:
 1820               	.LM257:
 1821 07d6 8091 0000 		lds r24,usart_count
 1822 07da 9091 0000 		lds r25,(usart_count)+1
 1823 07de 0196      		adiw r24,1
 1824 07e0 9093 0000 		sts (usart_count)+1,r25
 1825 07e4 8093 0000 		sts usart_count,r24
 1826               	/* epilogue start */
 1827               	.LM258:
 1828 07e8 FF91      		pop r31
 1829 07ea EF91      		pop r30
 1830 07ec BF91      		pop r27
 1831 07ee AF91      		pop r26
 1832 07f0 9F91      		pop r25
 1833 07f2 8F91      		pop r24
 1834 07f4 7F91      		pop r23
 1835 07f6 6F91      		pop r22
 1836 07f8 5F91      		pop r21
 1837 07fa 4F91      		pop r20
 1838 07fc 3F91      		pop r19
 1839 07fe 2F91      		pop r18
 1840 0800 0F90      		pop r0
 1841 0802 0FBE      		out __SREG__,r0
 1842 0804 0F90      		pop r0
 1843 0806 1F90      		pop __zero_reg__
 1844 0808 1895      		reti
 1845               	.LFE33:
 1847               	.global	write
 1849               	write:
 1850               	.LFB43:
 1851               	.LM259:
 1852               	/* prologue: function */
 1853               	/* frame size = 0 */
 1854               	.LM260:
 1855 080a AE9A      		sbi 53-32,6
 1856               	.LBB238:
 1857               	.LBB239:
 1858               	.LBB240:
 1859               	.LBB241:
 1860               	.LBB242:
 1861               	.LBB243:
 1862               	.LM261:
 1863 080c 88E2      		ldi r24,lo8(552)
 1864 080e 92E0      		ldi r25,hi8(552)
 1865 0810 FC01      		movw r30,r24
 1866               	.LVL92:
 1867               	/* #APP */
 1868               	 ;  105 "c:/winavr-20100110/lib/gcc/../../avr/include/util/delay_basic.h" 1
 1869 0812 3197      		1: sbiw r30,1
 1870 0814 01F4      		brne 1b
 1871               	 ;  0 "" 2
 1872               	/* #NOAPP */
 1873               	.LBE243:
 1874               	.LBE242:
 1875               	.LBE241:
 1876               	.LBE240:
 1877               	.LBE239:
 1878               	.LBE238:
 1879               	.LM262:
 1880 0816 AE98      		cbi 53-32,6
 1881               	.LBB244:
 1882               	.LBB245:
 1883               	.LBB246:
 1884               	.LBB247:
 1885               	.LBB248:
 1886               	.LBB249:
 1887               	.LM263:
 1888               	/* #APP */
 1889               	 ;  105 "c:/winavr-20100110/lib/gcc/../../avr/include/util/delay_basic.h" 1
 1890 0818 0197      		1: sbiw r24,1
 1891 081a 01F4      		brne 1b
 1892               	 ;  0 "" 2
 1893               	.LVL93:
 1894               	/* epilogue start */
 1895               	/* #NOAPP */
 1896               	.LBE249:
 1897               	.LBE248:
 1898               	.LBE247:
 1899               	.LBE246:
 1900               	.LBE245:
 1901               	.LBE244:
 1902               	.LM264:
 1903 081c 0895      		ret
 1904               	.LFE43:
 1906               	.global	comand_to_LCD
 1908               	comand_to_LCD:
 1909               	.LFB44:
 1910               	.LM265:
 1911               	.LVL94:
 1912 081e 1F93      		push r17
 1913               	/* prologue: function */
 1914               	/* frame size = 0 */
 1915 0820 182F      		mov r17,r24
 1916               	.LM266:
 1917 0822 AF98      		cbi 53-32,7
 1918               	.LBB250:
 1919               	.LBB251:
 1920               	.LBB252:
 1921               	.LBB253:
 1922               	.LBB254:
 1923               	.LBB255:
 1924               	.LM267:
 1925 0824 88E2      		ldi r24,lo8(552)
 1926 0826 92E0      		ldi r25,hi8(552)
 1927               	.LVL95:
 1928               	/* #APP */
 1929               	 ;  105 "c:/winavr-20100110/lib/gcc/../../avr/include/util/delay_basic.h" 1
 1930 0828 0197      		1: sbiw r24,1
 1931 082a 01F4      		brne 1b
 1932               	 ;  0 "" 2
 1933               	/* #NOAPP */
 1934               	.LBE255:
 1935               	.LBE254:
 1936               	.LBE253:
 1937               	.LBE252:
 1938               	.LBE251:
 1939               	.LBE250:
 1940               	.LM268:
 1941 082c 89B3      		in r24,57-32
 1942               	.LVL96:
 1943 082e 912F      		mov r25,r17
 1944 0830 907F      		andi r25,lo8(-16)
 1945 0832 8F70      		andi r24,lo8(15)
 1946 0834 982B      		or r25,r24
 1947 0836 9BBB      		out 59-32,r25
 1948               	.LM269:
 1949 0838 0E94 0000 		call write
 1950               	.LM270:
 1951 083c 89B3      		in r24,57-32
 1952 083e 1295      		swap r17
 1953 0840 107F      		andi r17,lo8(-16)
 1954 0842 8F70      		andi r24,lo8(15)
 1955 0844 812B      		or r24,r17
 1956 0846 8BBB      		out 59-32,r24
 1957               	.LM271:
 1958 0848 0E94 0000 		call write
 1959               	/* epilogue start */
 1960               	.LM272:
 1961 084c 1F91      		pop r17
 1962               	.LVL97:
 1963 084e 0895      		ret
 1964               	.LFE44:
 1966               	.global	init_LCD
 1968               	init_LCD:
 1969               	.LFB42:
 1970               	.LM273:
 1971 0850 1F93      		push r17
 1972               	/* prologue: function */
 1973               	/* frame size = 0 */
 1974               	.LM274:
 1975 0852 A79A      		sbi 52-32,7
 1976               	.LM275:
 1977 0854 A69A      		sbi 52-32,6
 1978               	.LM276:
 1979 0856 AF98      		cbi 53-32,7
 1980               	.LBB256:
 1981               	.LBB257:
 1982               	.LBB258:
 1983               	.LBB259:
 1984               	.LBB260:
 1985               	.LBB261:
 1986               	.LM277:
 1987 0858 88E2      		ldi r24,lo8(552)
 1988 085a 92E0      		ldi r25,hi8(552)
 1989               	.LVL98:
 1990               	/* #APP */
 1991               	 ;  105 "c:/winavr-20100110/lib/gcc/../../avr/include/util/delay_basic.h" 1
 1992 085c 0197      		1: sbiw r24,1
 1993 085e 01F4      		brne 1b
 1994               	 ;  0 "" 2
 1995               	/* #NOAPP */
 1996               	.LBE261:
 1997               	.LBE260:
 1998               	.LBE259:
 1999               	.LBE258:
 2000               	.LBE257:
 2001               	.LBE256:
 2002               	.LM278:
 2003 0860 89B3      		in r24,57-32
 2004               	.LVL99:
 2005 0862 8F70      		andi r24,lo8(15)
 2006 0864 8062      		ori r24,lo8(32)
 2007 0866 8BBB      		out 59-32,r24
 2008               	.LM279:
 2009 0868 0E94 0000 		call write
 2010               	.LM280:
 2011 086c 88E2      		ldi r24,lo8(40)
 2012 086e 0E94 0000 		call comand_to_LCD
 2013               	.LBB262:
 2014               	.LBB263:
 2015               	.LBB264:
 2016               	.LBB265:
 2017               	.LM281:
 2018 0872 13E9      		ldi r17,lo8(-109)
 2019 0874 812F      		mov r24,r17
 2020               	.LVL100:
 2021               	/* #APP */
 2022               	 ;  83 "c:/winavr-20100110/lib/gcc/../../avr/include/util/delay_basic.h" 1
 2023 0876 8A95      		1: dec r24
 2024 0878 01F4      		brne 1b
 2025               	 ;  0 "" 2
 2026               	/* #NOAPP */
 2027               	.LBE265:
 2028               	.LBE264:
 2029               	.LBE263:
 2030               	.LBE262:
 2031               	.LM282:
 2032 087a 8CE0      		ldi r24,lo8(12)
 2033               	.LVL101:
 2034 087c 0E94 0000 		call comand_to_LCD
 2035               	.LBB266:
 2036               	.LBB267:
 2037               	.LBB268:
 2038               	.LBB269:
 2039               	.LM283:
 2040 0880 812F      		mov r24,r17
 2041               	.LVL102:
 2042               	/* #APP */
 2043               	 ;  83 "c:/winavr-20100110/lib/gcc/../../avr/include/util/delay_basic.h" 1
 2044 0882 8A95      		1: dec r24
 2045 0884 01F4      		brne 1b
 2046               	 ;  0 "" 2
 2047               	/* #NOAPP */
 2048               	.LBE269:
 2049               	.LBE268:
 2050               	.LBE267:
 2051               	.LBE266:
 2052               	.LM284:
 2053 0886 81E0      		ldi r24,lo8(1)
 2054               	.LVL103:
 2055 0888 0E94 0000 		call comand_to_LCD
 2056               	.LBB270:
 2057               	.LBB271:
 2058               	.LBB272:
 2059               	.LBB273:
 2060               	.LM285:
 2061 088c 89E9      		ldi r24,lo8(5529)
 2062 088e 95E1      		ldi r25,hi8(5529)
 2063               	.LVL104:
 2064               	/* #APP */
 2065               	 ;  105 "c:/winavr-20100110/lib/gcc/../../avr/include/util/delay_basic.h" 1
 2066 0890 0197      		1: sbiw r24,1
 2067 0892 01F4      		brne 1b
 2068               	 ;  0 "" 2
 2069               	/* #NOAPP */
 2070               	.LBE273:
 2071               	.LBE272:
 2072               	.LBE271:
 2073               	.LBE270:
 2074               	.LM286:
 2075 0894 86E0      		ldi r24,lo8(6)
 2076               	.LVL105:
 2077 0896 0E94 0000 		call comand_to_LCD
 2078               	.LBB274:
 2079               	.LBB275:
 2080               	.LBB276:
 2081               	.LBB277:
 2082               	.LM287:
 2083               	/* #APP */
 2084               	 ;  83 "c:/winavr-20100110/lib/gcc/../../avr/include/util/delay_basic.h" 1
 2085 089a 1A95      		1: dec r17
 2086 089c 01F4      		brne 1b
 2087               	 ;  0 "" 2
 2088               	.LVL106:
 2089               	/* #NOAPP */
 2090 089e 80E9      		ldi r24,lo8(400)
 2091 08a0 91E0      		ldi r25,hi8(400)
 2092               	.LVL107:
 2093               	.LBE277:
 2094               	.LBE276:
 2095               	.LBE275:
 2096               	.LBE274:
 2097               	.LBB278:
 2098               	.LBB279:
 2099               	.LBB280:
 2100               	.LBB281:
 2101               	.LM288:
 2102 08a2 24E1      		ldi r18,lo8(276)
 2103 08a4 31E0      		ldi r19,hi8(276)
 2104               	.L132:
 2105 08a6 F901      		movw r30,r18
 2106               	.LVL108:
 2107               	/* #APP */
 2108               	 ;  105 "c:/winavr-20100110/lib/gcc/../../avr/include/util/delay_basic.h" 1
 2109 08a8 3197      		1: sbiw r30,1
 2110 08aa 01F4      		brne 1b
 2111               	 ;  0 "" 2
 2112               	/* #NOAPP */
 2113               	.LBE281:
 2114               	.LBE280:
 2115               	.LM289:
 2116 08ac 0197      		sbiw r24,1
 2117               	.LM290:
 2118 08ae 01F4      		brne .L132
 2119               	/* epilogue start */
 2120               	.LBE279:
 2121               	.LBE278:
 2122               	.LM291:
 2123 08b0 1F91      		pop r17
 2124               	.LVL109:
 2125 08b2 0895      		ret
 2126               	.LFE42:
 2128               	.global	data_to_LCD
 2130               	data_to_LCD:
 2131               	.LFB45:
 2132               	.LM292:
 2133               	.LVL110:
 2134 08b4 1F93      		push r17
 2135               	/* prologue: function */
 2136               	/* frame size = 0 */
 2137 08b6 182F      		mov r17,r24
 2138               	.LM293:
 2139 08b8 AF9A      		sbi 53-32,7
 2140               	.LBB282:
 2141               	.LBB283:
 2142               	.LBB284:
 2143               	.LBB285:
 2144               	.LBB286:
 2145               	.LBB287:
 2146               	.LM294:
 2147 08ba 88E2      		ldi r24,lo8(552)
 2148 08bc 92E0      		ldi r25,hi8(552)
 2149               	.LVL111:
 2150               	/* #APP */
 2151               	 ;  105 "c:/winavr-20100110/lib/gcc/../../avr/include/util/delay_basic.h" 1
 2152 08be 0197      		1: sbiw r24,1
 2153 08c0 01F4      		brne 1b
 2154               	 ;  0 "" 2
 2155               	/* #NOAPP */
 2156               	.LBE287:
 2157               	.LBE286:
 2158               	.LBE285:
 2159               	.LBE284:
 2160               	.LBE283:
 2161               	.LBE282:
 2162               	.LM295:
 2163 08c2 89B3      		in r24,57-32
 2164               	.LVL112:
 2165 08c4 912F      		mov r25,r17
 2166 08c6 907F      		andi r25,lo8(-16)
 2167 08c8 8F70      		andi r24,lo8(15)
 2168 08ca 982B      		or r25,r24
 2169 08cc 9BBB      		out 59-32,r25
 2170               	.LM296:
 2171 08ce 0E94 0000 		call write
 2172               	.LM297:
 2173 08d2 89B3      		in r24,57-32
 2174 08d4 1295      		swap r17
 2175 08d6 107F      		andi r17,lo8(-16)
 2176 08d8 8F70      		andi r24,lo8(15)
 2177 08da 812B      		or r24,r17
 2178 08dc 8BBB      		out 59-32,r24
 2179               	.LM298:
 2180 08de 0E94 0000 		call write
 2181               	/* epilogue start */
 2182               	.LM299:
 2183 08e2 1F91      		pop r17
 2184               	.LVL113:
 2185 08e4 0895      		ret
 2186               	.LFE45:
 2188               	.global	string_to_LCD
 2190               	string_to_LCD:
 2191               	.LFB46:
 2192               	.LM300:
 2193               	.LVL114:
 2194 08e6 0F93      		push r16
 2195 08e8 1F93      		push r17
 2196 08ea CF93      		push r28
 2197 08ec DF93      		push r29
 2198               	/* prologue: function */
 2199               	/* frame size = 0 */
 2200 08ee 8A01      		movw r16,r20
 2201               	.LM301:
 2202 08f0 8230      		cpi r24,lo8(2)
 2203 08f2 01F0      		breq .L140
 2204               	.LVL115:
 2205 08f4 8330      		cpi r24,lo8(3)
 2206 08f6 00F4      		brsh .L143
 2207 08f8 8130      		cpi r24,lo8(1)
 2208 08fa 01F4      		brne .L138
 2209 08fc 00C0      		rjmp .L147
 2210               	.L143:
 2211 08fe 8330      		cpi r24,lo8(3)
 2212 0900 01F0      		breq .L141
 2213 0902 8430      		cpi r24,lo8(4)
 2214 0904 01F4      		brne .L138
 2215 0906 00C0      		rjmp .L148
 2216               	.L147:
 2217               	.LM302:
 2218 0908 6058      		subi r22,lo8(-(-128))
 2219               	.LVL116:
 2220 090a 00C0      		rjmp .L138
 2221               	.L140:
 2222               	.LM303:
 2223 090c 6054      		subi r22,lo8(-(-64))
 2224               	.LVL117:
 2225 090e 00C0      		rjmp .L138
 2226               	.L141:
 2227               	.LM304:
 2228 0910 6C56      		subi r22,lo8(-(-108))
 2229               	.LVL118:
 2230 0912 00C0      		rjmp .L138
 2231               	.L148:
 2232               	.LM305:
 2233 0914 6C52      		subi r22,lo8(-(-44))
 2234               	.LVL119:
 2235               	.L138:
 2236               	.LM306:
 2237 0916 862F      		mov r24,r22
 2238               	.LVL120:
 2239 0918 0E94 0000 		call comand_to_LCD
 2240               	.LVL121:
 2241 091c C0E0      		ldi r28,lo8(0)
 2242 091e D0E0      		ldi r29,hi8(0)
 2243               	.L144:
 2244               	.LBB288:
 2245               	.LM307:
 2246 0920 F801      		movw r30,r16
 2247 0922 EC0F      		add r30,r28
 2248 0924 FD1F      		adc r31,r29
 2249 0926 8081      		ld r24,Z
 2250 0928 0E94 0000 		call data_to_LCD
 2251 092c 2196      		adiw r28,1
 2252 092e C431      		cpi r28,20
 2253 0930 D105      		cpc r29,__zero_reg__
 2254 0932 01F4      		brne .L144
 2255               	/* epilogue start */
 2256               	.LBE288:
 2257               	.LM308:
 2258 0934 DF91      		pop r29
 2259 0936 CF91      		pop r28
 2260 0938 1F91      		pop r17
 2261 093a 0F91      		pop r16
 2262               	.LVL122:
 2263 093c 0895      		ret
 2264               	.LFE46:
 2266               	.global	__vector_5
 2268               	__vector_5:
 2269               	.LFB47:
 2270               	.LM309:
 2271 093e 1F92      		push __zero_reg__
 2272 0940 0F92      		push r0
 2273 0942 0FB6      		in r0,__SREG__
 2274 0944 0F92      		push r0
 2275 0946 1124      		clr __zero_reg__
 2276 0948 2F93      		push r18
 2277 094a 3F93      		push r19
 2278 094c 4F93      		push r20
 2279 094e 5F93      		push r21
 2280 0950 8F93      		push r24
 2281 0952 9F93      		push r25
 2282               	/* prologue: Signal */
 2283               	/* frame size = 0 */
 2284               	.LM310:
 2285 0954 8FE1      		ldi r24,lo8(31)
 2286 0956 84BD      		out 68-32,r24
 2287               	.LM311:
 2288 0958 2091 0000 		lds r18,FastCount.2340
 2289 095c 3091 0000 		lds r19,(FastCount.2340)+1
 2290 0960 2F5F      		subi r18,lo8(-(1))
 2291 0962 3F4F      		sbci r19,hi8(-(1))
 2292 0964 3093 0000 		sts (FastCount.2340)+1,r19
 2293 0968 2093 0000 		sts FastCount.2340,r18
 2294               	.LM312:
 2295 096c 4091 0000 		lds r20,FlagsFastCount
 2296 0970 5091 0000 		lds r21,(FlagsFastCount)+1
 2297 0974 8091 0000 		lds r24,PrevState.2339
 2298 0978 9091 0000 		lds r25,(PrevState.2339)+1
 2299 097c 8095      		com r24
 2300 097e 9095      		com r25
 2301 0980 8223      		and r24,r18
 2302 0982 9323      		and r25,r19
 2303 0984 842B      		or r24,r20
 2304 0986 952B      		or r25,r21
 2305 0988 9093 0000 		sts (FlagsFastCount)+1,r25
 2306 098c 8093 0000 		sts FlagsFastCount,r24
 2307               	.LM313:
 2308 0990 3093 0000 		sts (PrevState.2339)+1,r19
 2309 0994 2093 0000 		sts PrevState.2339,r18
 2310               	/* epilogue start */
 2311               	.LM314:
 2312 0998 9F91      		pop r25
 2313 099a 8F91      		pop r24
 2314 099c 5F91      		pop r21
 2315 099e 4F91      		pop r20
 2316 09a0 3F91      		pop r19
 2317 09a2 2F91      		pop r18
 2318 09a4 0F90      		pop r0
 2319 09a6 0FBE      		out __SREG__,r0
 2320 09a8 0F90      		pop r0
 2321 09aa 1F90      		pop __zero_reg__
 2322 09ac 1895      		reti
 2323               	.LFE47:
 2325               	.global	scale_t
 2327               	scale_t:
 2328               	.LFB49:
 2329               	.LM315:
 2330               	.LVL123:
 2331 09ae CF93      		push r28
 2332 09b0 DF93      		push r29
 2333               	/* prologue: function */
 2334               	/* frame size = 0 */
 2335 09b2 FB01      		movw r30,r22
 2336 09b4 DA01      		movw r26,r20
 2337 09b6 E901      		movw r28,r18
 2338 09b8 BC01      		movw r22,r24
 2339               	.LVL124:
 2340 09ba 6F70      		andi r22,lo8(15)
 2341 09bc 7070      		andi r23,hi8(15)
 2342               	.LM316:
 2343 09be 97FF      		sbrs r25,7
 2344 09c0 00C0      		rjmp .L152
 2345               	.LVL125:
 2346               	.LM317:
 2347 09c2 4427      		clr r20
 2348 09c4 5527      		clr r21
 2349 09c6 481B      		sub r20,r24
 2350 09c8 590B      		sbc r21,r25
 2351               	.LVL126:
 2352 09ca 34E0      		ldi r19,4
 2353 09cc 5695      	1:	lsr r21
 2354 09ce 4795      		ror r20
 2355 09d0 3A95      		dec r19
 2356 09d2 01F4      		brne 1b
 2357               	.LM318:
 2358 09d4 20E1      		ldi r18,lo8(16)
 2359 09d6 30E0      		ldi r19,hi8(16)
 2360               	.LVL127:
 2361 09d8 261B      		sub r18,r22
 2362 09da 370B      		sbc r19,r23
 2363 09dc 6DE2      		ldi r22,lo8(45)
 2364               	.LVL128:
 2365 09de 00C0      		rjmp .L153
 2366               	.LVL129:
 2367               	.L152:
 2368               	.LM319:
 2369 09e0 AC01      		movw r20,r24
 2370               	.LVL130:
 2371 09e2 24E0      		ldi r18,4
 2372 09e4 5695      	1:	lsr r21
 2373 09e6 4795      		ror r20
 2374 09e8 2A95      		dec r18
 2375 09ea 01F4      		brne 1b
 2376               	.LM320:
 2377 09ec 9B01      		movw r18,r22
 2378 09ee 6BE2      		ldi r22,lo8(43)
 2379               	.LVL131:
 2380               	.L153:
 2381               	.LM321:
 2382 09f0 892B      		or r24,r25
 2383 09f2 01F4      		brne .L154
 2384 09f4 60E2      		ldi r22,lo8(32)
 2385               	.L154:
 2386               	.LM322:
 2387 09f6 5183      		std Z+1,r21
 2388 09f8 4083      		st Z,r20
 2389               	.LM323:
 2390 09fa 81E7      		ldi r24,lo8(625)
 2391 09fc 92E0      		ldi r25,hi8(625)
 2392               	.LVL132:
 2393 09fe AC01      		movw r20,r24
 2394               	.LVL133:
 2395 0a00 249F      		mul r18,r20
 2396 0a02 C001      		movw r24,r0
 2397 0a04 259F      		mul r18,r21
 2398 0a06 900D      		add r25,r0
 2399 0a08 349F      		mul r19,r20
 2400 0a0a 900D      		add r25,r0
 2401 0a0c 1124      		clr r1
 2402 0a0e 8D93      		st X+,r24
 2403 0a10 9C93      		st X,r25
 2404               	.LM324:
 2405 0a12 6883      		st Y,r22
 2406               	/* epilogue start */
 2407               	.LM325:
 2408 0a14 DF91      		pop r29
 2409 0a16 CF91      		pop r28
 2410               	.LVL134:
 2411 0a18 0895      		ret
 2412               	.LFE49:
 2414               	.global	set_temp_mode_and_produv
 2416               	set_temp_mode_and_produv:
 2417               	.LFB51:
 2418               	.LM326:
 2419 0a1a CF92      		push r12
 2420 0a1c DF92      		push r13
 2421 0a1e EF92      		push r14
 2422 0a20 FF92      		push r15
 2423 0a22 0F93      		push r16
 2424 0a24 1F93      		push r17
 2425 0a26 CF93      		push r28
 2426 0a28 DF93      		push r29
 2427               	/* prologue: function */
 2428               	/* frame size = 0 */
 2429               	.LM327:
 2430 0a2a 8091 0000 		lds r24,temp_control
 2431 0a2e 8130      		cpi r24,lo8(1)
 2432 0a30 01F0      		breq .L158
 2433 0a32 8230      		cpi r24,lo8(2)
 2434 0a34 01F0      		breq .+2
 2435 0a36 00C0      		rjmp .L157
 2436 0a38 00C0      		rjmp .L213
 2437               	.L158:
 2438               	.LM328:
 2439 0a3a 8091 0000 		lds r24,set_temp_sensor
 2440 0a3e 8230      		cpi r24,lo8(2)
 2441 0a40 01F0      		breq .L162
 2442 0a42 8330      		cpi r24,lo8(3)
 2443 0a44 01F0      		breq .L163
 2444 0a46 8130      		cpi r24,lo8(1)
 2445 0a48 01F4      		brne .L160
 2446               	.LM329:
 2447 0a4a 8091 0000 		lds r24,string_2+8
 2448 0a4e 90E0      		ldi r25,lo8(0)
 2449 0a50 805D      		subi r24,lo8(-(-5328))
 2450 0a52 9441      		sbci r25,hi8(-(-5328))
 2451 0a54 2091 0000 		lds r18,string_2+5
 2452 0a58 44E6      		ldi r20,lo8(100)
 2453 0a5a 249F      		mul r18,r20
 2454 0a5c 9001      		movw r18,r0
 2455 0a5e 1124      		clr r1
 2456 0a60 820F      		add r24,r18
 2457 0a62 931F      		adc r25,r19
 2458 0a64 2091 0000 		lds r18,string_2+6
 2459 0a68 00C0      		rjmp .L211
 2460               	.L162:
 2461               	.LM330:
 2462 0a6a 8091 0000 		lds r24,string_3+8
 2463 0a6e 90E0      		ldi r25,lo8(0)
 2464 0a70 805D      		subi r24,lo8(-(-5328))
 2465 0a72 9441      		sbci r25,hi8(-(-5328))
 2466 0a74 2091 0000 		lds r18,string_3+5
 2467 0a78 44E6      		ldi r20,lo8(100)
 2468 0a7a 249F      		mul r18,r20
 2469 0a7c 9001      		movw r18,r0
 2470 0a7e 1124      		clr r1
 2471 0a80 820F      		add r24,r18
 2472 0a82 931F      		adc r25,r19
 2473 0a84 2091 0000 		lds r18,string_3+6
 2474 0a88 00C0      		rjmp .L211
 2475               	.L163:
 2476               	.LM331:
 2477 0a8a 8091 0000 		lds r24,string_4+8
 2478 0a8e 90E0      		ldi r25,lo8(0)
 2479 0a90 805D      		subi r24,lo8(-(-5328))
 2480 0a92 9441      		sbci r25,hi8(-(-5328))
 2481 0a94 2091 0000 		lds r18,string_4+5
 2482 0a98 44E6      		ldi r20,lo8(100)
 2483 0a9a 249F      		mul r18,r20
 2484 0a9c 9001      		movw r18,r0
 2485 0a9e 1124      		clr r1
 2486 0aa0 820F      		add r24,r18
 2487 0aa2 931F      		adc r25,r19
 2488 0aa4 2091 0000 		lds r18,string_4+6
 2489               	.L211:
 2490 0aa8 4AE0      		ldi r20,lo8(10)
 2491 0aaa 249F      		mul r18,r20
 2492 0aac 9001      		movw r18,r0
 2493 0aae 1124      		clr r1
 2494 0ab0 820F      		add r24,r18
 2495 0ab2 931F      		adc r25,r19
 2496 0ab4 9093 0000 		sts (temp_now)+1,r25
 2497 0ab8 8093 0000 		sts temp_now,r24
 2498               	.L160:
 2499               	.LM332:
 2500 0abc C091 0000 		lds r28,temp_now
 2501 0ac0 D091 0000 		lds r29,(temp_now)+1
 2502 0ac4 2097      		sbiw r28,0
 2503 0ac6 01F4      		brne .+2
 2504 0ac8 00C0      		rjmp .L157
 2505               	.LM333:
 2506 0aca C090 0000 		lds r12,set_temp
 2507 0ace D090 0000 		lds r13,(set_temp)+1
 2508 0ad2 8091 0000 		lds r24,set_temp_dec
 2509 0ad6 282F      		mov r18,r24
 2510 0ad8 30E0      		ldi r19,lo8(0)
 2511 0ada C601      		movw r24,r12
 2512 0adc 8C1B      		sub r24,r28
 2513 0ade 9D0B      		sbc r25,r29
 2514 0ae0 2817      		cp r18,r24
 2515 0ae2 3907      		cpc r19,r25
 2516 0ae4 04F4      		brge .L164
 2517 0ae6 81E0      		ldi r24,lo8(1)
 2518 0ae8 8093 0000 		sts heater,r24
 2519               	.L164:
 2520               	.LM334:
 2521 0aec 8091 0000 		lds r24,heater
 2522 0af0 8823      		tst r24
 2523 0af2 01F0      		breq .L165
 2524               	.LM335:
 2525 0af4 A99A      		sbi 53-32,1
 2526               	.LM336:
 2527 0af6 1CBE      		out 92-32,__zero_reg__
 2528               	.LM337:
 2529 0af8 CC15      		cp r28,r12
 2530 0afa DD05      		cpc r29,r13
 2531 0afc 04F0      		brlt .L166
 2532 0afe 1092 0000 		sts heater,__zero_reg__
 2533               	.L166:
 2534               	.LM338:
 2535 0b02 83E3      		ldi r24,lo8(51)
 2536 0b04 8093 0000 		sts heater_chanel_status,r24
 2537 0b08 00C0      		rjmp .L167
 2538               	.L165:
 2539               	.LM339:
 2540 0b0a A998      		cbi 53-32,1
 2541               	.L167:
 2542               	.LM340:
 2543 0b0c CE01      		movw r24,r28
 2544 0b0e 8C19      		sub r24,r12
 2545 0b10 9D09      		sbc r25,r13
 2546 0b12 2817      		cp r18,r24
 2547 0b14 3907      		cpc r19,r25
 2548 0b16 04F4      		brge .L168
 2549 0b18 81E0      		ldi r24,lo8(1)
 2550 0b1a 8093 0000 		sts cooler,r24
 2551               	.L168:
 2552               	.LM341:
 2553 0b1e 8091 0000 		lds r24,cooler
 2554 0b22 8823      		tst r24
 2555 0b24 01F4      		brne .+2
 2556 0b26 00C0      		rjmp .L169
 2557 0b28 2091 0000 		lds r18,time_now
 2558 0b2c 3091 0000 		lds r19,(time_now)+1
 2559 0b30 4091 0000 		lds r20,(time_now)+2
 2560 0b34 5091 0000 		lds r21,(time_now)+3
 2561 0b38 8091 0000 		lds r24,cooler_start
 2562 0b3c 9091 0000 		lds r25,(cooler_start)+1
 2563 0b40 A091 0000 		lds r26,(cooler_start)+2
 2564 0b44 B091 0000 		lds r27,(cooler_start)+3
 2565 0b48 8217      		cp r24,r18
 2566 0b4a 9307      		cpc r25,r19
 2567 0b4c A407      		cpc r26,r20
 2568 0b4e B507      		cpc r27,r21
 2569 0b50 00F0      		brlo .+2
 2570 0b52 00C0      		rjmp .L169
 2571 0b54 2091 0000 		lds r18,time_now
 2572 0b58 3091 0000 		lds r19,(time_now)+1
 2573 0b5c 4091 0000 		lds r20,(time_now)+2
 2574 0b60 5091 0000 		lds r21,(time_now)+3
 2575 0b64 8091 0000 		lds r24,cooler_stop
 2576 0b68 9091 0000 		lds r25,(cooler_stop)+1
 2577 0b6c A091 0000 		lds r26,(cooler_stop)+2
 2578 0b70 B091 0000 		lds r27,(cooler_stop)+3
 2579 0b74 2817      		cp r18,r24
 2580 0b76 3907      		cpc r19,r25
 2581 0b78 4A07      		cpc r20,r26
 2582 0b7a 5B07      		cpc r21,r27
 2583 0b7c 00F0      		brlo .+2
 2584 0b7e 00C0      		rjmp .L169
 2585               	.LM342:
 2586 0b80 8091 0000 		lds r24,cooler_start_pulse+1
 2587 0b84 8F5F      		subi r24,lo8(-(1))
 2588 0b86 8093 0000 		sts cooler_start_pulse+1,r24
 2589               	.LM343:
 2590 0b8a 8A30      		cpi r24,lo8(10)
 2591 0b8c 01F4      		brne .L170
 2592               	.LM344:
 2593 0b8e 89E0      		ldi r24,lo8(9)
 2594 0b90 8093 0000 		sts cooler_start_pulse+1,r24
 2595               	.LM345:
 2596 0b94 6091 0000 		lds r22,cooler_set
 2597 0b98 7091 0000 		lds r23,(cooler_set)+1
 2598 0b9c 80E0      		ldi r24,lo8(0)
 2599 0b9e 90E0      		ldi r25,hi8(0)
 2600 0ba0 0E94 0000 		call __floatunsisf
 2601 0ba4 6093 0000 		sts cooler_data+4,r22
 2602 0ba8 7093 0000 		sts (cooler_data+4)+1,r23
 2603 0bac 8093 0000 		sts (cooler_data+4)+2,r24
 2604 0bb0 9093 0000 		sts (cooler_data+4)+3,r25
 2605               	.LM346:
 2606 0bb4 E090 0000 		lds r14,cooler_min
 2607 0bb8 F090 0000 		lds r15,(cooler_min)+1
 2608 0bbc 0091 0000 		lds r16,(cooler_min)+2
 2609 0bc0 1091 0000 		lds r17,(cooler_min)+3
 2610 0bc4 A801      		movw r20,r16
 2611 0bc6 9701      		movw r18,r14
 2612 0bc8 0E94 0000 		call __ltsf2
 2613 0bcc 8823      		tst r24
 2614 0bce 04F4      		brge .L171
 2615 0bd0 E092 0000 		sts cooler_data+4,r14
 2616 0bd4 F092 0000 		sts (cooler_data+4)+1,r15
 2617 0bd8 0093 0000 		sts (cooler_data+4)+2,r16
 2618 0bdc 1093 0000 		sts (cooler_data+4)+3,r17
 2619 0be0 00C0      		rjmp .L171
 2620               	.L170:
 2621               	.LM347:
 2622 0be2 80E0      		ldi r24,lo8(0x437f0000)
 2623 0be4 90E0      		ldi r25,hi8(0x437f0000)
 2624 0be6 AFE7      		ldi r26,hlo8(0x437f0000)
 2625 0be8 B3E4      		ldi r27,hhi8(0x437f0000)
 2626 0bea 8093 0000 		sts cooler_data+4,r24
 2627 0bee 9093 0000 		sts (cooler_data+4)+1,r25
 2628 0bf2 A093 0000 		sts (cooler_data+4)+2,r26
 2629 0bf6 B093 0000 		sts (cooler_data+4)+3,r27
 2630               	.L171:
 2631               	.LM348:
 2632 0bfa 6091 0000 		lds r22,cooler_data+4
 2633 0bfe 7091 0000 		lds r23,(cooler_data+4)+1
 2634 0c02 8091 0000 		lds r24,(cooler_data+4)+2
 2635 0c06 9091 0000 		lds r25,(cooler_data+4)+3
 2636 0c0a 0E94 0000 		call __fixunssfsi
 2637 0c0e 6CBF      		out 92-32,r22
 2638               	.LM349:
 2639 0c10 CC16      		cp r12,r28
 2640 0c12 DD06      		cpc r13,r29
 2641 0c14 04F0      		brlt .L173
 2642 0c16 1092 0000 		sts cooler,__zero_reg__
 2643 0c1a 1092 0000 		sts cooler_start_pulse+1,__zero_reg__
 2644               	.L173:
 2645               	.LM350:
 2646 0c1e 83E3      		ldi r24,lo8(51)
 2647 0c20 8093 0000 		sts cooler_chanel_status,r24
 2648 0c24 00C0      		rjmp .L157
 2649               	.L169:
 2650               	.LM351:
 2651 0c26 1CBE      		out 92-32,__zero_reg__
 2652 0c28 1092 0000 		sts cooler_start_pulse+1,__zero_reg__
 2653 0c2c 00C0      		rjmp .L157
 2654               	.L213:
 2655               	.LM352:
 2656 0c2e 8091 0000 		lds r24,rele_set+5
 2657 0c32 8130      		cpi r24,lo8(1)
 2658 0c34 01F4      		brne .L174
 2659 0c36 82E3      		ldi r24,lo8(50)
 2660 0c38 8093 0000 		sts heater_chanel_status,r24
 2661 0c3c 00C0      		rjmp .L175
 2662               	.L174:
 2663               	.LM353:
 2664 0c3e 8823      		tst r24
 2665 0c40 01F4      		brne .L175
 2666 0c42 8091 0000 		lds r24,heater_timer_status
 2667 0c46 8823      		tst r24
 2668 0c48 01F4      		brne .L175
 2669 0c4a A998      		cbi 53-32,1
 2670               	.L175:
 2671               	.LM354:
 2672 0c4c 8091 0000 		lds r24,cooler_start_pulse
 2673 0c50 8823      		tst r24
 2674 0c52 01F0      		breq .L176
 2675 0c54 1092 0000 		sts cooler_start_pulse,__zero_reg__
 2676               	.L176:
 2677               	.LM355:
 2678 0c58 1091 0000 		lds r17,cooler_start_pulse+3
 2679 0c5c 1123      		tst r17
 2680 0c5e 01F0      		breq .L177
 2681 0c60 6091 0000 		lds r22,cooler_data+12
 2682 0c64 7091 0000 		lds r23,(cooler_data+12)+1
 2683 0c68 8091 0000 		lds r24,(cooler_data+12)+2
 2684 0c6c 9091 0000 		lds r25,(cooler_data+12)+3
 2685 0c70 0E94 0000 		call __fixunssfsi
 2686 0c74 6CBF      		out 92-32,r22
 2687               	.L177:
 2688               	.LM356:
 2689 0c76 8091 0000 		lds r24,cooler_start_pulse+2
 2690 0c7a 8823      		tst r24
 2691 0c7c 01F0      		breq .L178
 2692 0c7e 1092 0000 		sts cooler_start_pulse+2,__zero_reg__
 2693               	.L178:
 2694               	.LM357:
 2695 0c82 6091 0000 		lds r22,cooler_start_pulse
 2696 0c86 6623      		tst r22
 2697 0c88 01F0      		breq .L179
 2698 0c8a 82E3      		ldi r24,lo8(50)
 2699 0c8c 8093 0000 		sts cooler_chanel_status,r24
 2700               	.L179:
 2701               	.LM358:
 2702 0c90 40E0      		ldi r20,lo8(0)
 2703 0c92 50E0      		ldi r21,hi8(0)
 2704 0c94 1123      		tst r17
 2705 0c96 01F4      		brne .L181
 2706 0c98 41E0      		ldi r20,lo8(1)
 2707 0c9a 50E0      		ldi r21,hi8(1)
 2708               	.L181:
 2709 0c9c 20E0      		ldi r18,lo8(0)
 2710 0c9e 30E0      		ldi r19,hi8(0)
 2711 0ca0 8091 0000 		lds r24,cooler_start_pulse+2
 2712 0ca4 8823      		tst r24
 2713 0ca6 01F4      		brne .L182
 2714 0ca8 21E0      		ldi r18,lo8(1)
 2715 0caa 30E0      		ldi r19,hi8(1)
 2716               	.L182:
 2717 0cac 2423      		and r18,r20
 2718 0cae 3523      		and r19,r21
 2719 0cb0 90E0      		ldi r25,lo8(0)
 2720 0cb2 6623      		tst r22
 2721 0cb4 01F4      		brne .L183
 2722 0cb6 91E0      		ldi r25,lo8(1)
 2723               	.L183:
 2724 0cb8 40E0      		ldi r20,lo8(0)
 2725 0cba 8091 0000 		lds r24,cooler_start_pulse+1
 2726 0cbe 8823      		tst r24
 2727 0cc0 01F4      		brne .L184
 2728 0cc2 41E0      		ldi r20,lo8(1)
 2729               	.L184:
 2730 0cc4 9423      		and r25,r20
 2731 0cc6 892F      		mov r24,r25
 2732 0cc8 90E0      		ldi r25,lo8(0)
 2733 0cca 2823      		and r18,r24
 2734 0ccc 3923      		and r19,r25
 2735 0cce 232B      		or r18,r19
 2736 0cd0 01F0      		breq .L180
 2737 0cd2 1CBE      		out 92-32,__zero_reg__
 2738               	.L180:
 2739               	.LM359:
 2740 0cd4 1092 0000 		sts temp_control,__zero_reg__
 2741               	.L157:
 2742               	.LM360:
 2743 0cd8 8091 0000 		lds r24,produv
 2744 0cdc 8130      		cpi r24,lo8(1)
 2745 0cde 01F0      		breq .L186
 2746 0ce0 8230      		cpi r24,lo8(2)
 2747 0ce2 01F0      		breq .+2
 2748 0ce4 00C0      		rjmp .L209
 2749 0ce6 00C0      		rjmp .L214
 2750               	.L186:
 2751               	.LM361:
 2752 0ce8 2091 0000 		lds r18,time_now
 2753 0cec 3091 0000 		lds r19,(time_now)+1
 2754 0cf0 4091 0000 		lds r20,(time_now)+2
 2755 0cf4 5091 0000 		lds r21,(time_now)+3
 2756 0cf8 8091 0000 		lds r24,cooler_start
 2757 0cfc 9091 0000 		lds r25,(cooler_start)+1
 2758 0d00 A091 0000 		lds r26,(cooler_start)+2
 2759 0d04 B091 0000 		lds r27,(cooler_start)+3
 2760 0d08 2817      		cp r18,r24
 2761 0d0a 3907      		cpc r19,r25
 2762 0d0c 4A07      		cpc r20,r26
 2763 0d0e 5B07      		cpc r21,r27
 2764 0d10 00F4      		brsh .+2
 2765 0d12 00C0      		rjmp .L188
 2766 0d14 2091 0000 		lds r18,time_now
 2767 0d18 3091 0000 		lds r19,(time_now)+1
 2768 0d1c 4091 0000 		lds r20,(time_now)+2
 2769 0d20 5091 0000 		lds r21,(time_now)+3
 2770 0d24 8091 0000 		lds r24,cooler_stop
 2771 0d28 9091 0000 		lds r25,(cooler_stop)+1
 2772 0d2c A091 0000 		lds r26,(cooler_stop)+2
 2773 0d30 B091 0000 		lds r27,(cooler_stop)+3
 2774 0d34 2817      		cp r18,r24
 2775 0d36 3907      		cpc r19,r25
 2776 0d38 4A07      		cpc r20,r26
 2777 0d3a 5B07      		cpc r21,r27
 2778 0d3c 00F0      		brlo .+2
 2779 0d3e 00C0      		rjmp .L188
 2780               	.LM362:
 2781 0d40 8091 0000 		lds r24,cooler
 2782 0d44 8823      		tst r24
 2783 0d46 01F0      		breq .+2
 2784 0d48 00C0      		rjmp .L209
 2785               	.LM363:
 2786 0d4a 8091 0000 		lds r24,time_min_and_sec
 2787 0d4e 9091 0000 		lds r25,(time_min_and_sec)+1
 2788 0d52 A091 0000 		lds r26,(time_min_and_sec)+2
 2789 0d56 B091 0000 		lds r27,(time_min_and_sec)+3
 2790 0d5a 0097      		sbiw r24,0
 2791 0d5c A105      		cpc r26,__zero_reg__
 2792 0d5e B105      		cpc r27,__zero_reg__
 2793 0d60 01F4      		brne .L189
 2794 0d62 8091 0000 		lds r24,timer_produv_period_count
 2795 0d66 8F5F      		subi r24,lo8(-(1))
 2796 0d68 8093 0000 		sts timer_produv_period_count,r24
 2797               	.L189:
 2798               	.LM364:
 2799 0d6c 8091 0000 		lds r24,time_min_and_sec
 2800 0d70 9091 0000 		lds r25,(time_min_and_sec)+1
 2801 0d74 A091 0000 		lds r26,(time_min_and_sec)+2
 2802 0d78 B091 0000 		lds r27,(time_min_and_sec)+3
 2803 0d7c 2091 0000 		lds r18,time_min_and_sec
 2804 0d80 3091 0000 		lds r19,(time_min_and_sec)+1
 2805 0d84 4091 0000 		lds r20,(time_min_and_sec)+2
 2806 0d88 5091 0000 		lds r21,(time_min_and_sec)+3
 2807 0d8c 8091 0000 		lds r24,timer_produv_time
 2808 0d90 9091 0000 		lds r25,(timer_produv_time)+1
 2809 0d94 A091 0000 		lds r26,(timer_produv_time)+2
 2810 0d98 B091 0000 		lds r27,(timer_produv_time)+3
 2811 0d9c 2817      		cp r18,r24
 2812 0d9e 3907      		cpc r19,r25
 2813 0da0 4A07      		cpc r20,r26
 2814 0da2 5B07      		cpc r21,r27
 2815 0da4 00F4      		brsh .L190
 2816               	.LM365:
 2817 0da6 8091 0000 		lds r24,timer_produv_period_count
 2818 0daa 2091 0000 		lds r18,timer_produv_period
 2819 0dae 90E0      		ldi r25,lo8(0)
 2820 0db0 43E0      		ldi r20,lo8(3)
 2821 0db2 249F      		mul r18,r20
 2822 0db4 9001      		movw r18,r0
 2823 0db6 1124      		clr r1
 2824 0db8 8217      		cp r24,r18
 2825 0dba 9307      		cpc r25,r19
 2826 0dbc 01F0      		breq .+2
 2827 0dbe 00C0      		rjmp .L209
 2828               	.LM366:
 2829 0dc0 8091 0000 		lds r24,cooler_start_pulse+3
 2830 0dc4 8F5F      		subi r24,lo8(-(1))
 2831 0dc6 8093 0000 		sts cooler_start_pulse+3,r24
 2832               	.LM367:
 2833 0dca 8A30      		cpi r24,lo8(10)
 2834 0dcc 01F4      		brne .L191
 2835               	.LM368:
 2836 0dce 89E0      		ldi r24,lo8(9)
 2837 0dd0 8093 0000 		sts cooler_start_pulse+3,r24
 2838               	.LM369:
 2839 0dd4 8091 0000 		lds r24,cooler_min
 2840 0dd8 9091 0000 		lds r25,(cooler_min)+1
 2841 0ddc A091 0000 		lds r26,(cooler_min)+2
 2842 0de0 B091 0000 		lds r27,(cooler_min)+3
 2843 0de4 00C0      		rjmp .L212
 2844               	.L191:
 2845               	.LM370:
 2846 0de6 80E0      		ldi r24,lo8(0x437f0000)
 2847 0de8 90E0      		ldi r25,hi8(0x437f0000)
 2848 0dea AFE7      		ldi r26,hlo8(0x437f0000)
 2849 0dec B3E4      		ldi r27,hhi8(0x437f0000)
 2850               	.L212:
 2851 0dee 8093 0000 		sts cooler_data+12,r24
 2852 0df2 9093 0000 		sts (cooler_data+12)+1,r25
 2853 0df6 A093 0000 		sts (cooler_data+12)+2,r26
 2854 0dfa B093 0000 		sts (cooler_data+12)+3,r27
 2855               	.LM371:
 2856 0dfe 6091 0000 		lds r22,cooler_data+12
 2857 0e02 7091 0000 		lds r23,(cooler_data+12)+1
 2858 0e06 8091 0000 		lds r24,(cooler_data+12)+2
 2859 0e0a 9091 0000 		lds r25,(cooler_data+12)+3
 2860 0e0e 0E94 0000 		call __fixunssfsi
 2861 0e12 6CBF      		out 92-32,r22
 2862               	.LM372:
 2863 0e14 84E3      		ldi r24,lo8(52)
 2864 0e16 8093 0000 		sts cooler_chanel_status,r24
 2865 0e1a 00C0      		rjmp .L209
 2866               	.L190:
 2867               	.LM373:
 2868 0e1c 8091 0000 		lds r24,cooler_start_pulse+3
 2869 0e20 8823      		tst r24
 2870 0e22 01F0      		breq .L193
 2871 0e24 1092 0000 		sts cooler_start_pulse+3,__zero_reg__
 2872 0e28 1092 0000 		sts timer_produv_period_count,__zero_reg__
 2873               	.L193:
 2874               	.LM374:
 2875 0e2c F090 0000 		lds r15,cooler_start_pulse
 2876 0e30 FF20      		tst r15
 2877 0e32 01F0      		breq .L194
 2878 0e34 6091 0000 		lds r22,cooler_data
 2879 0e38 7091 0000 		lds r23,(cooler_data)+1
 2880 0e3c 8091 0000 		lds r24,(cooler_data)+2
 2881 0e40 9091 0000 		lds r25,(cooler_data)+3
 2882 0e44 0E94 0000 		call __fixunssfsi
 2883 0e48 6CBF      		out 92-32,r22
 2884               	.L194:
 2885               	.LM375:
 2886 0e4a 1091 0000 		lds r17,cooler_start_pulse+2
 2887 0e4e 1123      		tst r17
 2888 0e50 01F0      		breq .L195
 2889 0e52 6091 0000 		lds r22,cooler_data+8
 2890 0e56 7091 0000 		lds r23,(cooler_data+8)+1
 2891 0e5a 8091 0000 		lds r24,(cooler_data+8)+2
 2892 0e5e 9091 0000 		lds r25,(cooler_data+8)+3
 2893 0e62 0E94 0000 		call __fixunssfsi
 2894 0e66 6CBF      		out 92-32,r22
 2895               	.L195:
 2896               	.LM376:
 2897 0e68 0091 0000 		lds r16,cooler_start_pulse+1
 2898 0e6c 0023      		tst r16
 2899 0e6e 01F0      		breq .L196
 2900 0e70 6091 0000 		lds r22,cooler_data+4
 2901 0e74 7091 0000 		lds r23,(cooler_data+4)+1
 2902 0e78 8091 0000 		lds r24,(cooler_data+4)+2
 2903 0e7c 9091 0000 		lds r25,(cooler_data+4)+3
 2904 0e80 0E94 0000 		call __fixunssfsi
 2905 0e84 6CBF      		out 92-32,r22
 2906               	.L196:
 2907               	.LM377:
 2908 0e86 20E0      		ldi r18,lo8(0)
 2909 0e88 30E0      		ldi r19,hi8(0)
 2910 0e8a 8091 0000 		lds r24,cooler_start_pulse+3
 2911 0e8e 8823      		tst r24
 2912 0e90 01F4      		brne .L197
 2913 0e92 21E0      		ldi r18,lo8(1)
 2914 0e94 30E0      		ldi r19,hi8(1)
 2915               	.L197:
 2916 0e96 80E0      		ldi r24,lo8(0)
 2917 0e98 90E0      		ldi r25,hi8(0)
 2918 0e9a 1123      		tst r17
 2919 0e9c 01F4      		brne .L198
 2920 0e9e 81E0      		ldi r24,lo8(1)
 2921 0ea0 90E0      		ldi r25,hi8(1)
 2922               	.L198:
 2923 0ea2 2823      		and r18,r24
 2924 0ea4 3923      		and r19,r25
 2925 0ea6 80E0      		ldi r24,lo8(0)
 2926 0ea8 FF20      		tst r15
 2927 0eaa 01F4      		brne .L199
 2928 0eac 81E0      		ldi r24,lo8(1)
 2929               	.L199:
 2930 0eae 90E0      		ldi r25,lo8(0)
 2931 0eb0 0023      		tst r16
 2932 0eb2 01F4      		brne .L200
 2933 0eb4 91E0      		ldi r25,lo8(1)
 2934               	.L200:
 2935 0eb6 8923      		and r24,r25
 2936 0eb8 90E0      		ldi r25,lo8(0)
 2937 0eba 2823      		and r18,r24
 2938 0ebc 3923      		and r19,r25
 2939 0ebe 232B      		or r18,r19
 2940 0ec0 01F4      		brne .+2
 2941 0ec2 00C0      		rjmp .L209
 2942 0ec4 1CBE      		out 92-32,__zero_reg__
 2943 0ec6 00C0      		rjmp .L209
 2944               	.L188:
 2945               	.LM378:
 2946 0ec8 1CBE      		out 92-32,__zero_reg__
 2947 0eca 1092 0000 		sts cooler_start_pulse+3,__zero_reg__
 2948 0ece 00C0      		rjmp .L209
 2949               	.L214:
 2950               	.LM379:
 2951 0ed0 1092 0000 		sts timer_produv_period_count,__zero_reg__
 2952               	.LM380:
 2953 0ed4 F090 0000 		lds r15,cooler_start_pulse
 2954 0ed8 FF20      		tst r15
 2955 0eda 01F0      		breq .L201
 2956 0edc 6091 0000 		lds r22,cooler_data
 2957 0ee0 7091 0000 		lds r23,(cooler_data)+1
 2958 0ee4 8091 0000 		lds r24,(cooler_data)+2
 2959 0ee8 9091 0000 		lds r25,(cooler_data)+3
 2960 0eec 0E94 0000 		call __fixunssfsi
 2961 0ef0 6CBF      		out 92-32,r22
 2962               	.L201:
 2963               	.LM381:
 2964 0ef2 1091 0000 		lds r17,cooler_start_pulse+2
 2965 0ef6 1123      		tst r17
 2966 0ef8 01F0      		breq .L202
 2967 0efa 6091 0000 		lds r22,cooler_data+8
 2968 0efe 7091 0000 		lds r23,(cooler_data+8)+1
 2969 0f02 8091 0000 		lds r24,(cooler_data+8)+2
 2970 0f06 9091 0000 		lds r25,(cooler_data+8)+3
 2971 0f0a 0E94 0000 		call __fixunssfsi
 2972 0f0e 6CBF      		out 92-32,r22
 2973               	.L202:
 2974               	.LM382:
 2975 0f10 0091 0000 		lds r16,cooler_start_pulse+1
 2976 0f14 0023      		tst r16
 2977 0f16 01F0      		breq .L203
 2978 0f18 6091 0000 		lds r22,cooler_data+4
 2979 0f1c 7091 0000 		lds r23,(cooler_data+4)+1
 2980 0f20 8091 0000 		lds r24,(cooler_data+4)+2
 2981 0f24 9091 0000 		lds r25,(cooler_data+4)+3
 2982 0f28 0E94 0000 		call __fixunssfsi
 2983 0f2c 6CBF      		out 92-32,r22
 2984               	.L203:
 2985               	.LM383:
 2986 0f2e 20E0      		ldi r18,lo8(0)
 2987 0f30 30E0      		ldi r19,hi8(0)
 2988 0f32 8091 0000 		lds r24,cooler_start_pulse+3
 2989 0f36 8823      		tst r24
 2990 0f38 01F4      		brne .L205
 2991 0f3a 21E0      		ldi r18,lo8(1)
 2992 0f3c 30E0      		ldi r19,hi8(1)
 2993               	.L205:
 2994 0f3e 80E0      		ldi r24,lo8(0)
 2995 0f40 90E0      		ldi r25,hi8(0)
 2996 0f42 1123      		tst r17
 2997 0f44 01F4      		brne .L206
 2998 0f46 81E0      		ldi r24,lo8(1)
 2999 0f48 90E0      		ldi r25,hi8(1)
 3000               	.L206:
 3001 0f4a 2823      		and r18,r24
 3002 0f4c 3923      		and r19,r25
 3003 0f4e 80E0      		ldi r24,lo8(0)
 3004 0f50 FF20      		tst r15
 3005 0f52 01F4      		brne .L207
 3006 0f54 81E0      		ldi r24,lo8(1)
 3007               	.L207:
 3008 0f56 90E0      		ldi r25,lo8(0)
 3009 0f58 0023      		tst r16
 3010 0f5a 01F4      		brne .L208
 3011 0f5c 91E0      		ldi r25,lo8(1)
 3012               	.L208:
 3013 0f5e 8923      		and r24,r25
 3014 0f60 90E0      		ldi r25,lo8(0)
 3015 0f62 2823      		and r18,r24
 3016 0f64 3923      		and r19,r25
 3017 0f66 232B      		or r18,r19
 3018 0f68 01F0      		breq .L204
 3019 0f6a 1CBE      		out 92-32,__zero_reg__
 3020               	.L204:
 3021               	.LM384:
 3022 0f6c 1092 0000 		sts produv,__zero_reg__
 3023               	.L209:
 3024               	/* epilogue start */
 3025               	.LM385:
 3026 0f70 DF91      		pop r29
 3027 0f72 CF91      		pop r28
 3028 0f74 1F91      		pop r17
 3029 0f76 0F91      		pop r16
 3030 0f78 FF90      		pop r15
 3031 0f7a EF90      		pop r14
 3032 0f7c DF90      		pop r13
 3033 0f7e CF90      		pop r12
 3034 0f80 0895      		ret
 3035               	.LFE51:
 3037               	.global	timers_data_to_uart
 3039               	timers_data_to_uart:
 3040               	.LFB54:
 3041               	.LM386:
 3042 0f82 CF92      		push r12
 3043 0f84 DF92      		push r13
 3044 0f86 EF92      		push r14
 3045 0f88 FF92      		push r15
 3046 0f8a 0F93      		push r16
 3047 0f8c 1F93      		push r17
 3048 0f8e CF93      		push r28
 3049 0f90 DF93      		push r29
 3050               	/* prologue: function */
 3051               	/* frame size = 0 */
 3052               	.LM387:
 3053 0f92 8091 0000 		lds r24,TRANSMIT
 3054 0f96 8823      		tst r24
 3055 0f98 01F0      		breq .+2
 3056 0f9a 00C0      		rjmp .L218
 3057               	.LM388:
 3058 0f9c 81E0      		ldi r24,lo8(1)
 3059 0f9e 8093 0000 		sts TRANSMIT,r24
 3060               	.LM389:
 3061 0fa2 87E4      		ldi r24,lo8(327)
 3062 0fa4 91E0      		ldi r25,hi8(327)
 3063 0fa6 9093 0000 		sts (usart_data_in_num)+1,r25
 3064 0faa 8093 0000 		sts usart_data_in_num,r24
 3065               	.LM390:
 3066 0fae 8BE3      		ldi r24,lo8(59)
 3067 0fb0 8093 0000 		sts buffer,r24
 3068               	.LM391:
 3069 0fb4 82EA      		ldi r24,lo8(-94)
 3070 0fb6 8093 0000 		sts buffer+1,r24
 3071 0fba CC24      		clr r12
 3072 0fbc DD24      		clr r13
 3073 0fbe C0E0      		ldi r28,lo8(0)
 3074 0fc0 D0E0      		ldi r29,hi8(0)
 3075               	.L217:
 3076               	.LBB289:
 3077               	.LM392:
 3078 0fc2 7601      		movw r14,r12
 3079 0fc4 EE0C      		lsl r14
 3080 0fc6 FF1C      		rol r15
 3081 0fc8 EE0C      		lsl r14
 3082 0fca FF1C      		rol r15
 3083 0fcc 8701      		movw r16,r14
 3084 0fce 0050      		subi r16,lo8(-(timer1_start))
 3085 0fd0 1040      		sbci r17,hi8(-(timer1_start))
 3086 0fd2 F801      		movw r30,r16
 3087 0fd4 6081      		ld r22,Z
 3088 0fd6 7181      		ldd r23,Z+1
 3089 0fd8 8281      		ldd r24,Z+2
 3090 0fda 9381      		ldd r25,Z+3
 3091 0fdc 20EA      		ldi r18,lo8(100000)
 3092 0fde 36E8      		ldi r19,hi8(100000)
 3093 0fe0 41E0      		ldi r20,hlo8(100000)
 3094 0fe2 50E0      		ldi r21,hhi8(100000)
 3095 0fe4 0E94 0000 		call __udivmodsi4
 3096 0fe8 205D      		subi r18,lo8(-(48))
 3097 0fea FE01      		movw r30,r28
 3098 0fec E050      		subi r30,lo8(-(buffer+2))
 3099 0fee F040      		sbci r31,hi8(-(buffer+2))
 3100 0ff0 2083      		st Z,r18
 3101               	.LM393:
 3102 0ff2 F801      		movw r30,r16
 3103 0ff4 6081      		ld r22,Z
 3104 0ff6 7181      		ldd r23,Z+1
 3105 0ff8 8281      		ldd r24,Z+2
 3106 0ffa 9381      		ldd r25,Z+3
 3107 0ffc 20EA      		ldi r18,lo8(100000)
 3108 0ffe 36E8      		ldi r19,hi8(100000)
 3109 1000 41E0      		ldi r20,hlo8(100000)
 3110 1002 50E0      		ldi r21,hhi8(100000)
 3111 1004 0E94 0000 		call __udivmodsi4
 3112 1008 20E1      		ldi r18,lo8(10000)
 3113 100a 37E2      		ldi r19,hi8(10000)
 3114 100c 40E0      		ldi r20,hlo8(10000)
 3115 100e 50E0      		ldi r21,hhi8(10000)
 3116 1010 0E94 0000 		call __udivmodsi4
 3117 1014 205D      		subi r18,lo8(-(48))
 3118 1016 FE01      		movw r30,r28
 3119 1018 E050      		subi r30,lo8(-(buffer+3))
 3120 101a F040      		sbci r31,hi8(-(buffer+3))
 3121 101c 2083      		st Z,r18
 3122               	.LM394:
 3123 101e F801      		movw r30,r16
 3124 1020 6081      		ld r22,Z
 3125 1022 7181      		ldd r23,Z+1
 3126 1024 8281      		ldd r24,Z+2
 3127 1026 9381      		ldd r25,Z+3
 3128 1028 20EA      		ldi r18,lo8(100000)
 3129 102a 36E8      		ldi r19,hi8(100000)
 3130 102c 41E0      		ldi r20,hlo8(100000)
 3131 102e 50E0      		ldi r21,hhi8(100000)
 3132 1030 0E94 0000 		call __udivmodsi4
 3133 1034 20E1      		ldi r18,lo8(10000)
 3134 1036 37E2      		ldi r19,hi8(10000)
 3135 1038 40E0      		ldi r20,hlo8(10000)
 3136 103a 50E0      		ldi r21,hhi8(10000)
 3137 103c 0E94 0000 		call __udivmodsi4
 3138 1040 28EE      		ldi r18,lo8(1000)
 3139 1042 33E0      		ldi r19,hi8(1000)
 3140 1044 40E0      		ldi r20,hlo8(1000)
 3141 1046 50E0      		ldi r21,hhi8(1000)
 3142 1048 0E94 0000 		call __udivmodsi4
 3143 104c 205D      		subi r18,lo8(-(48))
 3144 104e FE01      		movw r30,r28
 3145 1050 E050      		subi r30,lo8(-(buffer+4))
 3146 1052 F040      		sbci r31,hi8(-(buffer+4))
 3147 1054 2083      		st Z,r18
 3148               	.LM395:
 3149 1056 F801      		movw r30,r16
 3150 1058 6081      		ld r22,Z
 3151 105a 7181      		ldd r23,Z+1
 3152 105c 8281      		ldd r24,Z+2
 3153 105e 9381      		ldd r25,Z+3
 3154 1060 20EA      		ldi r18,lo8(100000)
 3155 1062 36E8      		ldi r19,hi8(100000)
 3156 1064 41E0      		ldi r20,hlo8(100000)
 3157 1066 50E0      		ldi r21,hhi8(100000)
 3158 1068 0E94 0000 		call __udivmodsi4
 3159 106c 20E1      		ldi r18,lo8(10000)
 3160 106e 37E2      		ldi r19,hi8(10000)
 3161 1070 40E0      		ldi r20,hlo8(10000)
 3162 1072 50E0      		ldi r21,hhi8(10000)
 3163 1074 0E94 0000 		call __udivmodsi4
 3164 1078 28EE      		ldi r18,lo8(1000)
 3165 107a 33E0      		ldi r19,hi8(1000)
 3166 107c 40E0      		ldi r20,hlo8(1000)
 3167 107e 50E0      		ldi r21,hhi8(1000)
 3168 1080 0E94 0000 		call __udivmodsi4
 3169 1084 24E6      		ldi r18,lo8(100)
 3170 1086 30E0      		ldi r19,hi8(100)
 3171 1088 40E0      		ldi r20,hlo8(100)
 3172 108a 50E0      		ldi r21,hhi8(100)
 3173 108c 0E94 0000 		call __udivmodsi4
 3174 1090 205D      		subi r18,lo8(-(48))
 3175 1092 FE01      		movw r30,r28
 3176 1094 E050      		subi r30,lo8(-(buffer+5))
 3177 1096 F040      		sbci r31,hi8(-(buffer+5))
 3178 1098 2083      		st Z,r18
 3179               	.LM396:
 3180 109a F801      		movw r30,r16
 3181 109c 6081      		ld r22,Z
 3182 109e 7181      		ldd r23,Z+1
 3183 10a0 8281      		ldd r24,Z+2
 3184 10a2 9381      		ldd r25,Z+3
 3185 10a4 20EA      		ldi r18,lo8(100000)
 3186 10a6 36E8      		ldi r19,hi8(100000)
 3187 10a8 41E0      		ldi r20,hlo8(100000)
 3188 10aa 50E0      		ldi r21,hhi8(100000)
 3189 10ac 0E94 0000 		call __udivmodsi4
 3190 10b0 20E1      		ldi r18,lo8(10000)
 3191 10b2 37E2      		ldi r19,hi8(10000)
 3192 10b4 40E0      		ldi r20,hlo8(10000)
 3193 10b6 50E0      		ldi r21,hhi8(10000)
 3194 10b8 0E94 0000 		call __udivmodsi4
 3195 10bc 28EE      		ldi r18,lo8(1000)
 3196 10be 33E0      		ldi r19,hi8(1000)
 3197 10c0 40E0      		ldi r20,hlo8(1000)
 3198 10c2 50E0      		ldi r21,hhi8(1000)
 3199 10c4 0E94 0000 		call __udivmodsi4
 3200 10c8 24E6      		ldi r18,lo8(100)
 3201 10ca 30E0      		ldi r19,hi8(100)
 3202 10cc 40E0      		ldi r20,hlo8(100)
 3203 10ce 50E0      		ldi r21,hhi8(100)
 3204 10d0 0E94 0000 		call __udivmodsi4
 3205 10d4 2AE0      		ldi r18,lo8(10)
 3206 10d6 30E0      		ldi r19,hi8(10)
 3207 10d8 40E0      		ldi r20,hlo8(10)
 3208 10da 50E0      		ldi r21,hhi8(10)
 3209 10dc 0E94 0000 		call __udivmodsi4
 3210 10e0 205D      		subi r18,lo8(-(48))
 3211 10e2 FE01      		movw r30,r28
 3212 10e4 E050      		subi r30,lo8(-(buffer+6))
 3213 10e6 F040      		sbci r31,hi8(-(buffer+6))
 3214 10e8 2083      		st Z,r18
 3215               	.LM397:
 3216 10ea F801      		movw r30,r16
 3217 10ec 6081      		ld r22,Z
 3218 10ee 7181      		ldd r23,Z+1
 3219 10f0 8281      		ldd r24,Z+2
 3220 10f2 9381      		ldd r25,Z+3
 3221 10f4 20EA      		ldi r18,lo8(100000)
 3222 10f6 36E8      		ldi r19,hi8(100000)
 3223 10f8 41E0      		ldi r20,hlo8(100000)
 3224 10fa 50E0      		ldi r21,hhi8(100000)
 3225 10fc 0E94 0000 		call __udivmodsi4
 3226 1100 20E1      		ldi r18,lo8(10000)
 3227 1102 37E2      		ldi r19,hi8(10000)
 3228 1104 40E0      		ldi r20,hlo8(10000)
 3229 1106 50E0      		ldi r21,hhi8(10000)
 3230 1108 0E94 0000 		call __udivmodsi4
 3231 110c 28EE      		ldi r18,lo8(1000)
 3232 110e 33E0      		ldi r19,hi8(1000)
 3233 1110 40E0      		ldi r20,hlo8(1000)
 3234 1112 50E0      		ldi r21,hhi8(1000)
 3235 1114 0E94 0000 		call __udivmodsi4
 3236 1118 24E6      		ldi r18,lo8(100)
 3237 111a 30E0      		ldi r19,hi8(100)
 3238 111c 40E0      		ldi r20,hlo8(100)
 3239 111e 50E0      		ldi r21,hhi8(100)
 3240 1120 0E94 0000 		call __udivmodsi4
 3241 1124 2AE0      		ldi r18,lo8(10)
 3242 1126 30E0      		ldi r19,hi8(10)
 3243 1128 40E0      		ldi r20,hlo8(10)
 3244 112a 50E0      		ldi r21,hhi8(10)
 3245 112c 0E94 0000 		call __udivmodsi4
 3246 1130 605D      		subi r22,lo8(-(48))
 3247 1132 FE01      		movw r30,r28
 3248 1134 E050      		subi r30,lo8(-(buffer+7))
 3249 1136 F040      		sbci r31,hi8(-(buffer+7))
 3250 1138 6083      		st Z,r22
 3251               	.LM398:
 3252 113a 8701      		movw r16,r14
 3253 113c 0050      		subi r16,lo8(-(timer2_start))
 3254 113e 1040      		sbci r17,hi8(-(timer2_start))
 3255 1140 F801      		movw r30,r16
 3256 1142 6081      		ld r22,Z
 3257 1144 7181      		ldd r23,Z+1
 3258 1146 8281      		ldd r24,Z+2
 3259 1148 9381      		ldd r25,Z+3
 3260 114a 20EA      		ldi r18,lo8(100000)
 3261 114c 36E8      		ldi r19,hi8(100000)
 3262 114e 41E0      		ldi r20,hlo8(100000)
 3263 1150 50E0      		ldi r21,hhi8(100000)
 3264 1152 0E94 0000 		call __udivmodsi4
 3265 1156 205D      		subi r18,lo8(-(48))
 3266 1158 FE01      		movw r30,r28
 3267 115a E050      		subi r30,lo8(-(buffer+8))
 3268 115c F040      		sbci r31,hi8(-(buffer+8))
 3269 115e 2083      		st Z,r18
 3270               	.LM399:
 3271 1160 F801      		movw r30,r16
 3272 1162 6081      		ld r22,Z
 3273 1164 7181      		ldd r23,Z+1
 3274 1166 8281      		ldd r24,Z+2
 3275 1168 9381      		ldd r25,Z+3
 3276 116a 20EA      		ldi r18,lo8(100000)
 3277 116c 36E8      		ldi r19,hi8(100000)
 3278 116e 41E0      		ldi r20,hlo8(100000)
 3279 1170 50E0      		ldi r21,hhi8(100000)
 3280 1172 0E94 0000 		call __udivmodsi4
 3281 1176 20E1      		ldi r18,lo8(10000)
 3282 1178 37E2      		ldi r19,hi8(10000)
 3283 117a 40E0      		ldi r20,hlo8(10000)
 3284 117c 50E0      		ldi r21,hhi8(10000)
 3285 117e 0E94 0000 		call __udivmodsi4
 3286 1182 205D      		subi r18,lo8(-(48))
 3287 1184 FE01      		movw r30,r28
 3288 1186 E050      		subi r30,lo8(-(buffer+9))
 3289 1188 F040      		sbci r31,hi8(-(buffer+9))
 3290 118a 2083      		st Z,r18
 3291               	.LM400:
 3292 118c F801      		movw r30,r16
 3293 118e 6081      		ld r22,Z
 3294 1190 7181      		ldd r23,Z+1
 3295 1192 8281      		ldd r24,Z+2
 3296 1194 9381      		ldd r25,Z+3
 3297 1196 20EA      		ldi r18,lo8(100000)
 3298 1198 36E8      		ldi r19,hi8(100000)
 3299 119a 41E0      		ldi r20,hlo8(100000)
 3300 119c 50E0      		ldi r21,hhi8(100000)
 3301 119e 0E94 0000 		call __udivmodsi4
 3302 11a2 20E1      		ldi r18,lo8(10000)
 3303 11a4 37E2      		ldi r19,hi8(10000)
 3304 11a6 40E0      		ldi r20,hlo8(10000)
 3305 11a8 50E0      		ldi r21,hhi8(10000)
 3306 11aa 0E94 0000 		call __udivmodsi4
 3307 11ae 28EE      		ldi r18,lo8(1000)
 3308 11b0 33E0      		ldi r19,hi8(1000)
 3309 11b2 40E0      		ldi r20,hlo8(1000)
 3310 11b4 50E0      		ldi r21,hhi8(1000)
 3311 11b6 0E94 0000 		call __udivmodsi4
 3312 11ba 205D      		subi r18,lo8(-(48))
 3313 11bc FE01      		movw r30,r28
 3314 11be E050      		subi r30,lo8(-(buffer+10))
 3315 11c0 F040      		sbci r31,hi8(-(buffer+10))
 3316 11c2 2083      		st Z,r18
 3317               	.LM401:
 3318 11c4 F801      		movw r30,r16
 3319 11c6 6081      		ld r22,Z
 3320 11c8 7181      		ldd r23,Z+1
 3321 11ca 8281      		ldd r24,Z+2
 3322 11cc 9381      		ldd r25,Z+3
 3323 11ce 20EA      		ldi r18,lo8(100000)
 3324 11d0 36E8      		ldi r19,hi8(100000)
 3325 11d2 41E0      		ldi r20,hlo8(100000)
 3326 11d4 50E0      		ldi r21,hhi8(100000)
 3327 11d6 0E94 0000 		call __udivmodsi4
 3328 11da 20E1      		ldi r18,lo8(10000)
 3329 11dc 37E2      		ldi r19,hi8(10000)
 3330 11de 40E0      		ldi r20,hlo8(10000)
 3331 11e0 50E0      		ldi r21,hhi8(10000)
 3332 11e2 0E94 0000 		call __udivmodsi4
 3333 11e6 28EE      		ldi r18,lo8(1000)
 3334 11e8 33E0      		ldi r19,hi8(1000)
 3335 11ea 40E0      		ldi r20,hlo8(1000)
 3336 11ec 50E0      		ldi r21,hhi8(1000)
 3337 11ee 0E94 0000 		call __udivmodsi4
 3338 11f2 24E6      		ldi r18,lo8(100)
 3339 11f4 30E0      		ldi r19,hi8(100)
 3340 11f6 40E0      		ldi r20,hlo8(100)
 3341 11f8 50E0      		ldi r21,hhi8(100)
 3342 11fa 0E94 0000 		call __udivmodsi4
 3343 11fe 205D      		subi r18,lo8(-(48))
 3344 1200 FE01      		movw r30,r28
 3345 1202 E050      		subi r30,lo8(-(buffer+11))
 3346 1204 F040      		sbci r31,hi8(-(buffer+11))
 3347 1206 2083      		st Z,r18
 3348               	.LM402:
 3349 1208 F801      		movw r30,r16
 3350 120a 6081      		ld r22,Z
 3351 120c 7181      		ldd r23,Z+1
 3352 120e 8281      		ldd r24,Z+2
 3353 1210 9381      		ldd r25,Z+3
 3354 1212 20EA      		ldi r18,lo8(100000)
 3355 1214 36E8      		ldi r19,hi8(100000)
 3356 1216 41E0      		ldi r20,hlo8(100000)
 3357 1218 50E0      		ldi r21,hhi8(100000)
 3358 121a 0E94 0000 		call __udivmodsi4
 3359 121e 20E1      		ldi r18,lo8(10000)
 3360 1220 37E2      		ldi r19,hi8(10000)
 3361 1222 40E0      		ldi r20,hlo8(10000)
 3362 1224 50E0      		ldi r21,hhi8(10000)
 3363 1226 0E94 0000 		call __udivmodsi4
 3364 122a 28EE      		ldi r18,lo8(1000)
 3365 122c 33E0      		ldi r19,hi8(1000)
 3366 122e 40E0      		ldi r20,hlo8(1000)
 3367 1230 50E0      		ldi r21,hhi8(1000)
 3368 1232 0E94 0000 		call __udivmodsi4
 3369 1236 24E6      		ldi r18,lo8(100)
 3370 1238 30E0      		ldi r19,hi8(100)
 3371 123a 40E0      		ldi r20,hlo8(100)
 3372 123c 50E0      		ldi r21,hhi8(100)
 3373 123e 0E94 0000 		call __udivmodsi4
 3374 1242 2AE0      		ldi r18,lo8(10)
 3375 1244 30E0      		ldi r19,hi8(10)
 3376 1246 40E0      		ldi r20,hlo8(10)
 3377 1248 50E0      		ldi r21,hhi8(10)
 3378 124a 0E94 0000 		call __udivmodsi4
 3379 124e 205D      		subi r18,lo8(-(48))
 3380 1250 FE01      		movw r30,r28
 3381 1252 E050      		subi r30,lo8(-(buffer+12))
 3382 1254 F040      		sbci r31,hi8(-(buffer+12))
 3383 1256 2083      		st Z,r18
 3384               	.LM403:
 3385 1258 F801      		movw r30,r16
 3386 125a 6081      		ld r22,Z
 3387 125c 7181      		ldd r23,Z+1
 3388 125e 8281      		ldd r24,Z+2
 3389 1260 9381      		ldd r25,Z+3
 3390 1262 20EA      		ldi r18,lo8(100000)
 3391 1264 36E8      		ldi r19,hi8(100000)
 3392 1266 41E0      		ldi r20,hlo8(100000)
 3393 1268 50E0      		ldi r21,hhi8(100000)
 3394 126a 0E94 0000 		call __udivmodsi4
 3395 126e 20E1      		ldi r18,lo8(10000)
 3396 1270 37E2      		ldi r19,hi8(10000)
 3397 1272 40E0      		ldi r20,hlo8(10000)
 3398 1274 50E0      		ldi r21,hhi8(10000)
 3399 1276 0E94 0000 		call __udivmodsi4
 3400 127a 28EE      		ldi r18,lo8(1000)
 3401 127c 33E0      		ldi r19,hi8(1000)
 3402 127e 40E0      		ldi r20,hlo8(1000)
 3403 1280 50E0      		ldi r21,hhi8(1000)
 3404 1282 0E94 0000 		call __udivmodsi4
 3405 1286 24E6      		ldi r18,lo8(100)
 3406 1288 30E0      		ldi r19,hi8(100)
 3407 128a 40E0      		ldi r20,hlo8(100)
 3408 128c 50E0      		ldi r21,hhi8(100)
 3409 128e 0E94 0000 		call __udivmodsi4
 3410 1292 2AE0      		ldi r18,lo8(10)
 3411 1294 30E0      		ldi r19,hi8(10)
 3412 1296 40E0      		ldi r20,hlo8(10)
 3413 1298 50E0      		ldi r21,hhi8(10)
 3414 129a 0E94 0000 		call __udivmodsi4
 3415 129e 605D      		subi r22,lo8(-(48))
 3416 12a0 FE01      		movw r30,r28
 3417 12a2 E050      		subi r30,lo8(-(buffer+13))
 3418 12a4 F040      		sbci r31,hi8(-(buffer+13))
 3419 12a6 6083      		st Z,r22
 3420               	.LM404:
 3421 12a8 8701      		movw r16,r14
 3422 12aa 0050      		subi r16,lo8(-(timer3_start))
 3423 12ac 1040      		sbci r17,hi8(-(timer3_start))
 3424 12ae F801      		movw r30,r16
 3425 12b0 6081      		ld r22,Z
 3426 12b2 7181      		ldd r23,Z+1
 3427 12b4 8281      		ldd r24,Z+2
 3428 12b6 9381      		ldd r25,Z+3
 3429 12b8 20EA      		ldi r18,lo8(100000)
 3430 12ba 36E8      		ldi r19,hi8(100000)
 3431 12bc 41E0      		ldi r20,hlo8(100000)
 3432 12be 50E0      		ldi r21,hhi8(100000)
 3433 12c0 0E94 0000 		call __udivmodsi4
 3434 12c4 205D      		subi r18,lo8(-(48))
 3435 12c6 FE01      		movw r30,r28
 3436 12c8 E050      		subi r30,lo8(-(buffer+14))
 3437 12ca F040      		sbci r31,hi8(-(buffer+14))
 3438 12cc 2083      		st Z,r18
 3439               	.LM405:
 3440 12ce F801      		movw r30,r16
 3441 12d0 6081      		ld r22,Z
 3442 12d2 7181      		ldd r23,Z+1
 3443 12d4 8281      		ldd r24,Z+2
 3444 12d6 9381      		ldd r25,Z+3
 3445 12d8 20EA      		ldi r18,lo8(100000)
 3446 12da 36E8      		ldi r19,hi8(100000)
 3447 12dc 41E0      		ldi r20,hlo8(100000)
 3448 12de 50E0      		ldi r21,hhi8(100000)
 3449 12e0 0E94 0000 		call __udivmodsi4
 3450 12e4 20E1      		ldi r18,lo8(10000)
 3451 12e6 37E2      		ldi r19,hi8(10000)
 3452 12e8 40E0      		ldi r20,hlo8(10000)
 3453 12ea 50E0      		ldi r21,hhi8(10000)
 3454 12ec 0E94 0000 		call __udivmodsi4
 3455 12f0 205D      		subi r18,lo8(-(48))
 3456 12f2 FE01      		movw r30,r28
 3457 12f4 E050      		subi r30,lo8(-(buffer+15))
 3458 12f6 F040      		sbci r31,hi8(-(buffer+15))
 3459 12f8 2083      		st Z,r18
 3460               	.LM406:
 3461 12fa F801      		movw r30,r16
 3462 12fc 6081      		ld r22,Z
 3463 12fe 7181      		ldd r23,Z+1
 3464 1300 8281      		ldd r24,Z+2
 3465 1302 9381      		ldd r25,Z+3
 3466 1304 20EA      		ldi r18,lo8(100000)
 3467 1306 36E8      		ldi r19,hi8(100000)
 3468 1308 41E0      		ldi r20,hlo8(100000)
 3469 130a 50E0      		ldi r21,hhi8(100000)
 3470 130c 0E94 0000 		call __udivmodsi4
 3471 1310 20E1      		ldi r18,lo8(10000)
 3472 1312 37E2      		ldi r19,hi8(10000)
 3473 1314 40E0      		ldi r20,hlo8(10000)
 3474 1316 50E0      		ldi r21,hhi8(10000)
 3475 1318 0E94 0000 		call __udivmodsi4
 3476 131c 28EE      		ldi r18,lo8(1000)
 3477 131e 33E0      		ldi r19,hi8(1000)
 3478 1320 40E0      		ldi r20,hlo8(1000)
 3479 1322 50E0      		ldi r21,hhi8(1000)
 3480 1324 0E94 0000 		call __udivmodsi4
 3481 1328 205D      		subi r18,lo8(-(48))
 3482 132a FE01      		movw r30,r28
 3483 132c E050      		subi r30,lo8(-(buffer+16))
 3484 132e F040      		sbci r31,hi8(-(buffer+16))
 3485 1330 2083      		st Z,r18
 3486               	.LM407:
 3487 1332 F801      		movw r30,r16
 3488 1334 6081      		ld r22,Z
 3489 1336 7181      		ldd r23,Z+1
 3490 1338 8281      		ldd r24,Z+2
 3491 133a 9381      		ldd r25,Z+3
 3492 133c 20EA      		ldi r18,lo8(100000)
 3493 133e 36E8      		ldi r19,hi8(100000)
 3494 1340 41E0      		ldi r20,hlo8(100000)
 3495 1342 50E0      		ldi r21,hhi8(100000)
 3496 1344 0E94 0000 		call __udivmodsi4
 3497 1348 20E1      		ldi r18,lo8(10000)
 3498 134a 37E2      		ldi r19,hi8(10000)
 3499 134c 40E0      		ldi r20,hlo8(10000)
 3500 134e 50E0      		ldi r21,hhi8(10000)
 3501 1350 0E94 0000 		call __udivmodsi4
 3502 1354 28EE      		ldi r18,lo8(1000)
 3503 1356 33E0      		ldi r19,hi8(1000)
 3504 1358 40E0      		ldi r20,hlo8(1000)
 3505 135a 50E0      		ldi r21,hhi8(1000)
 3506 135c 0E94 0000 		call __udivmodsi4
 3507 1360 24E6      		ldi r18,lo8(100)
 3508 1362 30E0      		ldi r19,hi8(100)
 3509 1364 40E0      		ldi r20,hlo8(100)
 3510 1366 50E0      		ldi r21,hhi8(100)
 3511 1368 0E94 0000 		call __udivmodsi4
 3512 136c 205D      		subi r18,lo8(-(48))
 3513 136e FE01      		movw r30,r28
 3514 1370 E050      		subi r30,lo8(-(buffer+17))
 3515 1372 F040      		sbci r31,hi8(-(buffer+17))
 3516 1374 2083      		st Z,r18
 3517               	.LM408:
 3518 1376 F801      		movw r30,r16
 3519 1378 6081      		ld r22,Z
 3520 137a 7181      		ldd r23,Z+1
 3521 137c 8281      		ldd r24,Z+2
 3522 137e 9381      		ldd r25,Z+3
 3523 1380 20EA      		ldi r18,lo8(100000)
 3524 1382 36E8      		ldi r19,hi8(100000)
 3525 1384 41E0      		ldi r20,hlo8(100000)
 3526 1386 50E0      		ldi r21,hhi8(100000)
 3527 1388 0E94 0000 		call __udivmodsi4
 3528 138c 20E1      		ldi r18,lo8(10000)
 3529 138e 37E2      		ldi r19,hi8(10000)
 3530 1390 40E0      		ldi r20,hlo8(10000)
 3531 1392 50E0      		ldi r21,hhi8(10000)
 3532 1394 0E94 0000 		call __udivmodsi4
 3533 1398 28EE      		ldi r18,lo8(1000)
 3534 139a 33E0      		ldi r19,hi8(1000)
 3535 139c 40E0      		ldi r20,hlo8(1000)
 3536 139e 50E0      		ldi r21,hhi8(1000)
 3537 13a0 0E94 0000 		call __udivmodsi4
 3538 13a4 24E6      		ldi r18,lo8(100)
 3539 13a6 30E0      		ldi r19,hi8(100)
 3540 13a8 40E0      		ldi r20,hlo8(100)
 3541 13aa 50E0      		ldi r21,hhi8(100)
 3542 13ac 0E94 0000 		call __udivmodsi4
 3543 13b0 2AE0      		ldi r18,lo8(10)
 3544 13b2 30E0      		ldi r19,hi8(10)
 3545 13b4 40E0      		ldi r20,hlo8(10)
 3546 13b6 50E0      		ldi r21,hhi8(10)
 3547 13b8 0E94 0000 		call __udivmodsi4
 3548 13bc 205D      		subi r18,lo8(-(48))
 3549 13be FE01      		movw r30,r28
 3550 13c0 E050      		subi r30,lo8(-(buffer+18))
 3551 13c2 F040      		sbci r31,hi8(-(buffer+18))
 3552 13c4 2083      		st Z,r18
 3553               	.LM409:
 3554 13c6 F801      		movw r30,r16
 3555 13c8 6081      		ld r22,Z
 3556 13ca 7181      		ldd r23,Z+1
 3557 13cc 8281      		ldd r24,Z+2
 3558 13ce 9381      		ldd r25,Z+3
 3559 13d0 20EA      		ldi r18,lo8(100000)
 3560 13d2 36E8      		ldi r19,hi8(100000)
 3561 13d4 41E0      		ldi r20,hlo8(100000)
 3562 13d6 50E0      		ldi r21,hhi8(100000)
 3563 13d8 0E94 0000 		call __udivmodsi4
 3564 13dc 20E1      		ldi r18,lo8(10000)
 3565 13de 37E2      		ldi r19,hi8(10000)
 3566 13e0 40E0      		ldi r20,hlo8(10000)
 3567 13e2 50E0      		ldi r21,hhi8(10000)
 3568 13e4 0E94 0000 		call __udivmodsi4
 3569 13e8 28EE      		ldi r18,lo8(1000)
 3570 13ea 33E0      		ldi r19,hi8(1000)
 3571 13ec 40E0      		ldi r20,hlo8(1000)
 3572 13ee 50E0      		ldi r21,hhi8(1000)
 3573 13f0 0E94 0000 		call __udivmodsi4
 3574 13f4 24E6      		ldi r18,lo8(100)
 3575 13f6 30E0      		ldi r19,hi8(100)
 3576 13f8 40E0      		ldi r20,hlo8(100)
 3577 13fa 50E0      		ldi r21,hhi8(100)
 3578 13fc 0E94 0000 		call __udivmodsi4
 3579 1400 2AE0      		ldi r18,lo8(10)
 3580 1402 30E0      		ldi r19,hi8(10)
 3581 1404 40E0      		ldi r20,hlo8(10)
 3582 1406 50E0      		ldi r21,hhi8(10)
 3583 1408 0E94 0000 		call __udivmodsi4
 3584 140c 605D      		subi r22,lo8(-(48))
 3585 140e FE01      		movw r30,r28
 3586 1410 E050      		subi r30,lo8(-(buffer+19))
 3587 1412 F040      		sbci r31,hi8(-(buffer+19))
 3588 1414 6083      		st Z,r22
 3589               	.LM410:
 3590 1416 8701      		movw r16,r14
 3591 1418 0050      		subi r16,lo8(-(timer1_stop))
 3592 141a 1040      		sbci r17,hi8(-(timer1_stop))
 3593 141c F801      		movw r30,r16
 3594 141e 6081      		ld r22,Z
 3595 1420 7181      		ldd r23,Z+1
 3596 1422 8281      		ldd r24,Z+2
 3597 1424 9381      		ldd r25,Z+3
 3598 1426 20EA      		ldi r18,lo8(100000)
 3599 1428 36E8      		ldi r19,hi8(100000)
 3600 142a 41E0      		ldi r20,hlo8(100000)
 3601 142c 50E0      		ldi r21,hhi8(100000)
 3602 142e 0E94 0000 		call __udivmodsi4
 3603 1432 205D      		subi r18,lo8(-(48))
 3604 1434 FE01      		movw r30,r28
 3605 1436 E050      		subi r30,lo8(-(buffer+20))
 3606 1438 F040      		sbci r31,hi8(-(buffer+20))
 3607 143a 2083      		st Z,r18
 3608               	.LM411:
 3609 143c F801      		movw r30,r16
 3610 143e 6081      		ld r22,Z
 3611 1440 7181      		ldd r23,Z+1
 3612 1442 8281      		ldd r24,Z+2
 3613 1444 9381      		ldd r25,Z+3
 3614 1446 20EA      		ldi r18,lo8(100000)
 3615 1448 36E8      		ldi r19,hi8(100000)
 3616 144a 41E0      		ldi r20,hlo8(100000)
 3617 144c 50E0      		ldi r21,hhi8(100000)
 3618 144e 0E94 0000 		call __udivmodsi4
 3619 1452 20E1      		ldi r18,lo8(10000)
 3620 1454 37E2      		ldi r19,hi8(10000)
 3621 1456 40E0      		ldi r20,hlo8(10000)
 3622 1458 50E0      		ldi r21,hhi8(10000)
 3623 145a 0E94 0000 		call __udivmodsi4
 3624 145e 205D      		subi r18,lo8(-(48))
 3625 1460 FE01      		movw r30,r28
 3626 1462 E050      		subi r30,lo8(-(buffer+21))
 3627 1464 F040      		sbci r31,hi8(-(buffer+21))
 3628 1466 2083      		st Z,r18
 3629               	.LM412:
 3630 1468 F801      		movw r30,r16
 3631 146a 6081      		ld r22,Z
 3632 146c 7181      		ldd r23,Z+1
 3633 146e 8281      		ldd r24,Z+2
 3634 1470 9381      		ldd r25,Z+3
 3635 1472 20EA      		ldi r18,lo8(100000)
 3636 1474 36E8      		ldi r19,hi8(100000)
 3637 1476 41E0      		ldi r20,hlo8(100000)
 3638 1478 50E0      		ldi r21,hhi8(100000)
 3639 147a 0E94 0000 		call __udivmodsi4
 3640 147e 20E1      		ldi r18,lo8(10000)
 3641 1480 37E2      		ldi r19,hi8(10000)
 3642 1482 40E0      		ldi r20,hlo8(10000)
 3643 1484 50E0      		ldi r21,hhi8(10000)
 3644 1486 0E94 0000 		call __udivmodsi4
 3645 148a 28EE      		ldi r18,lo8(1000)
 3646 148c 33E0      		ldi r19,hi8(1000)
 3647 148e 40E0      		ldi r20,hlo8(1000)
 3648 1490 50E0      		ldi r21,hhi8(1000)
 3649 1492 0E94 0000 		call __udivmodsi4
 3650 1496 205D      		subi r18,lo8(-(48))
 3651 1498 FE01      		movw r30,r28
 3652 149a E050      		subi r30,lo8(-(buffer+22))
 3653 149c F040      		sbci r31,hi8(-(buffer+22))
 3654 149e 2083      		st Z,r18
 3655               	.LM413:
 3656 14a0 F801      		movw r30,r16
 3657 14a2 6081      		ld r22,Z
 3658 14a4 7181      		ldd r23,Z+1
 3659 14a6 8281      		ldd r24,Z+2
 3660 14a8 9381      		ldd r25,Z+3
 3661 14aa 20EA      		ldi r18,lo8(100000)
 3662 14ac 36E8      		ldi r19,hi8(100000)
 3663 14ae 41E0      		ldi r20,hlo8(100000)
 3664 14b0 50E0      		ldi r21,hhi8(100000)
 3665 14b2 0E94 0000 		call __udivmodsi4
 3666 14b6 20E1      		ldi r18,lo8(10000)
 3667 14b8 37E2      		ldi r19,hi8(10000)
 3668 14ba 40E0      		ldi r20,hlo8(10000)
 3669 14bc 50E0      		ldi r21,hhi8(10000)
 3670 14be 0E94 0000 		call __udivmodsi4
 3671 14c2 28EE      		ldi r18,lo8(1000)
 3672 14c4 33E0      		ldi r19,hi8(1000)
 3673 14c6 40E0      		ldi r20,hlo8(1000)
 3674 14c8 50E0      		ldi r21,hhi8(1000)
 3675 14ca 0E94 0000 		call __udivmodsi4
 3676 14ce 24E6      		ldi r18,lo8(100)
 3677 14d0 30E0      		ldi r19,hi8(100)
 3678 14d2 40E0      		ldi r20,hlo8(100)
 3679 14d4 50E0      		ldi r21,hhi8(100)
 3680 14d6 0E94 0000 		call __udivmodsi4
 3681 14da 205D      		subi r18,lo8(-(48))
 3682 14dc FE01      		movw r30,r28
 3683 14de E050      		subi r30,lo8(-(buffer+23))
 3684 14e0 F040      		sbci r31,hi8(-(buffer+23))
 3685 14e2 2083      		st Z,r18
 3686               	.LM414:
 3687 14e4 F801      		movw r30,r16
 3688 14e6 6081      		ld r22,Z
 3689 14e8 7181      		ldd r23,Z+1
 3690 14ea 8281      		ldd r24,Z+2
 3691 14ec 9381      		ldd r25,Z+3
 3692 14ee 20EA      		ldi r18,lo8(100000)
 3693 14f0 36E8      		ldi r19,hi8(100000)
 3694 14f2 41E0      		ldi r20,hlo8(100000)
 3695 14f4 50E0      		ldi r21,hhi8(100000)
 3696 14f6 0E94 0000 		call __udivmodsi4
 3697 14fa 20E1      		ldi r18,lo8(10000)
 3698 14fc 37E2      		ldi r19,hi8(10000)
 3699 14fe 40E0      		ldi r20,hlo8(10000)
 3700 1500 50E0      		ldi r21,hhi8(10000)
 3701 1502 0E94 0000 		call __udivmodsi4
 3702 1506 28EE      		ldi r18,lo8(1000)
 3703 1508 33E0      		ldi r19,hi8(1000)
 3704 150a 40E0      		ldi r20,hlo8(1000)
 3705 150c 50E0      		ldi r21,hhi8(1000)
 3706 150e 0E94 0000 		call __udivmodsi4
 3707 1512 24E6      		ldi r18,lo8(100)
 3708 1514 30E0      		ldi r19,hi8(100)
 3709 1516 40E0      		ldi r20,hlo8(100)
 3710 1518 50E0      		ldi r21,hhi8(100)
 3711 151a 0E94 0000 		call __udivmodsi4
 3712 151e 2AE0      		ldi r18,lo8(10)
 3713 1520 30E0      		ldi r19,hi8(10)
 3714 1522 40E0      		ldi r20,hlo8(10)
 3715 1524 50E0      		ldi r21,hhi8(10)
 3716 1526 0E94 0000 		call __udivmodsi4
 3717 152a 205D      		subi r18,lo8(-(48))
 3718 152c FE01      		movw r30,r28
 3719 152e E050      		subi r30,lo8(-(buffer+24))
 3720 1530 F040      		sbci r31,hi8(-(buffer+24))
 3721 1532 2083      		st Z,r18
 3722               	.LM415:
 3723 1534 F801      		movw r30,r16
 3724 1536 6081      		ld r22,Z
 3725 1538 7181      		ldd r23,Z+1
 3726 153a 8281      		ldd r24,Z+2
 3727 153c 9381      		ldd r25,Z+3
 3728 153e 20EA      		ldi r18,lo8(100000)
 3729 1540 36E8      		ldi r19,hi8(100000)
 3730 1542 41E0      		ldi r20,hlo8(100000)
 3731 1544 50E0      		ldi r21,hhi8(100000)
 3732 1546 0E94 0000 		call __udivmodsi4
 3733 154a 20E1      		ldi r18,lo8(10000)
 3734 154c 37E2      		ldi r19,hi8(10000)
 3735 154e 40E0      		ldi r20,hlo8(10000)
 3736 1550 50E0      		ldi r21,hhi8(10000)
 3737 1552 0E94 0000 		call __udivmodsi4
 3738 1556 28EE      		ldi r18,lo8(1000)
 3739 1558 33E0      		ldi r19,hi8(1000)
 3740 155a 40E0      		ldi r20,hlo8(1000)
 3741 155c 50E0      		ldi r21,hhi8(1000)
 3742 155e 0E94 0000 		call __udivmodsi4
 3743 1562 24E6      		ldi r18,lo8(100)
 3744 1564 30E0      		ldi r19,hi8(100)
 3745 1566 40E0      		ldi r20,hlo8(100)
 3746 1568 50E0      		ldi r21,hhi8(100)
 3747 156a 0E94 0000 		call __udivmodsi4
 3748 156e 2AE0      		ldi r18,lo8(10)
 3749 1570 30E0      		ldi r19,hi8(10)
 3750 1572 40E0      		ldi r20,hlo8(10)
 3751 1574 50E0      		ldi r21,hhi8(10)
 3752 1576 0E94 0000 		call __udivmodsi4
 3753 157a 605D      		subi r22,lo8(-(48))
 3754 157c FE01      		movw r30,r28
 3755 157e E050      		subi r30,lo8(-(buffer+25))
 3756 1580 F040      		sbci r31,hi8(-(buffer+25))
 3757 1582 6083      		st Z,r22
 3758               	.LM416:
 3759 1584 8701      		movw r16,r14
 3760 1586 0050      		subi r16,lo8(-(timer2_stop))
 3761 1588 1040      		sbci r17,hi8(-(timer2_stop))
 3762 158a F801      		movw r30,r16
 3763 158c 6081      		ld r22,Z
 3764 158e 7181      		ldd r23,Z+1
 3765 1590 8281      		ldd r24,Z+2
 3766 1592 9381      		ldd r25,Z+3
 3767 1594 20EA      		ldi r18,lo8(100000)
 3768 1596 36E8      		ldi r19,hi8(100000)
 3769 1598 41E0      		ldi r20,hlo8(100000)
 3770 159a 50E0      		ldi r21,hhi8(100000)
 3771 159c 0E94 0000 		call __udivmodsi4
 3772 15a0 205D      		subi r18,lo8(-(48))
 3773 15a2 FE01      		movw r30,r28
 3774 15a4 E050      		subi r30,lo8(-(buffer+26))
 3775 15a6 F040      		sbci r31,hi8(-(buffer+26))
 3776 15a8 2083      		st Z,r18
 3777               	.LM417:
 3778 15aa F801      		movw r30,r16
 3779 15ac 6081      		ld r22,Z
 3780 15ae 7181      		ldd r23,Z+1
 3781 15b0 8281      		ldd r24,Z+2
 3782 15b2 9381      		ldd r25,Z+3
 3783 15b4 20EA      		ldi r18,lo8(100000)
 3784 15b6 36E8      		ldi r19,hi8(100000)
 3785 15b8 41E0      		ldi r20,hlo8(100000)
 3786 15ba 50E0      		ldi r21,hhi8(100000)
 3787 15bc 0E94 0000 		call __udivmodsi4
 3788 15c0 20E1      		ldi r18,lo8(10000)
 3789 15c2 37E2      		ldi r19,hi8(10000)
 3790 15c4 40E0      		ldi r20,hlo8(10000)
 3791 15c6 50E0      		ldi r21,hhi8(10000)
 3792 15c8 0E94 0000 		call __udivmodsi4
 3793 15cc 205D      		subi r18,lo8(-(48))
 3794 15ce FE01      		movw r30,r28
 3795 15d0 E050      		subi r30,lo8(-(buffer+27))
 3796 15d2 F040      		sbci r31,hi8(-(buffer+27))
 3797 15d4 2083      		st Z,r18
 3798               	.LM418:
 3799 15d6 F801      		movw r30,r16
 3800 15d8 6081      		ld r22,Z
 3801 15da 7181      		ldd r23,Z+1
 3802 15dc 8281      		ldd r24,Z+2
 3803 15de 9381      		ldd r25,Z+3
 3804 15e0 20EA      		ldi r18,lo8(100000)
 3805 15e2 36E8      		ldi r19,hi8(100000)
 3806 15e4 41E0      		ldi r20,hlo8(100000)
 3807 15e6 50E0      		ldi r21,hhi8(100000)
 3808 15e8 0E94 0000 		call __udivmodsi4
 3809 15ec 20E1      		ldi r18,lo8(10000)
 3810 15ee 37E2      		ldi r19,hi8(10000)
 3811 15f0 40E0      		ldi r20,hlo8(10000)
 3812 15f2 50E0      		ldi r21,hhi8(10000)
 3813 15f4 0E94 0000 		call __udivmodsi4
 3814 15f8 28EE      		ldi r18,lo8(1000)
 3815 15fa 33E0      		ldi r19,hi8(1000)
 3816 15fc 40E0      		ldi r20,hlo8(1000)
 3817 15fe 50E0      		ldi r21,hhi8(1000)
 3818 1600 0E94 0000 		call __udivmodsi4
 3819 1604 205D      		subi r18,lo8(-(48))
 3820 1606 FE01      		movw r30,r28
 3821 1608 E050      		subi r30,lo8(-(buffer+28))
 3822 160a F040      		sbci r31,hi8(-(buffer+28))
 3823 160c 2083      		st Z,r18
 3824               	.LM419:
 3825 160e F801      		movw r30,r16
 3826 1610 6081      		ld r22,Z
 3827 1612 7181      		ldd r23,Z+1
 3828 1614 8281      		ldd r24,Z+2
 3829 1616 9381      		ldd r25,Z+3
 3830 1618 20EA      		ldi r18,lo8(100000)
 3831 161a 36E8      		ldi r19,hi8(100000)
 3832 161c 41E0      		ldi r20,hlo8(100000)
 3833 161e 50E0      		ldi r21,hhi8(100000)
 3834 1620 0E94 0000 		call __udivmodsi4
 3835 1624 20E1      		ldi r18,lo8(10000)
 3836 1626 37E2      		ldi r19,hi8(10000)
 3837 1628 40E0      		ldi r20,hlo8(10000)
 3838 162a 50E0      		ldi r21,hhi8(10000)
 3839 162c 0E94 0000 		call __udivmodsi4
 3840 1630 28EE      		ldi r18,lo8(1000)
 3841 1632 33E0      		ldi r19,hi8(1000)
 3842 1634 40E0      		ldi r20,hlo8(1000)
 3843 1636 50E0      		ldi r21,hhi8(1000)
 3844 1638 0E94 0000 		call __udivmodsi4
 3845 163c 24E6      		ldi r18,lo8(100)
 3846 163e 30E0      		ldi r19,hi8(100)
 3847 1640 40E0      		ldi r20,hlo8(100)
 3848 1642 50E0      		ldi r21,hhi8(100)
 3849 1644 0E94 0000 		call __udivmodsi4
 3850 1648 205D      		subi r18,lo8(-(48))
 3851 164a FE01      		movw r30,r28
 3852 164c E050      		subi r30,lo8(-(buffer+29))
 3853 164e F040      		sbci r31,hi8(-(buffer+29))
 3854 1650 2083      		st Z,r18
 3855               	.LM420:
 3856 1652 F801      		movw r30,r16
 3857 1654 6081      		ld r22,Z
 3858 1656 7181      		ldd r23,Z+1
 3859 1658 8281      		ldd r24,Z+2
 3860 165a 9381      		ldd r25,Z+3
 3861 165c 20EA      		ldi r18,lo8(100000)
 3862 165e 36E8      		ldi r19,hi8(100000)
 3863 1660 41E0      		ldi r20,hlo8(100000)
 3864 1662 50E0      		ldi r21,hhi8(100000)
 3865 1664 0E94 0000 		call __udivmodsi4
 3866 1668 20E1      		ldi r18,lo8(10000)
 3867 166a 37E2      		ldi r19,hi8(10000)
 3868 166c 40E0      		ldi r20,hlo8(10000)
 3869 166e 50E0      		ldi r21,hhi8(10000)
 3870 1670 0E94 0000 		call __udivmodsi4
 3871 1674 28EE      		ldi r18,lo8(1000)
 3872 1676 33E0      		ldi r19,hi8(1000)
 3873 1678 40E0      		ldi r20,hlo8(1000)
 3874 167a 50E0      		ldi r21,hhi8(1000)
 3875 167c 0E94 0000 		call __udivmodsi4
 3876 1680 24E6      		ldi r18,lo8(100)
 3877 1682 30E0      		ldi r19,hi8(100)
 3878 1684 40E0      		ldi r20,hlo8(100)
 3879 1686 50E0      		ldi r21,hhi8(100)
 3880 1688 0E94 0000 		call __udivmodsi4
 3881 168c 2AE0      		ldi r18,lo8(10)
 3882 168e 30E0      		ldi r19,hi8(10)
 3883 1690 40E0      		ldi r20,hlo8(10)
 3884 1692 50E0      		ldi r21,hhi8(10)
 3885 1694 0E94 0000 		call __udivmodsi4
 3886 1698 205D      		subi r18,lo8(-(48))
 3887 169a FE01      		movw r30,r28
 3888 169c E050      		subi r30,lo8(-(buffer+30))
 3889 169e F040      		sbci r31,hi8(-(buffer+30))
 3890 16a0 2083      		st Z,r18
 3891               	.LM421:
 3892 16a2 F801      		movw r30,r16
 3893 16a4 6081      		ld r22,Z
 3894 16a6 7181      		ldd r23,Z+1
 3895 16a8 8281      		ldd r24,Z+2
 3896 16aa 9381      		ldd r25,Z+3
 3897 16ac 20EA      		ldi r18,lo8(100000)
 3898 16ae 36E8      		ldi r19,hi8(100000)
 3899 16b0 41E0      		ldi r20,hlo8(100000)
 3900 16b2 50E0      		ldi r21,hhi8(100000)
 3901 16b4 0E94 0000 		call __udivmodsi4
 3902 16b8 20E1      		ldi r18,lo8(10000)
 3903 16ba 37E2      		ldi r19,hi8(10000)
 3904 16bc 40E0      		ldi r20,hlo8(10000)
 3905 16be 50E0      		ldi r21,hhi8(10000)
 3906 16c0 0E94 0000 		call __udivmodsi4
 3907 16c4 28EE      		ldi r18,lo8(1000)
 3908 16c6 33E0      		ldi r19,hi8(1000)
 3909 16c8 40E0      		ldi r20,hlo8(1000)
 3910 16ca 50E0      		ldi r21,hhi8(1000)
 3911 16cc 0E94 0000 		call __udivmodsi4
 3912 16d0 24E6      		ldi r18,lo8(100)
 3913 16d2 30E0      		ldi r19,hi8(100)
 3914 16d4 40E0      		ldi r20,hlo8(100)
 3915 16d6 50E0      		ldi r21,hhi8(100)
 3916 16d8 0E94 0000 		call __udivmodsi4
 3917 16dc 2AE0      		ldi r18,lo8(10)
 3918 16de 30E0      		ldi r19,hi8(10)
 3919 16e0 40E0      		ldi r20,hlo8(10)
 3920 16e2 50E0      		ldi r21,hhi8(10)
 3921 16e4 0E94 0000 		call __udivmodsi4
 3922 16e8 605D      		subi r22,lo8(-(48))
 3923 16ea FE01      		movw r30,r28
 3924 16ec E050      		subi r30,lo8(-(buffer+31))
 3925 16ee F040      		sbci r31,hi8(-(buffer+31))
 3926 16f0 6083      		st Z,r22
 3927               	.LM422:
 3928 16f2 80E0      		ldi r24,lo8(timer3_stop)
 3929 16f4 90E0      		ldi r25,hi8(timer3_stop)
 3930 16f6 E80E      		add r14,r24
 3931 16f8 F91E      		adc r15,r25
 3932 16fa F701      		movw r30,r14
 3933 16fc 6081      		ld r22,Z
 3934 16fe 7181      		ldd r23,Z+1
 3935 1700 8281      		ldd r24,Z+2
 3936 1702 9381      		ldd r25,Z+3
 3937 1704 20EA      		ldi r18,lo8(100000)
 3938 1706 36E8      		ldi r19,hi8(100000)
 3939 1708 41E0      		ldi r20,hlo8(100000)
 3940 170a 50E0      		ldi r21,hhi8(100000)
 3941 170c 0E94 0000 		call __udivmodsi4
 3942 1710 205D      		subi r18,lo8(-(48))
 3943 1712 FE01      		movw r30,r28
 3944 1714 E050      		subi r30,lo8(-(buffer+32))
 3945 1716 F040      		sbci r31,hi8(-(buffer+32))
 3946 1718 2083      		st Z,r18
 3947               	.LM423:
 3948 171a F701      		movw r30,r14
 3949 171c 6081      		ld r22,Z
 3950 171e 7181      		ldd r23,Z+1
 3951 1720 8281      		ldd r24,Z+2
 3952 1722 9381      		ldd r25,Z+3
 3953 1724 20EA      		ldi r18,lo8(100000)
 3954 1726 36E8      		ldi r19,hi8(100000)
 3955 1728 41E0      		ldi r20,hlo8(100000)
 3956 172a 50E0      		ldi r21,hhi8(100000)
 3957 172c 0E94 0000 		call __udivmodsi4
 3958 1730 20E1      		ldi r18,lo8(10000)
 3959 1732 37E2      		ldi r19,hi8(10000)
 3960 1734 40E0      		ldi r20,hlo8(10000)
 3961 1736 50E0      		ldi r21,hhi8(10000)
 3962 1738 0E94 0000 		call __udivmodsi4
 3963 173c 205D      		subi r18,lo8(-(48))
 3964 173e FE01      		movw r30,r28
 3965 1740 E050      		subi r30,lo8(-(buffer+33))
 3966 1742 F040      		sbci r31,hi8(-(buffer+33))
 3967 1744 2083      		st Z,r18
 3968               	.LM424:
 3969 1746 F701      		movw r30,r14
 3970 1748 6081      		ld r22,Z
 3971 174a 7181      		ldd r23,Z+1
 3972 174c 8281      		ldd r24,Z+2
 3973 174e 9381      		ldd r25,Z+3
 3974 1750 20EA      		ldi r18,lo8(100000)
 3975 1752 36E8      		ldi r19,hi8(100000)
 3976 1754 41E0      		ldi r20,hlo8(100000)
 3977 1756 50E0      		ldi r21,hhi8(100000)
 3978 1758 0E94 0000 		call __udivmodsi4
 3979 175c 20E1      		ldi r18,lo8(10000)
 3980 175e 37E2      		ldi r19,hi8(10000)
 3981 1760 40E0      		ldi r20,hlo8(10000)
 3982 1762 50E0      		ldi r21,hhi8(10000)
 3983 1764 0E94 0000 		call __udivmodsi4
 3984 1768 28EE      		ldi r18,lo8(1000)
 3985 176a 33E0      		ldi r19,hi8(1000)
 3986 176c 40E0      		ldi r20,hlo8(1000)
 3987 176e 50E0      		ldi r21,hhi8(1000)
 3988 1770 0E94 0000 		call __udivmodsi4
 3989 1774 205D      		subi r18,lo8(-(48))
 3990 1776 FE01      		movw r30,r28
 3991 1778 E050      		subi r30,lo8(-(buffer+34))
 3992 177a F040      		sbci r31,hi8(-(buffer+34))
 3993 177c 2083      		st Z,r18
 3994               	.LM425:
 3995 177e F701      		movw r30,r14
 3996 1780 6081      		ld r22,Z
 3997 1782 7181      		ldd r23,Z+1
 3998 1784 8281      		ldd r24,Z+2
 3999 1786 9381      		ldd r25,Z+3
 4000 1788 20EA      		ldi r18,lo8(100000)
 4001 178a 36E8      		ldi r19,hi8(100000)
 4002 178c 41E0      		ldi r20,hlo8(100000)
 4003 178e 50E0      		ldi r21,hhi8(100000)
 4004 1790 0E94 0000 		call __udivmodsi4
 4005 1794 20E1      		ldi r18,lo8(10000)
 4006 1796 37E2      		ldi r19,hi8(10000)
 4007 1798 40E0      		ldi r20,hlo8(10000)
 4008 179a 50E0      		ldi r21,hhi8(10000)
 4009 179c 0E94 0000 		call __udivmodsi4
 4010 17a0 28EE      		ldi r18,lo8(1000)
 4011 17a2 33E0      		ldi r19,hi8(1000)
 4012 17a4 40E0      		ldi r20,hlo8(1000)
 4013 17a6 50E0      		ldi r21,hhi8(1000)
 4014 17a8 0E94 0000 		call __udivmodsi4
 4015 17ac 24E6      		ldi r18,lo8(100)
 4016 17ae 30E0      		ldi r19,hi8(100)
 4017 17b0 40E0      		ldi r20,hlo8(100)
 4018 17b2 50E0      		ldi r21,hhi8(100)
 4019 17b4 0E94 0000 		call __udivmodsi4
 4020 17b8 205D      		subi r18,lo8(-(48))
 4021 17ba FE01      		movw r30,r28
 4022 17bc E050      		subi r30,lo8(-(buffer+35))
 4023 17be F040      		sbci r31,hi8(-(buffer+35))
 4024 17c0 2083      		st Z,r18
 4025               	.LM426:
 4026 17c2 8E01      		movw r16,r28
 4027 17c4 0C5D      		subi r16,lo8(-(36))
 4028 17c6 1F4F      		sbci r17,hi8(-(36))
 4029               	.LM427:
 4030 17c8 F701      		movw r30,r14
 4031 17ca 6081      		ld r22,Z
 4032 17cc 7181      		ldd r23,Z+1
 4033 17ce 8281      		ldd r24,Z+2
 4034 17d0 9381      		ldd r25,Z+3
 4035 17d2 20EA      		ldi r18,lo8(100000)
 4036 17d4 36E8      		ldi r19,hi8(100000)
 4037 17d6 41E0      		ldi r20,hlo8(100000)
 4038 17d8 50E0      		ldi r21,hhi8(100000)
 4039 17da 0E94 0000 		call __udivmodsi4
 4040 17de 20E1      		ldi r18,lo8(10000)
 4041 17e0 37E2      		ldi r19,hi8(10000)
 4042 17e2 40E0      		ldi r20,hlo8(10000)
 4043 17e4 50E0      		ldi r21,hhi8(10000)
 4044 17e6 0E94 0000 		call __udivmodsi4
 4045 17ea 28EE      		ldi r18,lo8(1000)
 4046 17ec 33E0      		ldi r19,hi8(1000)
 4047 17ee 40E0      		ldi r20,hlo8(1000)
 4048 17f0 50E0      		ldi r21,hhi8(1000)
 4049 17f2 0E94 0000 		call __udivmodsi4
 4050 17f6 24E6      		ldi r18,lo8(100)
 4051 17f8 30E0      		ldi r19,hi8(100)
 4052 17fa 40E0      		ldi r20,hlo8(100)
 4053 17fc 50E0      		ldi r21,hhi8(100)
 4054 17fe 0E94 0000 		call __udivmodsi4
 4055 1802 2AE0      		ldi r18,lo8(10)
 4056 1804 30E0      		ldi r19,hi8(10)
 4057 1806 40E0      		ldi r20,hlo8(10)
 4058 1808 50E0      		ldi r21,hhi8(10)
 4059 180a 0E94 0000 		call __udivmodsi4
 4060 180e 205D      		subi r18,lo8(-(48))
 4061 1810 F801      		movw r30,r16
 4062 1812 E050      		subi r30,lo8(-(buffer))
 4063 1814 F040      		sbci r31,hi8(-(buffer))
 4064 1816 2083      		st Z,r18
 4065               	.LM428:
 4066 1818 F701      		movw r30,r14
 4067 181a 6081      		ld r22,Z
 4068 181c 7181      		ldd r23,Z+1
 4069 181e 8281      		ldd r24,Z+2
 4070 1820 9381      		ldd r25,Z+3
 4071 1822 20EA      		ldi r18,lo8(100000)
 4072 1824 36E8      		ldi r19,hi8(100000)
 4073 1826 41E0      		ldi r20,hlo8(100000)
 4074 1828 50E0      		ldi r21,hhi8(100000)
 4075 182a 0E94 0000 		call __udivmodsi4
 4076 182e 20E1      		ldi r18,lo8(10000)
 4077 1830 37E2      		ldi r19,hi8(10000)
 4078 1832 40E0      		ldi r20,hlo8(10000)
 4079 1834 50E0      		ldi r21,hhi8(10000)
 4080 1836 0E94 0000 		call __udivmodsi4
 4081 183a 28EE      		ldi r18,lo8(1000)
 4082 183c 33E0      		ldi r19,hi8(1000)
 4083 183e 40E0      		ldi r20,hlo8(1000)
 4084 1840 50E0      		ldi r21,hhi8(1000)
 4085 1842 0E94 0000 		call __udivmodsi4
 4086 1846 24E6      		ldi r18,lo8(100)
 4087 1848 30E0      		ldi r19,hi8(100)
 4088 184a 40E0      		ldi r20,hlo8(100)
 4089 184c 50E0      		ldi r21,hhi8(100)
 4090 184e 0E94 0000 		call __udivmodsi4
 4091 1852 2AE0      		ldi r18,lo8(10)
 4092 1854 30E0      		ldi r19,hi8(10)
 4093 1856 40E0      		ldi r20,hlo8(10)
 4094 1858 50E0      		ldi r21,hhi8(10)
 4095 185a 0E94 0000 		call __udivmodsi4
 4096 185e 605D      		subi r22,lo8(-(48))
 4097 1860 C050      		subi r28,lo8(-(buffer+37))
 4098 1862 D040      		sbci r29,hi8(-(buffer+37))
 4099 1864 6883      		st Y,r22
 4100 1866 0894      		sec
 4101 1868 C11C      		adc r12,__zero_reg__
 4102 186a D11C      		adc r13,__zero_reg__
 4103 186c E801      		movw r28,r16
 4104               	.LM429:
 4105 186e F9E0      		ldi r31,lo8(9)
 4106 1870 CF16      		cp r12,r31
 4107 1872 D104      		cpc r13,__zero_reg__
 4108 1874 01F0      		breq .+2
 4109 1876 00C0      		rjmp .L217
 4110               	.LBE289:
 4111               	.LM430:
 4112 1878 83EB      		ldi r24,lo8(-77)
 4113 187a 8093 0000 		sts buffer+326,r24
 4114               	.LM431:
 4115 187e 0E94 0000 		call buffer_start
 4116               	.L218:
 4117               	/* epilogue start */
 4118               	.LM432:
 4119 1882 DF91      		pop r29
 4120 1884 CF91      		pop r28
 4121 1886 1F91      		pop r17
 4122 1888 0F91      		pop r16
 4123 188a FF90      		pop r15
 4124 188c EF90      		pop r14
 4125 188e DF90      		pop r13
 4126 1890 CF90      		pop r12
 4127 1892 0895      		ret
 4128               	.LFE54:
 4130               	.global	events_data_to_uart
 4132               	events_data_to_uart:
 4133               	.LFB55:
 4134               	.LM433:
 4135 1894 EF92      		push r14
 4136 1896 FF92      		push r15
 4137 1898 0F93      		push r16
 4138 189a 1F93      		push r17
 4139               	/* prologue: function */
 4140               	/* frame size = 0 */
 4141               	.LM434:
 4142 189c 81E0      		ldi r24,lo8(1)
 4143 189e 8093 0000 		sts TRANSMIT,r24
 4144               	.LM435:
 4145 18a2 8CE1      		ldi r24,lo8(28)
 4146 18a4 90E0      		ldi r25,hi8(28)
 4147 18a6 9093 0000 		sts (usart_data_in_num)+1,r25
 4148 18aa 8093 0000 		sts usart_data_in_num,r24
 4149               	.LM436:
 4150 18ae 8BE3      		ldi r24,lo8(59)
 4151 18b0 8093 0000 		sts buffer,r24
 4152               	.LM437:
 4153 18b4 83EA      		ldi r24,lo8(-93)
 4154 18b6 8093 0000 		sts buffer+1,r24
 4155               	.LM438:
 4156 18ba 8091 0000 		lds r24,set_temp_sensor
 4157 18be 805D      		subi r24,lo8(-(48))
 4158 18c0 8093 0000 		sts buffer+2,r24
 4159               	.LM439:
 4160 18c4 2091 0000 		lds r18,set_temp
 4161 18c8 3091 0000 		lds r19,(set_temp)+1
 4162 18cc C901      		movw r24,r18
 4163 18ce 64E6      		ldi r22,lo8(100)
 4164 18d0 70E0      		ldi r23,hi8(100)
 4165 18d2 0E94 0000 		call __divmodhi4
 4166 18d6 605D      		subi r22,lo8(-(48))
 4167 18d8 6093 0000 		sts buffer+3,r22
 4168               	.LM440:
 4169 18dc C901      		movw r24,r18
 4170 18de 64E6      		ldi r22,lo8(100)
 4171 18e0 70E0      		ldi r23,hi8(100)
 4172 18e2 0E94 0000 		call __divmodhi4
 4173 18e6 6AE0      		ldi r22,lo8(10)
 4174 18e8 70E0      		ldi r23,hi8(10)
 4175 18ea 0E94 0000 		call __divmodhi4
 4176 18ee 605D      		subi r22,lo8(-(48))
 4177 18f0 6093 0000 		sts buffer+4,r22
 4178               	.LM441:
 4179 18f4 8091 0000 		lds r24,set_temp_dec
 4180 18f8 805D      		subi r24,lo8(-(48))
 4181 18fa 8093 0000 		sts buffer+5,r24
 4182               	.LM442:
 4183 18fe 2091 0000 		lds r18,cooler_set
 4184 1902 3091 0000 		lds r19,(cooler_set)+1
 4185 1906 C901      		movw r24,r18
 4186 1908 64E6      		ldi r22,lo8(100)
 4187 190a 70E0      		ldi r23,hi8(100)
 4188 190c 0E94 0000 		call __udivmodhi4
 4189 1910 605D      		subi r22,lo8(-(48))
 4190 1912 6093 0000 		sts buffer+6,r22
 4191               	.LM443:
 4192 1916 C901      		movw r24,r18
 4193 1918 64E6      		ldi r22,lo8(100)
 4194 191a 70E0      		ldi r23,hi8(100)
 4195 191c 0E94 0000 		call __udivmodhi4
 4196 1920 9C01      		movw r18,r24
 4197 1922 6AE0      		ldi r22,lo8(10)
 4198 1924 70E0      		ldi r23,hi8(10)
 4199 1926 0E94 0000 		call __udivmodhi4
 4200 192a 605D      		subi r22,lo8(-(48))
 4201 192c 6093 0000 		sts buffer+7,r22
 4202               	.LM444:
 4203 1930 C901      		movw r24,r18
 4204 1932 6AE0      		ldi r22,lo8(10)
 4205 1934 70E0      		ldi r23,hi8(10)
 4206 1936 0E94 0000 		call __udivmodhi4
 4207 193a 805D      		subi r24,lo8(-(48))
 4208 193c 8093 0000 		sts buffer+8,r24
 4209               	.LM445:
 4210 1940 6091 0000 		lds r22,timer_produv_time
 4211 1944 7091 0000 		lds r23,(timer_produv_time)+1
 4212 1948 8091 0000 		lds r24,(timer_produv_time)+2
 4213 194c 9091 0000 		lds r25,(timer_produv_time)+3
 4214 1950 28EE      		ldi r18,lo8(1000)
 4215 1952 33E0      		ldi r19,hi8(1000)
 4216 1954 40E0      		ldi r20,hlo8(1000)
 4217 1956 50E0      		ldi r21,hhi8(1000)
 4218 1958 0E94 0000 		call __udivmodsi4
 4219 195c 205D      		subi r18,lo8(-(48))
 4220 195e 2093 0000 		sts buffer+9,r18
 4221               	.LM446:
 4222 1962 6091 0000 		lds r22,timer_produv_time
 4223 1966 7091 0000 		lds r23,(timer_produv_time)+1
 4224 196a 8091 0000 		lds r24,(timer_produv_time)+2
 4225 196e 9091 0000 		lds r25,(timer_produv_time)+3
 4226 1972 28EE      		ldi r18,lo8(1000)
 4227 1974 33E0      		ldi r19,hi8(1000)
 4228 1976 40E0      		ldi r20,hlo8(1000)
 4229 1978 50E0      		ldi r21,hhi8(1000)
 4230 197a 0E94 0000 		call __udivmodsi4
 4231 197e 24E6      		ldi r18,lo8(100)
 4232 1980 30E0      		ldi r19,hi8(100)
 4233 1982 40E0      		ldi r20,hlo8(100)
 4234 1984 50E0      		ldi r21,hhi8(100)
 4235 1986 0E94 0000 		call __udivmodsi4
 4236 198a 205D      		subi r18,lo8(-(48))
 4237 198c 2093 0000 		sts buffer+10,r18
 4238               	.LM447:
 4239 1990 6091 0000 		lds r22,timer_produv_time
 4240 1994 7091 0000 		lds r23,(timer_produv_time)+1
 4241 1998 8091 0000 		lds r24,(timer_produv_time)+2
 4242 199c 9091 0000 		lds r25,(timer_produv_time)+3
 4243 19a0 28EE      		ldi r18,lo8(1000)
 4244 19a2 33E0      		ldi r19,hi8(1000)
 4245 19a4 40E0      		ldi r20,hlo8(1000)
 4246 19a6 50E0      		ldi r21,hhi8(1000)
 4247 19a8 0E94 0000 		call __udivmodsi4
 4248 19ac 24E6      		ldi r18,lo8(100)
 4249 19ae 30E0      		ldi r19,hi8(100)
 4250 19b0 40E0      		ldi r20,hlo8(100)
 4251 19b2 50E0      		ldi r21,hhi8(100)
 4252 19b4 0E94 0000 		call __udivmodsi4
 4253 19b8 2AE0      		ldi r18,lo8(10)
 4254 19ba 30E0      		ldi r19,hi8(10)
 4255 19bc 40E0      		ldi r20,hlo8(10)
 4256 19be 50E0      		ldi r21,hhi8(10)
 4257 19c0 0E94 0000 		call __udivmodsi4
 4258 19c4 205D      		subi r18,lo8(-(48))
 4259 19c6 2093 0000 		sts buffer+11,r18
 4260               	.LM448:
 4261 19ca 6091 0000 		lds r22,timer_produv_time
 4262 19ce 7091 0000 		lds r23,(timer_produv_time)+1
 4263 19d2 8091 0000 		lds r24,(timer_produv_time)+2
 4264 19d6 9091 0000 		lds r25,(timer_produv_time)+3
 4265 19da 28EE      		ldi r18,lo8(1000)
 4266 19dc 33E0      		ldi r19,hi8(1000)
 4267 19de 40E0      		ldi r20,hlo8(1000)
 4268 19e0 50E0      		ldi r21,hhi8(1000)
 4269 19e2 0E94 0000 		call __udivmodsi4
 4270 19e6 24E6      		ldi r18,lo8(100)
 4271 19e8 30E0      		ldi r19,hi8(100)
 4272 19ea 40E0      		ldi r20,hlo8(100)
 4273 19ec 50E0      		ldi r21,hhi8(100)
 4274 19ee 0E94 0000 		call __udivmodsi4
 4275 19f2 2AE0      		ldi r18,lo8(10)
 4276 19f4 30E0      		ldi r19,hi8(10)
 4277 19f6 40E0      		ldi r20,hlo8(10)
 4278 19f8 50E0      		ldi r21,hhi8(10)
 4279 19fa 0E94 0000 		call __udivmodsi4
 4280 19fe 605D      		subi r22,lo8(-(48))
 4281 1a00 6093 0000 		sts buffer+12,r22
 4282               	.LM449:
 4283 1a04 8091 0000 		lds r24,timer_produv_period
 4284 1a08 805D      		subi r24,lo8(-(48))
 4285 1a0a 8093 0000 		sts buffer+13,r24
 4286               	.LM450:
 4287 1a0e E090 0000 		lds r14,cooler_min
 4288 1a12 F090 0000 		lds r15,(cooler_min)+1
 4289 1a16 0091 0000 		lds r16,(cooler_min)+2
 4290 1a1a 1091 0000 		lds r17,(cooler_min)+3
 4291 1a1e C801      		movw r24,r16
 4292 1a20 B701      		movw r22,r14
 4293 1a22 20E0      		ldi r18,lo8(0x42c80000)
 4294 1a24 30E0      		ldi r19,hi8(0x42c80000)
 4295 1a26 48EC      		ldi r20,hlo8(0x42c80000)
 4296 1a28 52E4      		ldi r21,hhi8(0x42c80000)
 4297 1a2a 0E94 0000 		call __divsf3
 4298 1a2e 20E0      		ldi r18,lo8(0x42400000)
 4299 1a30 30E0      		ldi r19,hi8(0x42400000)
 4300 1a32 40E4      		ldi r20,hlo8(0x42400000)
 4301 1a34 52E4      		ldi r21,hhi8(0x42400000)
 4302 1a36 0E94 0000 		call __addsf3
 4303 1a3a 0E94 0000 		call __fixunssfsi
 4304 1a3e 6093 0000 		sts buffer+14,r22
 4305               	.LM451:
 4306 1a42 C801      		movw r24,r16
 4307 1a44 B701      		movw r22,r14
 4308 1a46 0E94 0000 		call __fixunssfsi
 4309 1a4a DC01      		movw r26,r24
 4310 1a4c CB01      		movw r24,r22
 4311 1a4e 64E6      		ldi r22,lo8(100)
 4312 1a50 70E0      		ldi r23,hi8(100)
 4313 1a52 0E94 0000 		call __udivmodhi4
 4314 1a56 9C01      		movw r18,r24
 4315 1a58 6AE0      		ldi r22,lo8(10)
 4316 1a5a 70E0      		ldi r23,hi8(10)
 4317 1a5c 0E94 0000 		call __udivmodhi4
 4318 1a60 605D      		subi r22,lo8(-(48))
 4319 1a62 6093 0000 		sts buffer+15,r22
 4320               	.LM452:
 4321 1a66 C901      		movw r24,r18
 4322 1a68 6AE0      		ldi r22,lo8(10)
 4323 1a6a 70E0      		ldi r23,hi8(10)
 4324 1a6c 0E94 0000 		call __udivmodhi4
 4325 1a70 805D      		subi r24,lo8(-(48))
 4326 1a72 8093 0000 		sts buffer+16,r24
 4327               	.LM453:
 4328 1a76 2091 0000 		lds r18,ph_high
 4329 1a7a 3091 0000 		lds r19,(ph_high)+1
 4330 1a7e C901      		movw r24,r18
 4331 1a80 64E6      		ldi r22,lo8(100)
 4332 1a82 70E0      		ldi r23,hi8(100)
 4333 1a84 0E94 0000 		call __udivmodhi4
 4334 1a88 605D      		subi r22,lo8(-(48))
 4335 1a8a 6093 0000 		sts buffer+17,r22
 4336               	.LM454:
 4337 1a8e C901      		movw r24,r18
 4338 1a90 64E6      		ldi r22,lo8(100)
 4339 1a92 70E0      		ldi r23,hi8(100)
 4340 1a94 0E94 0000 		call __udivmodhi4
 4341 1a98 9C01      		movw r18,r24
 4342 1a9a 6AE0      		ldi r22,lo8(10)
 4343 1a9c 70E0      		ldi r23,hi8(10)
 4344 1a9e 0E94 0000 		call __udivmodhi4
 4345 1aa2 605D      		subi r22,lo8(-(48))
 4346 1aa4 6093 0000 		sts buffer+18,r22
 4347               	.LM455:
 4348 1aa8 C901      		movw r24,r18
 4349 1aaa 6AE0      		ldi r22,lo8(10)
 4350 1aac 70E0      		ldi r23,hi8(10)
 4351 1aae 0E94 0000 		call __udivmodhi4
 4352 1ab2 805D      		subi r24,lo8(-(48))
 4353 1ab4 8093 0000 		sts buffer+19,r24
 4354               	.LM456:
 4355 1ab8 2091 0000 		lds r18,ph_low
 4356 1abc 3091 0000 		lds r19,(ph_low)+1
 4357 1ac0 C901      		movw r24,r18
 4358 1ac2 64E6      		ldi r22,lo8(100)
 4359 1ac4 70E0      		ldi r23,hi8(100)
 4360 1ac6 0E94 0000 		call __udivmodhi4
 4361 1aca 605D      		subi r22,lo8(-(48))
 4362 1acc 6093 0000 		sts buffer+20,r22
 4363               	.LM457:
 4364 1ad0 C901      		movw r24,r18
 4365 1ad2 64E6      		ldi r22,lo8(100)
 4366 1ad4 70E0      		ldi r23,hi8(100)
 4367 1ad6 0E94 0000 		call __udivmodhi4
 4368 1ada 9C01      		movw r18,r24
 4369 1adc 6AE0      		ldi r22,lo8(10)
 4370 1ade 70E0      		ldi r23,hi8(10)
 4371 1ae0 0E94 0000 		call __udivmodhi4
 4372 1ae4 605D      		subi r22,lo8(-(48))
 4373 1ae6 6093 0000 		sts buffer+21,r22
 4374               	.LM458:
 4375 1aea C901      		movw r24,r18
 4376 1aec 6AE0      		ldi r22,lo8(10)
 4377 1aee 70E0      		ldi r23,hi8(10)
 4378 1af0 0E94 0000 		call __udivmodhi4
 4379 1af4 805D      		subi r24,lo8(-(48))
 4380 1af6 8093 0000 		sts buffer+22,r24
 4381               	.LM459:
 4382 1afa 6091 0000 		lds r22,co2_stop
 4383 1afe 7091 0000 		lds r23,(co2_stop)+1
 4384 1b02 8091 0000 		lds r24,(co2_stop)+2
 4385 1b06 9091 0000 		lds r25,(co2_stop)+3
 4386 1b0a 20EA      		ldi r18,lo8(100000)
 4387 1b0c 36E8      		ldi r19,hi8(100000)
 4388 1b0e 41E0      		ldi r20,hlo8(100000)
 4389 1b10 50E0      		ldi r21,hhi8(100000)
 4390 1b12 0E94 0000 		call __udivmodsi4
 4391 1b16 205D      		subi r18,lo8(-(48))
 4392 1b18 2093 0000 		sts buffer+23,r18
 4393               	.LM460:
 4394 1b1c 6091 0000 		lds r22,co2_stop
 4395 1b20 7091 0000 		lds r23,(co2_stop)+1
 4396 1b24 8091 0000 		lds r24,(co2_stop)+2
 4397 1b28 9091 0000 		lds r25,(co2_stop)+3
 4398 1b2c 20E1      		ldi r18,lo8(10000)
 4399 1b2e 37E2      		ldi r19,hi8(10000)
 4400 1b30 40E0      		ldi r20,hlo8(10000)
 4401 1b32 50E0      		ldi r21,hhi8(10000)
 4402 1b34 0E94 0000 		call __udivmodsi4
 4403 1b38 CA01      		movw r24,r20
 4404 1b3a B901      		movw r22,r18
 4405 1b3c 2AE0      		ldi r18,lo8(10)
 4406 1b3e 30E0      		ldi r19,hi8(10)
 4407 1b40 40E0      		ldi r20,hlo8(10)
 4408 1b42 50E0      		ldi r21,hhi8(10)
 4409 1b44 0E94 0000 		call __udivmodsi4
 4410 1b48 605D      		subi r22,lo8(-(48))
 4411 1b4a 6093 0000 		sts buffer+24,r22
 4412               	.LM461:
 4413 1b4e 6091 0000 		lds r22,co2_start
 4414 1b52 7091 0000 		lds r23,(co2_start)+1
 4415 1b56 8091 0000 		lds r24,(co2_start)+2
 4416 1b5a 9091 0000 		lds r25,(co2_start)+3
 4417 1b5e 20EA      		ldi r18,lo8(100000)
 4418 1b60 36E8      		ldi r19,hi8(100000)
 4419 1b62 41E0      		ldi r20,hlo8(100000)
 4420 1b64 50E0      		ldi r21,hhi8(100000)
 4421 1b66 0E94 0000 		call __udivmodsi4
 4422 1b6a 205D      		subi r18,lo8(-(48))
 4423 1b6c 2093 0000 		sts buffer+25,r18
 4424               	.LM462:
 4425 1b70 6091 0000 		lds r22,co2_start
 4426 1b74 7091 0000 		lds r23,(co2_start)+1
 4427 1b78 8091 0000 		lds r24,(co2_start)+2
 4428 1b7c 9091 0000 		lds r25,(co2_start)+3
 4429 1b80 20E1      		ldi r18,lo8(10000)
 4430 1b82 37E2      		ldi r19,hi8(10000)
 4431 1b84 40E0      		ldi r20,hlo8(10000)
 4432 1b86 50E0      		ldi r21,hhi8(10000)
 4433 1b88 0E94 0000 		call __udivmodsi4
 4434 1b8c CA01      		movw r24,r20
 4435 1b8e B901      		movw r22,r18
 4436 1b90 2AE0      		ldi r18,lo8(10)
 4437 1b92 30E0      		ldi r19,hi8(10)
 4438 1b94 40E0      		ldi r20,hlo8(10)
 4439 1b96 50E0      		ldi r21,hhi8(10)
 4440 1b98 0E94 0000 		call __udivmodsi4
 4441 1b9c 605D      		subi r22,lo8(-(48))
 4442 1b9e 6093 0000 		sts buffer+26,r22
 4443               	.LM463:
 4444 1ba2 83EB      		ldi r24,lo8(-77)
 4445 1ba4 8093 0000 		sts buffer+27,r24
 4446               	.LM464:
 4447 1ba8 0E94 0000 		call buffer_start
 4448               	/* epilogue start */
 4449               	.LM465:
 4450 1bac 1F91      		pop r17
 4451 1bae 0F91      		pop r16
 4452 1bb0 FF90      		pop r15
 4453 1bb2 EF90      		pop r14
 4454 1bb4 0895      		ret
 4455               	.LFE55:
 4457               	.global	water_doliv
 4459               	water_doliv:
 4460               	.LFB56:
 4461               	.LM466:
 4462 1bb6 CF92      		push r12
 4463 1bb8 DF92      		push r13
 4464 1bba EF92      		push r14
 4465 1bbc FF92      		push r15
 4466 1bbe 0F93      		push r16
 4467 1bc0 1F93      		push r17
 4468 1bc2 CF93      		push r28
 4469 1bc4 DF93      		push r29
 4470               	/* prologue: function */
 4471               	/* frame size = 0 */
 4472               	.LM467:
 4473 1bc6 8091 0000 		lds r24,doliv
 4474 1bca 8130      		cpi r24,lo8(1)
 4475 1bcc 01F0      		breq .L224
 4476 1bce 8230      		cpi r24,lo8(2)
 4477 1bd0 01F0      		breq .+2
 4478 1bd2 00C0      		rjmp .L237
 4479 1bd4 00C0      		rjmp .L239
 4480               	.L224:
 4481               	.LM468:
 4482 1bd6 0091 0000 		lds r16,water_lvl
 4483 1bda 1091 0000 		lds r17,(water_lvl)+1
 4484 1bde E090 0000 		lds r14,doliv_porog2
 4485 1be2 F090 0000 		lds r15,(doliv_porog2)+1
 4486 1be6 C090 0000 		lds r12,doliv_porog1
 4487 1bea D090 0000 		lds r13,(doliv_porog1)+1
 4488 1bee C0E0      		ldi r28,lo8(0)
 4489 1bf0 D0E0      		ldi r29,hi8(0)
 4490 1bf2 8091 0000 		lds r24,water_lvl_last
 4491 1bf6 9091 0000 		lds r25,(water_lvl_last)+1
 4492 1bfa F801      		movw r30,r16
 4493 1bfc E81B      		sub r30,r24
 4494 1bfe F90B      		sbc r31,r25
 4495 1c00 F7FF      		sbrs r31,7
 4496 1c02 00C0      		rjmp .L228
 4497 1c04 F095      		com r31
 4498 1c06 E195      		neg r30
 4499 1c08 FF4F      		sbci r31,lo8(-1)
 4500               	.L228:
 4501 1c0a C701      		movw r24,r14
 4502 1c0c 8C19      		sub r24,r12
 4503 1c0e 9D09      		sbc r25,r13
 4504 1c10 62E0      		ldi r22,lo8(2)
 4505 1c12 70E0      		ldi r23,hi8(2)
 4506 1c14 0E94 0000 		call __divmodhi4
 4507 1c18 CB01      		movw r24,r22
 4508 1c1a 77FF      		sbrs r23,7
 4509 1c1c 00C0      		rjmp .L229
 4510 1c1e 9095      		com r25
 4511 1c20 8195      		neg r24
 4512 1c22 9F4F      		sbci r25,lo8(-1)
 4513               	.L229:
 4514 1c24 E817      		cp r30,r24
 4515 1c26 F907      		cpc r31,r25
 4516 1c28 04F0      		brlt .L227
 4517 1c2a C1E0      		ldi r28,lo8(1)
 4518 1c2c D0E0      		ldi r29,hi8(1)
 4519               	.L227:
 4520 1c2e 8091 0000 		lds r24,WATER_ERROR_POMPA
 4521 1c32 90E0      		ldi r25,lo8(0)
 4522 1c34 C82B      		or r28,r24
 4523 1c36 D92B      		or r29,r25
 4524 1c38 9091 0000 		lds r25,water_lvl_ovf_time
 4525 1c3c CD2B      		or r28,r29
 4526 1c3e 01F0      		breq .L226
 4527               	.LM469:
 4528 1c40 81E0      		ldi r24,lo8(1)
 4529 1c42 8093 0000 		sts WATER_ERROR,r24
 4530               	.LM470:
 4531 1c46 84E3      		ldi r24,lo8(52)
 4532 1c48 8093 0000 		sts water_lvl_status,r24
 4533               	.LM471:
 4534 1c4c 9F5F      		subi r25,lo8(-(1))
 4535 1c4e 9093 0000 		sts water_lvl_ovf_time,r25
 4536 1c52 00C0      		rjmp .L230
 4537               	.L226:
 4538               	.LM472:
 4539 1c54 9E31      		cpi r25,lo8(30)
 4540 1c56 00F4      		brsh .L230
 4541               	.LM473:
 4542 1c58 1092 0000 		sts WATER_ERROR,__zero_reg__
 4543               	.LM474:
 4544 1c5c 1092 0000 		sts water_lvl_ovf_time,__zero_reg__
 4545               	.L230:
 4546               	.LM475:
 4547 1c60 8091 0000 		lds r24,WATER_ERROR
 4548 1c64 8823      		tst r24
 4549 1c66 01F4      		brne .L237
 4550               	.LM476:
 4551 1c68 E016      		cp r14,r16
 4552 1c6a F106      		cpc r15,r17
 4553 1c6c 04F0      		brlt .L231
 4554 1c6e 81E0      		ldi r24,lo8(1)
 4555 1c70 8093 0000 		sts pompa,r24
 4556               	.L231:
 4557               	.LM477:
 4558 1c74 0C15      		cp r16,r12
 4559 1c76 1D05      		cpc r17,r13
 4560 1c78 04F0      		brlt .L232
 4561 1c7a 1092 0000 		sts pompa,__zero_reg__
 4562               	.L232:
 4563               	.LM478:
 4564 1c7e 8091 0000 		lds r24,pompa
 4565 1c82 8823      		tst r24
 4566 1c84 01F0      		breq .L233
 4567               	.LM479:
 4568 1c86 AB9A      		sbi 53-32,3
 4569               	.LM480:
 4570 1c88 83E3      		ldi r24,lo8(51)
 4571 1c8a 8093 0000 		sts water_lvl_status,r24
 4572 1c8e 00C0      		rjmp .L234
 4573               	.L233:
 4574               	.LM481:
 4575 1c90 AB98      		cbi 53-32,3
 4576               	.L234:
 4577               	.LM482:
 4578 1c92 1093 0000 		sts (water_lvl_last)+1,r17
 4579 1c96 0093 0000 		sts water_lvl_last,r16
 4580 1c9a 00C0      		rjmp .L237
 4581               	.L239:
 4582               	.LM483:
 4583 1c9c 8091 0000 		lds r24,rele_set+7
 4584 1ca0 8130      		cpi r24,lo8(1)
 4585 1ca2 01F4      		brne .L235
 4586 1ca4 82E3      		ldi r24,lo8(50)
 4587 1ca6 00C0      		rjmp .L238
 4588               	.L235:
 4589               	.LM484:
 4590 1ca8 8823      		tst r24
 4591 1caa 01F4      		brne .L236
 4592 1cac 8091 0000 		lds r24,doliv_timer_status
 4593 1cb0 8823      		tst r24
 4594 1cb2 01F4      		brne .L236
 4595 1cb4 AB98      		cbi 53-32,3
 4596 1cb6 80E3      		ldi r24,lo8(48)
 4597               	.L238:
 4598 1cb8 8093 0000 		sts water_lvl_status,r24
 4599               	.L236:
 4600               	.LM485:
 4601 1cbc 1092 0000 		sts doliv,__zero_reg__
 4602               	.LM486:
 4603 1cc0 1092 0000 		sts water_lvl_ovf_time,__zero_reg__
 4604               	.LM487:
 4605 1cc4 1092 0000 		sts WATER_ERROR,__zero_reg__
 4606               	.L237:
 4607               	/* epilogue start */
 4608               	.LM488:
 4609 1cc8 DF91      		pop r29
 4610 1cca CF91      		pop r28
 4611 1ccc 1F91      		pop r17
 4612 1cce 0F91      		pop r16
 4613 1cd0 FF90      		pop r15
 4614 1cd2 EF90      		pop r14
 4615 1cd4 DF90      		pop r13
 4616 1cd6 CF90      		pop r12
 4617 1cd8 0895      		ret
 4618               	.LFE56:
 4620               	.global	load_option_eeprom
 4622               	load_option_eeprom:
 4623               	.LFB53:
 4624               	.LM489:
 4625 1cda EF92      		push r14
 4626 1cdc FF92      		push r15
 4627 1cde 0F93      		push r16
 4628 1ce0 1F93      		push r17
 4629 1ce2 CF93      		push r28
 4630 1ce4 DF93      		push r29
 4631               	/* prologue: function */
 4632               	/* frame size = 0 */
 4633               	.LM490:
 4634 1ce6 8AE0      		ldi r24,lo8(10)
 4635 1ce8 90E0      		ldi r25,hi8(10)
 4636 1cea 0E94 0000 		call __eerd_dword_m32
 4637 1cee 6093 0000 		sts k1,r22
 4638 1cf2 7093 0000 		sts (k1)+1,r23
 4639 1cf6 8093 0000 		sts (k1)+2,r24
 4640 1cfa 9093 0000 		sts (k1)+3,r25
 4641               	.LM491:
 4642 1cfe 8EE0      		ldi r24,lo8(14)
 4643 1d00 90E0      		ldi r25,hi8(14)
 4644 1d02 0E94 0000 		call __eerd_dword_m32
 4645 1d06 6093 0000 		sts k2,r22
 4646 1d0a 7093 0000 		sts (k2)+1,r23
 4647 1d0e 8093 0000 		sts (k2)+2,r24
 4648 1d12 9093 0000 		sts (k2)+3,r25
 4649               	.LM492:
 4650 1d16 82E1      		ldi r24,lo8(18)
 4651 1d18 90E0      		ldi r25,hi8(18)
 4652 1d1a 0E94 0000 		call __eerd_dword_m32
 4653 1d1e 6093 0000 		sts k,r22
 4654 1d22 7093 0000 		sts (k)+1,r23
 4655 1d26 8093 0000 		sts (k)+2,r24
 4656 1d2a 9093 0000 		sts (k)+3,r25
 4657               	.LM493:
 4658 1d2e 86E1      		ldi r24,lo8(22)
 4659 1d30 90E0      		ldi r25,hi8(22)
 4660 1d32 0E94 0000 		call __eerd_byte_m32
 4661 1d36 8093 0000 		sts rele_set,r24
 4662               	.LM494:
 4663 1d3a 87E1      		ldi r24,lo8(23)
 4664 1d3c 90E0      		ldi r25,hi8(23)
 4665 1d3e 0E94 0000 		call __eerd_byte_m32
 4666 1d42 8093 0000 		sts rele_set+1,r24
 4667               	.LM495:
 4668 1d46 88E1      		ldi r24,lo8(24)
 4669 1d48 90E0      		ldi r25,hi8(24)
 4670 1d4a 0E94 0000 		call __eerd_byte_m32
 4671 1d4e 8093 0000 		sts rele_set+2,r24
 4672               	.LM496:
 4673 1d52 89E1      		ldi r24,lo8(25)
 4674 1d54 90E0      		ldi r25,hi8(25)
 4675 1d56 0E94 0000 		call __eerd_byte_m32
 4676 1d5a 8093 0000 		sts rele_set+3,r24
 4677               	.LM497:
 4678 1d5e 8AE1      		ldi r24,lo8(26)
 4679 1d60 90E0      		ldi r25,hi8(26)
 4680 1d62 0E94 0000 		call __eerd_byte_m32
 4681 1d66 8093 0000 		sts rele_set+4,r24
 4682               	.LM498:
 4683 1d6a 8BE1      		ldi r24,lo8(27)
 4684 1d6c 90E0      		ldi r25,hi8(27)
 4685 1d6e 0E94 0000 		call __eerd_byte_m32
 4686 1d72 8093 0000 		sts rele_set+5,r24
 4687               	.LM499:
 4688 1d76 8CE1      		ldi r24,lo8(28)
 4689 1d78 90E0      		ldi r25,hi8(28)
 4690 1d7a 0E94 0000 		call __eerd_byte_m32
 4691 1d7e 8093 0000 		sts rele_set+6,r24
 4692               	.LM500:
 4693 1d82 8DE1      		ldi r24,lo8(29)
 4694 1d84 90E0      		ldi r25,hi8(29)
 4695 1d86 0E94 0000 		call __eerd_byte_m32
 4696 1d8a 8093 0000 		sts rele_set+7,r24
 4697               	.LM501:
 4698 1d8e 8EE1      		ldi r24,lo8(30)
 4699 1d90 90E0      		ldi r25,hi8(30)
 4700 1d92 0E94 0000 		call __eerd_byte_m32
 4701 1d96 8093 0000 		sts cooler_start_pulse,r24
 4702               	.LM502:
 4703 1d9a 8FE1      		ldi r24,lo8(31)
 4704 1d9c 90E0      		ldi r25,hi8(31)
 4705 1d9e 0E94 0000 		call __eerd_byte_m32
 4706 1da2 8093 0000 		sts cooler_start_pulse+1,r24
 4707               	.LM503:
 4708 1da6 80E2      		ldi r24,lo8(32)
 4709 1da8 90E0      		ldi r25,hi8(32)
 4710 1daa 0E94 0000 		call __eerd_byte_m32
 4711 1dae 8093 0000 		sts cooler_start_pulse+2,r24
 4712               	.LM504:
 4713 1db2 81E2      		ldi r24,lo8(33)
 4714 1db4 90E0      		ldi r25,hi8(33)
 4715 1db6 0E94 0000 		call __eerd_byte_m32
 4716 1dba 8093 0000 		sts cooler_start_pulse+3,r24
 4717               	.LM505:
 4718 1dbe 82E2      		ldi r24,lo8(34)
 4719 1dc0 90E0      		ldi r25,hi8(34)
 4720 1dc2 0E94 0000 		call __eerd_byte_m32
 4721 1dc6 90E0      		ldi r25,lo8(0)
 4722 1dc8 A0E0      		ldi r26,lo8(0)
 4723 1dca B0E0      		ldi r27,hi8(0)
 4724 1dcc BC01      		movw r22,r24
 4725 1dce CD01      		movw r24,r26
 4726 1dd0 0E94 0000 		call __floatunsisf
 4727 1dd4 6093 0000 		sts cooler_data,r22
 4728 1dd8 7093 0000 		sts (cooler_data)+1,r23
 4729 1ddc 8093 0000 		sts (cooler_data)+2,r24
 4730 1de0 9093 0000 		sts (cooler_data)+3,r25
 4731               	.LM506:
 4732 1de4 83E2      		ldi r24,lo8(35)
 4733 1de6 90E0      		ldi r25,hi8(35)
 4734 1de8 0E94 0000 		call __eerd_byte_m32
 4735 1dec 90E0      		ldi r25,lo8(0)
 4736 1dee A0E0      		ldi r26,lo8(0)
 4737 1df0 B0E0      		ldi r27,hi8(0)
 4738 1df2 BC01      		movw r22,r24
 4739 1df4 CD01      		movw r24,r26
 4740 1df6 0E94 0000 		call __floatunsisf
 4741 1dfa 6093 0000 		sts cooler_data+4,r22
 4742 1dfe 7093 0000 		sts (cooler_data+4)+1,r23
 4743 1e02 8093 0000 		sts (cooler_data+4)+2,r24
 4744 1e06 9093 0000 		sts (cooler_data+4)+3,r25
 4745               	.LM507:
 4746 1e0a 84E2      		ldi r24,lo8(36)
 4747 1e0c 90E0      		ldi r25,hi8(36)
 4748 1e0e 0E94 0000 		call __eerd_byte_m32
 4749 1e12 90E0      		ldi r25,lo8(0)
 4750 1e14 A0E0      		ldi r26,lo8(0)
 4751 1e16 B0E0      		ldi r27,hi8(0)
 4752 1e18 BC01      		movw r22,r24
 4753 1e1a CD01      		movw r24,r26
 4754 1e1c 0E94 0000 		call __floatunsisf
 4755 1e20 6093 0000 		sts cooler_data+8,r22
 4756 1e24 7093 0000 		sts (cooler_data+8)+1,r23
 4757 1e28 8093 0000 		sts (cooler_data+8)+2,r24
 4758 1e2c 9093 0000 		sts (cooler_data+8)+3,r25
 4759               	.LM508:
 4760 1e30 85E2      		ldi r24,lo8(37)
 4761 1e32 90E0      		ldi r25,hi8(37)
 4762 1e34 0E94 0000 		call __eerd_byte_m32
 4763 1e38 90E0      		ldi r25,lo8(0)
 4764 1e3a A0E0      		ldi r26,lo8(0)
 4765 1e3c B0E0      		ldi r27,hi8(0)
 4766 1e3e BC01      		movw r22,r24
 4767 1e40 CD01      		movw r24,r26
 4768 1e42 0E94 0000 		call __floatunsisf
 4769 1e46 6093 0000 		sts cooler_data+12,r22
 4770 1e4a 7093 0000 		sts (cooler_data+12)+1,r23
 4771 1e4e 8093 0000 		sts (cooler_data+12)+2,r24
 4772 1e52 9093 0000 		sts (cooler_data+12)+3,r25
 4773               	.LM509:
 4774 1e56 86E2      		ldi r24,lo8(38)
 4775 1e58 90E0      		ldi r25,hi8(38)
 4776 1e5a 0E94 0000 		call __eerd_byte_m32
 4777 1e5e 90E0      		ldi r25,lo8(0)
 4778 1e60 A0E0      		ldi r26,lo8(0)
 4779 1e62 B0E0      		ldi r27,hi8(0)
 4780 1e64 BC01      		movw r22,r24
 4781 1e66 CD01      		movw r24,r26
 4782 1e68 0E94 0000 		call __floatunsisf
 4783 1e6c 6093 0000 		sts cooler_min,r22
 4784 1e70 7093 0000 		sts (cooler_min)+1,r23
 4785 1e74 8093 0000 		sts (cooler_min)+2,r24
 4786 1e78 9093 0000 		sts (cooler_min)+3,r25
 4787               	.LM510:
 4788 1e7c 87E2      		ldi r24,lo8(39)
 4789 1e7e 90E0      		ldi r25,hi8(39)
 4790 1e80 0E94 0000 		call __eerd_byte_m32
 4791 1e84 8093 0000 		sts cooler_chanel_status,r24
 4792               	.LM511:
 4793 1e88 88E2      		ldi r24,lo8(40)
 4794 1e8a 90E0      		ldi r25,hi8(40)
 4795 1e8c 0E94 0000 		call __eerd_byte_m32
 4796 1e90 8CBF      		out 92-32,r24
 4797               	.LM512:
 4798 1e92 89E2      		ldi r24,lo8(41)
 4799 1e94 90E0      		ldi r25,hi8(41)
 4800 1e96 0E94 0000 		call __eerd_dword_m32
 4801 1e9a 6093 0000 		sts lcd_led_stop,r22
 4802 1e9e 7093 0000 		sts (lcd_led_stop)+1,r23
 4803 1ea2 8093 0000 		sts (lcd_led_stop)+2,r24
 4804 1ea6 9093 0000 		sts (lcd_led_stop)+3,r25
 4805               	.LM513:
 4806 1eaa 8DE2      		ldi r24,lo8(45)
 4807 1eac 90E0      		ldi r25,hi8(45)
 4808 1eae 0E94 0000 		call __eerd_dword_m32
 4809 1eb2 6093 0000 		sts lcd_led_start,r22
 4810 1eb6 7093 0000 		sts (lcd_led_start)+1,r23
 4811 1eba 8093 0000 		sts (lcd_led_start)+2,r24
 4812 1ebe 9093 0000 		sts (lcd_led_start)+3,r25
 4813               	.LM514:
 4814 1ec2 81E3      		ldi r24,lo8(49)
 4815 1ec4 90E0      		ldi r25,hi8(49)
 4816 1ec6 0E94 0000 		call __eerd_dword_m32
 4817 1eca 6093 0000 		sts cooler_stop,r22
 4818 1ece 7093 0000 		sts (cooler_stop)+1,r23
 4819 1ed2 8093 0000 		sts (cooler_stop)+2,r24
 4820 1ed6 9093 0000 		sts (cooler_stop)+3,r25
 4821               	.LM515:
 4822 1eda 85E3      		ldi r24,lo8(53)
 4823 1edc 90E0      		ldi r25,hi8(53)
 4824 1ede 0E94 0000 		call __eerd_dword_m32
 4825 1ee2 6093 0000 		sts cooler_start,r22
 4826 1ee6 7093 0000 		sts (cooler_start)+1,r23
 4827 1eea 8093 0000 		sts (cooler_start)+2,r24
 4828 1eee 9093 0000 		sts (cooler_start)+3,r25
 4829               	.LM516:
 4830 1ef2 89E3      		ldi r24,lo8(57)
 4831 1ef4 90E0      		ldi r25,hi8(57)
 4832 1ef6 0E94 0000 		call __eerd_byte_m32
 4833 1efa 8093 0000 		sts temp_control,r24
 4834               	.LM517:
 4835 1efe 8AE3      		ldi r24,lo8(58)
 4836 1f00 90E0      		ldi r25,hi8(58)
 4837 1f02 0E94 0000 		call __eerd_byte_m32
 4838 1f06 8093 0000 		sts set_temp_sensor,r24
 4839               	.LM518:
 4840 1f0a 8BE3      		ldi r24,lo8(59)
 4841 1f0c 90E0      		ldi r25,hi8(59)
 4842 1f0e 0E94 0000 		call __eerd_word_m32
 4843 1f12 9093 0000 		sts (set_temp)+1,r25
 4844 1f16 8093 0000 		sts set_temp,r24
 4845               	.LM519:
 4846 1f1a 8DE3      		ldi r24,lo8(61)
 4847 1f1c 90E0      		ldi r25,hi8(61)
 4848 1f1e 0E94 0000 		call __eerd_byte_m32
 4849 1f22 8093 0000 		sts set_temp_dec,r24
 4850               	.LM520:
 4851 1f26 8EE3      		ldi r24,lo8(62)
 4852 1f28 90E0      		ldi r25,hi8(62)
 4853 1f2a 0E94 0000 		call __eerd_word_m32
 4854 1f2e 9093 0000 		sts (cooler_set)+1,r25
 4855 1f32 8093 0000 		sts cooler_set,r24
 4856               	.LM521:
 4857 1f36 80E4      		ldi r24,lo8(64)
 4858 1f38 90E0      		ldi r25,hi8(64)
 4859 1f3a 0E94 0000 		call __eerd_byte_m32
 4860 1f3e 8093 0000 		sts cooler,r24
 4861               	.LM522:
 4862 1f42 81E4      		ldi r24,lo8(65)
 4863 1f44 90E0      		ldi r25,hi8(65)
 4864 1f46 0E94 0000 		call __eerd_byte_m32
 4865 1f4a 8093 0000 		sts heater,r24
 4866 1f4e EE24      		clr r14
 4867 1f50 FF24      		clr r15
 4868 1f52 C2E4      		ldi r28,lo8(66)
 4869 1f54 D0E0      		ldi r29,hi8(66)
 4870               	.L241:
 4871               	.LBB290:
 4872               	.LM523:
 4873 1f56 CE01      		movw r24,r28
 4874 1f58 0E94 0000 		call __eerd_dword_m32
 4875 1f5c 8701      		movw r16,r14
 4876 1f5e 000F      		lsl r16
 4877 1f60 111F      		rol r17
 4878 1f62 000F      		lsl r16
 4879 1f64 111F      		rol r17
 4880 1f66 F801      		movw r30,r16
 4881 1f68 E050      		subi r30,lo8(-(timer1_start))
 4882 1f6a F040      		sbci r31,hi8(-(timer1_start))
 4883 1f6c 6083      		st Z,r22
 4884 1f6e 7183      		std Z+1,r23
 4885 1f70 8283      		std Z+2,r24
 4886 1f72 9383      		std Z+3,r25
 4887               	.LM524:
 4888 1f74 CE01      		movw r24,r28
 4889 1f76 8496      		adiw r24,36
 4890 1f78 0E94 0000 		call __eerd_dword_m32
 4891 1f7c F801      		movw r30,r16
 4892 1f7e E050      		subi r30,lo8(-(timer2_start))
 4893 1f80 F040      		sbci r31,hi8(-(timer2_start))
 4894 1f82 6083      		st Z,r22
 4895 1f84 7183      		std Z+1,r23
 4896 1f86 8283      		std Z+2,r24
 4897 1f88 9383      		std Z+3,r25
 4898               	.LM525:
 4899 1f8a CE01      		movw r24,r28
 4900 1f8c 885B      		subi r24,lo8(-(72))
 4901 1f8e 9F4F      		sbci r25,hi8(-(72))
 4902 1f90 0E94 0000 		call __eerd_dword_m32
 4903 1f94 F801      		movw r30,r16
 4904 1f96 E050      		subi r30,lo8(-(timer3_start))
 4905 1f98 F040      		sbci r31,hi8(-(timer3_start))
 4906 1f9a 6083      		st Z,r22
 4907 1f9c 7183      		std Z+1,r23
 4908 1f9e 8283      		std Z+2,r24
 4909 1fa0 9383      		std Z+3,r25
 4910               	.LM526:
 4911 1fa2 CE01      		movw r24,r28
 4912 1fa4 8459      		subi r24,lo8(-(108))
 4913 1fa6 9F4F      		sbci r25,hi8(-(108))
 4914 1fa8 0E94 0000 		call __eerd_dword_m32
 4915 1fac F801      		movw r30,r16
 4916 1fae E050      		subi r30,lo8(-(timer1_stop))
 4917 1fb0 F040      		sbci r31,hi8(-(timer1_stop))
 4918 1fb2 6083      		st Z,r22
 4919 1fb4 7183      		std Z+1,r23
 4920 1fb6 8283      		std Z+2,r24
 4921 1fb8 9383      		std Z+3,r25
 4922               	.LM527:
 4923 1fba CE01      		movw r24,r28
 4924 1fbc 8057      		subi r24,lo8(-(144))
 4925 1fbe 9F4F      		sbci r25,hi8(-(144))
 4926 1fc0 0E94 0000 		call __eerd_dword_m32
 4927 1fc4 F801      		movw r30,r16
 4928 1fc6 E050      		subi r30,lo8(-(timer2_stop))
 4929 1fc8 F040      		sbci r31,hi8(-(timer2_stop))
 4930 1fca 6083      		st Z,r22
 4931 1fcc 7183      		std Z+1,r23
 4932 1fce 8283      		std Z+2,r24
 4933 1fd0 9383      		std Z+3,r25
 4934               	.LM528:
 4935 1fd2 CE01      		movw r24,r28
 4936 1fd4 8C54      		subi r24,lo8(-(180))
 4937 1fd6 9F4F      		sbci r25,hi8(-(180))
 4938 1fd8 0E94 0000 		call __eerd_dword_m32
 4939 1fdc 0050      		subi r16,lo8(-(timer3_stop))
 4940 1fde 1040      		sbci r17,hi8(-(timer3_stop))
 4941 1fe0 F801      		movw r30,r16
 4942 1fe2 6083      		st Z,r22
 4943 1fe4 7183      		std Z+1,r23
 4944 1fe6 8283      		std Z+2,r24
 4945 1fe8 9383      		std Z+3,r25
 4946 1fea 0894      		sec
 4947 1fec E11C      		adc r14,__zero_reg__
 4948 1fee F11C      		adc r15,__zero_reg__
 4949 1ff0 2496      		adiw r28,4
 4950               	.LM529:
 4951 1ff2 F9E0      		ldi r31,lo8(9)
 4952 1ff4 EF16      		cp r14,r31
 4953 1ff6 F104      		cpc r15,__zero_reg__
 4954 1ff8 01F0      		breq .+2
 4955 1ffa 00C0      		rjmp .L241
 4956               	.LBE290:
 4957               	.LM530:
 4958 1ffc 8AE1      		ldi r24,lo8(282)
 4959 1ffe 91E0      		ldi r25,hi8(282)
 4960 2000 0E94 0000 		call __eerd_byte_m32
 4961 2004 8093 0000 		sts produv,r24
 4962               	.LM531:
 4963 2008 8BE1      		ldi r24,lo8(283)
 4964 200a 91E0      		ldi r25,hi8(283)
 4965 200c 0E94 0000 		call __eerd_dword_m32
 4966 2010 6093 0000 		sts timer_produv_time,r22
 4967 2014 7093 0000 		sts (timer_produv_time)+1,r23
 4968 2018 8093 0000 		sts (timer_produv_time)+2,r24
 4969 201c 9093 0000 		sts (timer_produv_time)+3,r25
 4970               	.LM532:
 4971 2020 8FE1      		ldi r24,lo8(287)
 4972 2022 91E0      		ldi r25,hi8(287)
 4973 2024 0E94 0000 		call __eerd_byte_m32
 4974 2028 8093 0000 		sts timer_produv_period,r24
 4975               	.LM533:
 4976 202c 80E2      		ldi r24,lo8(288)
 4977 202e 91E0      		ldi r25,hi8(288)
 4978 2030 0E94 0000 		call __eerd_byte_m32
 4979 2034 8093 0000 		sts co2,r24
 4980               	.LM534:
 4981 2038 81E2      		ldi r24,lo8(289)
 4982 203a 91E0      		ldi r25,hi8(289)
 4983 203c 0E94 0000 		call __eerd_word_m32
 4984 2040 9093 0000 		sts (ph_high)+1,r25
 4985 2044 8093 0000 		sts ph_high,r24
 4986               	.LM535:
 4987 2048 83E2      		ldi r24,lo8(291)
 4988 204a 91E0      		ldi r25,hi8(291)
 4989 204c 0E94 0000 		call __eerd_word_m32
 4990 2050 9093 0000 		sts (ph_low)+1,r25
 4991 2054 8093 0000 		sts ph_low,r24
 4992               	.LM536:
 4993 2058 85E2      		ldi r24,lo8(293)
 4994 205a 91E0      		ldi r25,hi8(293)
 4995 205c 0E94 0000 		call __eerd_dword_m32
 4996 2060 6093 0000 		sts co2_stop,r22
 4997 2064 7093 0000 		sts (co2_stop)+1,r23
 4998 2068 8093 0000 		sts (co2_stop)+2,r24
 4999 206c 9093 0000 		sts (co2_stop)+3,r25
 5000               	.LM537:
 5001 2070 89E2      		ldi r24,lo8(297)
 5002 2072 91E0      		ldi r25,hi8(297)
 5003 2074 0E94 0000 		call __eerd_dword_m32
 5004 2078 6093 0000 		sts co2_start,r22
 5005 207c 7093 0000 		sts (co2_start)+1,r23
 5006 2080 8093 0000 		sts (co2_start)+2,r24
 5007 2084 9093 0000 		sts (co2_start)+3,r25
 5008               	.LM538:
 5009 2088 8DE2      		ldi r24,lo8(301)
 5010 208a 91E0      		ldi r25,hi8(301)
 5011 208c 0E94 0000 		call __eerd_byte_m32
 5012 2090 8093 0000 		sts heater_timer_status,r24
 5013               	.LM539:
 5014 2094 8EE2      		ldi r24,lo8(302)
 5015 2096 91E0      		ldi r25,hi8(302)
 5016 2098 0E94 0000 		call __eerd_byte_m32
 5017 209c 8093 0000 		sts co2_timer_status,r24
 5018               	.LM540:
 5019 20a0 8FE2      		ldi r24,lo8(303)
 5020 20a2 91E0      		ldi r25,hi8(303)
 5021 20a4 0E94 0000 		call __eerd_byte_m32
 5022 20a8 8093 0000 		sts co2_set,r24
 5023               	.LM541:
 5024 20ac 80E3      		ldi r24,lo8(304)
 5025 20ae 91E0      		ldi r25,hi8(304)
 5026 20b0 0E94 0000 		call __eerd_word_m32
 5027 20b4 9093 0000 		sts (water_lvl)+1,r25
 5028 20b8 8093 0000 		sts water_lvl,r24
 5029               	.LM542:
 5030 20bc 82E3      		ldi r24,lo8(306)
 5031 20be 91E0      		ldi r25,hi8(306)
 5032 20c0 0E94 0000 		call __eerd_word_m32
 5033 20c4 9093 0000 		sts (doliv_porog1)+1,r25
 5034 20c8 8093 0000 		sts doliv_porog1,r24
 5035               	.LM543:
 5036 20cc 84E3      		ldi r24,lo8(308)
 5037 20ce 91E0      		ldi r25,hi8(308)
 5038 20d0 0E94 0000 		call __eerd_word_m32
 5039 20d4 9093 0000 		sts (doliv_porog2)+1,r25
 5040 20d8 8093 0000 		sts doliv_porog2,r24
 5041               	.LM544:
 5042 20dc 86E3      		ldi r24,lo8(310)
 5043 20de 91E0      		ldi r25,hi8(310)
 5044 20e0 0E94 0000 		call __eerd_byte_m32
 5045 20e4 8093 0000 		sts water_lvl_status,r24
 5046               	.LM545:
 5047 20e8 87E3      		ldi r24,lo8(311)
 5048 20ea 91E0      		ldi r25,hi8(311)
 5049 20ec 0E94 0000 		call __eerd_byte_m32
 5050 20f0 8093 0000 		sts co2_status,r24
 5051               	.LM546:
 5052 20f4 88E3      		ldi r24,lo8(312)
 5053 20f6 91E0      		ldi r25,hi8(312)
 5054 20f8 0E94 0000 		call __eerd_byte_m32
 5055 20fc 8093 0000 		sts doliv,r24
 5056               	.LM547:
 5057 2100 89E3      		ldi r24,lo8(313)
 5058 2102 91E0      		ldi r25,hi8(313)
 5059 2104 0E94 0000 		call __eerd_byte_m32
 5060 2108 8093 0000 		sts heater_chanel_status,r24
 5061               	/* epilogue start */
 5062               	.LM548:
 5063 210c DF91      		pop r29
 5064 210e CF91      		pop r28
 5065 2110 1F91      		pop r17
 5066 2112 0F91      		pop r16
 5067 2114 FF90      		pop r15
 5068 2116 EF90      		pop r14
 5069 2118 0895      		ret
 5070               	.LFE53:
 5072               	.global	save_option_eeprom
 5074               	save_option_eeprom:
 5075               	.LFB52:
 5076               	.LM549:
 5077               	/* prologue: function */
 5078               	/* frame size = 0 */
 5079               	.LM550:
 5080 211a 8091 0000 		lds r24,eeprom_count
 5081 211e 8F5F      		subi r24,lo8(-(1))
 5082 2120 8093 0000 		sts eeprom_count,r24
 5083               	.LM551:
 5084 2124 8730      		cpi r24,lo8(7)
 5085 2126 01F4      		brne .+2
 5086 2128 00C0      		rjmp .L252
 5087 212a 8830      		cpi r24,lo8(8)
 5088 212c 00F4      		brsh .L260
 5089 212e 8330      		cpi r24,lo8(3)
 5090 2130 01F4      		brne .+2
 5091 2132 00C0      		rjmp .L248
 5092 2134 8430      		cpi r24,lo8(4)
 5093 2136 00F4      		brsh .L261
 5094 2138 8130      		cpi r24,lo8(1)
 5095 213a 01F0      		breq .L246
 5096 213c 8230      		cpi r24,lo8(2)
 5097 213e 01F0      		breq .+2
 5098 2140 00C0      		rjmp .L263
 5099 2142 00C0      		rjmp .L268
 5100               	.L261:
 5101 2144 8530      		cpi r24,lo8(5)
 5102 2146 01F4      		brne .+2
 5103 2148 00C0      		rjmp .L250
 5104 214a 8630      		cpi r24,lo8(6)
 5105 214c 00F0      		brlo .+2
 5106 214e 00C0      		rjmp .L251
 5107 2150 00C0      		rjmp .L269
 5108               	.L260:
 5109 2152 8B30      		cpi r24,lo8(11)
 5110 2154 01F4      		brne .+2
 5111 2156 00C0      		rjmp .L256
 5112 2158 8C30      		cpi r24,lo8(12)
 5113 215a 00F4      		brsh .L262
 5114 215c 8930      		cpi r24,lo8(9)
 5115 215e 01F4      		brne .+2
 5116 2160 00C0      		rjmp .L254
 5117 2162 8A30      		cpi r24,lo8(10)
 5118 2164 00F0      		brlo .+2
 5119 2166 00C0      		rjmp .L255
 5120 2168 00C0      		rjmp .L270
 5121               	.L262:
 5122 216a 8D30      		cpi r24,lo8(13)
 5123 216c 01F4      		brne .+2
 5124 216e 00C0      		rjmp .L258
 5125 2170 8D30      		cpi r24,lo8(13)
 5126 2172 00F4      		brsh .+2
 5127 2174 00C0      		rjmp .L257
 5128 2176 8E30      		cpi r24,lo8(14)
 5129 2178 01F0      		breq .+2
 5130 217a 00C0      		rjmp .L263
 5131 217c 00C0      		rjmp .L259
 5132               	.L246:
 5133               	.LM552:
 5134 217e 88EE      		ldi r24,lo8(1000)
 5135 2180 93E0      		ldi r25,hi8(1000)
 5136 2182 6DE1      		ldi r22,lo8(29)
 5137 2184 70E0      		ldi r23,hi8(29)
 5138 2186 0E94 0000 		call __eewr_word_m32
 5139               	.LM553:
 5140 218a 4091 0000 		lds r20,k1
 5141 218e 5091 0000 		lds r21,(k1)+1
 5142 2192 6091 0000 		lds r22,(k1)+2
 5143 2196 7091 0000 		lds r23,(k1)+3
 5144 219a 8AE0      		ldi r24,lo8(10)
 5145 219c 90E0      		ldi r25,hi8(10)
 5146 219e 0E94 0000 		call __eewr_dword_m32
 5147               	.LM554:
 5148 21a2 4091 0000 		lds r20,k2
 5149 21a6 5091 0000 		lds r21,(k2)+1
 5150 21aa 6091 0000 		lds r22,(k2)+2
 5151 21ae 7091 0000 		lds r23,(k2)+3
 5152 21b2 8EE0      		ldi r24,lo8(14)
 5153 21b4 90E0      		ldi r25,hi8(14)
 5154 21b6 0E94 0000 		call __eewr_dword_m32
 5155               	.LM555:
 5156 21ba 4091 0000 		lds r20,k
 5157 21be 5091 0000 		lds r21,(k)+1
 5158 21c2 6091 0000 		lds r22,(k)+2
 5159 21c6 7091 0000 		lds r23,(k)+3
 5160 21ca 82E1      		ldi r24,lo8(18)
 5161 21cc 90E0      		ldi r25,hi8(18)
 5162 21ce 0E94 0000 		call __eewr_dword_m32
 5163               	.LM556:
 5164 21d2 86E1      		ldi r24,lo8(22)
 5165 21d4 90E0      		ldi r25,hi8(22)
 5166 21d6 6091 0000 		lds r22,rele_set
 5167 21da 0E94 0000 		call __eewr_byte_m32
 5168               	.LM557:
 5169 21de 87E1      		ldi r24,lo8(23)
 5170 21e0 90E0      		ldi r25,hi8(23)
 5171 21e2 6091 0000 		lds r22,rele_set+1
 5172 21e6 0E94 0000 		call __eewr_byte_m32
 5173               	.LM558:
 5174 21ea 88E1      		ldi r24,lo8(24)
 5175 21ec 90E0      		ldi r25,hi8(24)
 5176 21ee 6091 0000 		lds r22,rele_set+2
 5177 21f2 0E94 0000 		call __eewr_byte_m32
 5178               	.LM559:
 5179 21f6 89E1      		ldi r24,lo8(25)
 5180 21f8 90E0      		ldi r25,hi8(25)
 5181 21fa 6091 0000 		lds r22,rele_set+3
 5182 21fe 0E94 0000 		call __eewr_byte_m32
 5183               	.LM560:
 5184 2202 8AE1      		ldi r24,lo8(26)
 5185 2204 90E0      		ldi r25,hi8(26)
 5186 2206 6091 0000 		lds r22,rele_set+4
 5187 220a 0E94 0000 		call __eewr_byte_m32
 5188               	.LM561:
 5189 220e 8BE1      		ldi r24,lo8(27)
 5190 2210 90E0      		ldi r25,hi8(27)
 5191 2212 6091 0000 		lds r22,rele_set+5
 5192 2216 00C0      		rjmp .L267
 5193               	.L268:
 5194               	.LM562:
 5195 2218 8CE1      		ldi r24,lo8(28)
 5196 221a 90E0      		ldi r25,hi8(28)
 5197 221c 6091 0000 		lds r22,rele_set+6
 5198 2220 0E94 0000 		call __eewr_byte_m32
 5199               	.LM563:
 5200 2224 8DE1      		ldi r24,lo8(29)
 5201 2226 90E0      		ldi r25,hi8(29)
 5202 2228 6091 0000 		lds r22,rele_set+7
 5203 222c 0E94 0000 		call __eewr_byte_m32
 5204               	.LM564:
 5205 2230 8EE1      		ldi r24,lo8(30)
 5206 2232 90E0      		ldi r25,hi8(30)
 5207 2234 6091 0000 		lds r22,cooler_start_pulse
 5208 2238 0E94 0000 		call __eewr_byte_m32
 5209               	.LM565:
 5210 223c 8FE1      		ldi r24,lo8(31)
 5211 223e 90E0      		ldi r25,hi8(31)
 5212 2240 6091 0000 		lds r22,cooler_start_pulse+1
 5213 2244 0E94 0000 		call __eewr_byte_m32
 5214               	.LM566:
 5215 2248 80E2      		ldi r24,lo8(32)
 5216 224a 90E0      		ldi r25,hi8(32)
 5217 224c 6091 0000 		lds r22,cooler_start_pulse+2
 5218 2250 0E94 0000 		call __eewr_byte_m32
 5219               	.LM567:
 5220 2254 81E2      		ldi r24,lo8(33)
 5221 2256 90E0      		ldi r25,hi8(33)
 5222 2258 6091 0000 		lds r22,cooler_start_pulse+3
 5223 225c 0E94 0000 		call __eewr_byte_m32
 5224               	.LM568:
 5225 2260 6091 0000 		lds r22,cooler_data
 5226 2264 7091 0000 		lds r23,(cooler_data)+1
 5227 2268 8091 0000 		lds r24,(cooler_data)+2
 5228 226c 9091 0000 		lds r25,(cooler_data)+3
 5229 2270 0E94 0000 		call __fixunssfsi
 5230 2274 9B01      		movw r18,r22
 5231 2276 AC01      		movw r20,r24
 5232 2278 82E2      		ldi r24,lo8(34)
 5233 227a 90E0      		ldi r25,hi8(34)
 5234 227c 622F      		mov r22,r18
 5235 227e 0E94 0000 		call __eewr_byte_m32
 5236               	.LM569:
 5237 2282 6091 0000 		lds r22,cooler_data+4
 5238 2286 7091 0000 		lds r23,(cooler_data+4)+1
 5239 228a 8091 0000 		lds r24,(cooler_data+4)+2
 5240 228e 9091 0000 		lds r25,(cooler_data+4)+3
 5241 2292 0E94 0000 		call __fixunssfsi
 5242 2296 9B01      		movw r18,r22
 5243 2298 AC01      		movw r20,r24
 5244 229a 83E2      		ldi r24,lo8(35)
 5245 229c 90E0      		ldi r25,hi8(35)
 5246 229e 622F      		mov r22,r18
 5247 22a0 0E94 0000 		call __eewr_byte_m32
 5248               	.LM570:
 5249 22a4 6091 0000 		lds r22,cooler_data+8
 5250 22a8 7091 0000 		lds r23,(cooler_data+8)+1
 5251 22ac 8091 0000 		lds r24,(cooler_data+8)+2
 5252 22b0 9091 0000 		lds r25,(cooler_data+8)+3
 5253 22b4 0E94 0000 		call __fixunssfsi
 5254 22b8 9B01      		movw r18,r22
 5255 22ba AC01      		movw r20,r24
 5256 22bc 84E2      		ldi r24,lo8(36)
 5257 22be 90E0      		ldi r25,hi8(36)
 5258 22c0 622F      		mov r22,r18
 5259 22c2 0E94 0000 		call __eewr_byte_m32
 5260               	.LM571:
 5261 22c6 6091 0000 		lds r22,cooler_data+12
 5262 22ca 7091 0000 		lds r23,(cooler_data+12)+1
 5263 22ce 8091 0000 		lds r24,(cooler_data+12)+2
 5264 22d2 9091 0000 		lds r25,(cooler_data+12)+3
 5265 22d6 0E94 0000 		call __fixunssfsi
 5266 22da 9B01      		movw r18,r22
 5267 22dc AC01      		movw r20,r24
 5268 22de 85E2      		ldi r24,lo8(37)
 5269 22e0 90E0      		ldi r25,hi8(37)
 5270 22e2 622F      		mov r22,r18
 5271 22e4 0E94 0000 		call __eewr_byte_m32
 5272               	.LM572:
 5273 22e8 6091 0000 		lds r22,cooler_min
 5274 22ec 7091 0000 		lds r23,(cooler_min)+1
 5275 22f0 8091 0000 		lds r24,(cooler_min)+2
 5276 22f4 9091 0000 		lds r25,(cooler_min)+3
 5277 22f8 0E94 0000 		call __fixunssfsi
 5278 22fc 9B01      		movw r18,r22
 5279 22fe AC01      		movw r20,r24
 5280 2300 86E2      		ldi r24,lo8(38)
 5281 2302 90E0      		ldi r25,hi8(38)
 5282 2304 622F      		mov r22,r18
 5283 2306 0E94 0000 		call __eewr_byte_m32
 5284               	.LM573:
 5285 230a 87E2      		ldi r24,lo8(39)
 5286 230c 90E0      		ldi r25,hi8(39)
 5287 230e 6091 0000 		lds r22,cooler_chanel_status
 5288 2312 0E94 0000 		call __eewr_byte_m32
 5289               	.LM574:
 5290 2316 6CB7      		in r22,92-32
 5291 2318 88E2      		ldi r24,lo8(40)
 5292 231a 90E0      		ldi r25,hi8(40)
 5293 231c 0E94 0000 		call __eewr_byte_m32
 5294               	.LM575:
 5295 2320 4091 0000 		lds r20,lcd_led_stop
 5296 2324 5091 0000 		lds r21,(lcd_led_stop)+1
 5297 2328 6091 0000 		lds r22,(lcd_led_stop)+2
 5298 232c 7091 0000 		lds r23,(lcd_led_stop)+3
 5299 2330 89E2      		ldi r24,lo8(41)
 5300 2332 90E0      		ldi r25,hi8(41)
 5301 2334 0E94 0000 		call __eewr_dword_m32
 5302               	.LM576:
 5303 2338 4091 0000 		lds r20,lcd_led_start
 5304 233c 5091 0000 		lds r21,(lcd_led_start)+1
 5305 2340 6091 0000 		lds r22,(lcd_led_start)+2
 5306 2344 7091 0000 		lds r23,(lcd_led_start)+3
 5307 2348 8DE2      		ldi r24,lo8(45)
 5308 234a 90E0      		ldi r25,hi8(45)
 5309 234c 00C0      		rjmp .L266
 5310               	.L248:
 5311               	.LM577:
 5312 234e 4091 0000 		lds r20,cooler_stop
 5313 2352 5091 0000 		lds r21,(cooler_stop)+1
 5314 2356 6091 0000 		lds r22,(cooler_stop)+2
 5315 235a 7091 0000 		lds r23,(cooler_stop)+3
 5316 235e 81E3      		ldi r24,lo8(49)
 5317 2360 90E0      		ldi r25,hi8(49)
 5318 2362 0E94 0000 		call __eewr_dword_m32
 5319               	.LM578:
 5320 2366 4091 0000 		lds r20,cooler_start
 5321 236a 5091 0000 		lds r21,(cooler_start)+1
 5322 236e 6091 0000 		lds r22,(cooler_start)+2
 5323 2372 7091 0000 		lds r23,(cooler_start)+3
 5324 2376 85E3      		ldi r24,lo8(53)
 5325 2378 90E0      		ldi r25,hi8(53)
 5326 237a 0E94 0000 		call __eewr_dword_m32
 5327               	.LM579:
 5328 237e 89E3      		ldi r24,lo8(57)
 5329 2380 90E0      		ldi r25,hi8(57)
 5330 2382 6091 0000 		lds r22,temp_control
 5331 2386 0E94 0000 		call __eewr_byte_m32
 5332               	.LM580:
 5333 238a 8AE3      		ldi r24,lo8(58)
 5334 238c 90E0      		ldi r25,hi8(58)
 5335 238e 6091 0000 		lds r22,set_temp_sensor
 5336 2392 0E94 0000 		call __eewr_byte_m32
 5337               	.LM581:
 5338 2396 6091 0000 		lds r22,set_temp
 5339 239a 7091 0000 		lds r23,(set_temp)+1
 5340 239e 8BE3      		ldi r24,lo8(59)
 5341 23a0 90E0      		ldi r25,hi8(59)
 5342 23a2 0E94 0000 		call __eewr_word_m32
 5343               	.LM582:
 5344 23a6 8DE3      		ldi r24,lo8(61)
 5345 23a8 90E0      		ldi r25,hi8(61)
 5346 23aa 6091 0000 		lds r22,set_temp_dec
 5347 23ae 0E94 0000 		call __eewr_byte_m32
 5348               	.LM583:
 5349 23b2 6091 0000 		lds r22,cooler_set
 5350 23b6 7091 0000 		lds r23,(cooler_set)+1
 5351 23ba 8EE3      		ldi r24,lo8(62)
 5352 23bc 90E0      		ldi r25,hi8(62)
 5353 23be 0E94 0000 		call __eewr_word_m32
 5354               	.LM584:
 5355 23c2 80E4      		ldi r24,lo8(64)
 5356 23c4 90E0      		ldi r25,hi8(64)
 5357 23c6 6091 0000 		lds r22,cooler
 5358 23ca 0E94 0000 		call __eewr_byte_m32
 5359               	.LM585:
 5360 23ce 81E4      		ldi r24,lo8(65)
 5361 23d0 90E0      		ldi r25,hi8(65)
 5362 23d2 6091 0000 		lds r22,heater
 5363               	.L267:
 5364 23d6 0E94 0000 		call __eewr_byte_m32
 5365 23da 0895      		ret
 5366               	.L269:
 5367               	.LM586:
 5368 23dc 4091 0000 		lds r20,timer1_start
 5369 23e0 5091 0000 		lds r21,(timer1_start)+1
 5370 23e4 6091 0000 		lds r22,(timer1_start)+2
 5371 23e8 7091 0000 		lds r23,(timer1_start)+3
 5372 23ec 82E4      		ldi r24,lo8(66)
 5373 23ee 90E0      		ldi r25,hi8(66)
 5374 23f0 0E94 0000 		call __eewr_dword_m32
 5375               	.LM587:
 5376 23f4 4091 0000 		lds r20,timer2_start
 5377 23f8 5091 0000 		lds r21,(timer2_start)+1
 5378 23fc 6091 0000 		lds r22,(timer2_start)+2
 5379 2400 7091 0000 		lds r23,(timer2_start)+3
 5380 2404 86E6      		ldi r24,lo8(102)
 5381 2406 90E0      		ldi r25,hi8(102)
 5382 2408 0E94 0000 		call __eewr_dword_m32
 5383               	.LM588:
 5384 240c 4091 0000 		lds r20,timer3_start
 5385 2410 5091 0000 		lds r21,(timer3_start)+1
 5386 2414 6091 0000 		lds r22,(timer3_start)+2
 5387 2418 7091 0000 		lds r23,(timer3_start)+3
 5388 241c 8AE8      		ldi r24,lo8(138)
 5389 241e 90E0      		ldi r25,hi8(138)
 5390 2420 0E94 0000 		call __eewr_dword_m32
 5391               	.LM589:
 5392 2424 4091 0000 		lds r20,timer1_stop
 5393 2428 5091 0000 		lds r21,(timer1_stop)+1
 5394 242c 6091 0000 		lds r22,(timer1_stop)+2
 5395 2430 7091 0000 		lds r23,(timer1_stop)+3
 5396 2434 8EEA      		ldi r24,lo8(174)
 5397 2436 90E0      		ldi r25,hi8(174)
 5398 2438 0E94 0000 		call __eewr_dword_m32
 5399               	.LM590:
 5400 243c 4091 0000 		lds r20,timer2_stop
 5401 2440 5091 0000 		lds r21,(timer2_stop)+1
 5402 2444 6091 0000 		lds r22,(timer2_stop)+2
 5403 2448 7091 0000 		lds r23,(timer2_stop)+3
 5404 244c 82ED      		ldi r24,lo8(210)
 5405 244e 90E0      		ldi r25,hi8(210)
 5406 2450 0E94 0000 		call __eewr_dword_m32
 5407               	.LM591:
 5408 2454 4091 0000 		lds r20,timer3_stop
 5409 2458 5091 0000 		lds r21,(timer3_stop)+1
 5410 245c 6091 0000 		lds r22,(timer3_stop)+2
 5411 2460 7091 0000 		lds r23,(timer3_stop)+3
 5412 2464 86EF      		ldi r24,lo8(246)
 5413 2466 90E0      		ldi r25,hi8(246)
 5414 2468 00C0      		rjmp .L266
 5415               	.L250:
 5416               	.LM592:
 5417 246a 4091 0000 		lds r20,timer1_start+4
 5418 246e 5091 0000 		lds r21,(timer1_start+4)+1
 5419 2472 6091 0000 		lds r22,(timer1_start+4)+2
 5420 2476 7091 0000 		lds r23,(timer1_start+4)+3
 5421 247a 86E4      		ldi r24,lo8(70)
 5422 247c 90E0      		ldi r25,hi8(70)
 5423 247e 0E94 0000 		call __eewr_dword_m32
 5424               	.LM593:
 5425 2482 4091 0000 		lds r20,timer2_start+4
 5426 2486 5091 0000 		lds r21,(timer2_start+4)+1
 5427 248a 6091 0000 		lds r22,(timer2_start+4)+2
 5428 248e 7091 0000 		lds r23,(timer2_start+4)+3
 5429 2492 8AE6      		ldi r24,lo8(106)
 5430 2494 90E0      		ldi r25,hi8(106)
 5431 2496 0E94 0000 		call __eewr_dword_m32
 5432               	.LM594:
 5433 249a 4091 0000 		lds r20,timer3_start+4
 5434 249e 5091 0000 		lds r21,(timer3_start+4)+1
 5435 24a2 6091 0000 		lds r22,(timer3_start+4)+2
 5436 24a6 7091 0000 		lds r23,(timer3_start+4)+3
 5437 24aa 8EE8      		ldi r24,lo8(142)
 5438 24ac 90E0      		ldi r25,hi8(142)
 5439 24ae 0E94 0000 		call __eewr_dword_m32
 5440               	.LM595:
 5441 24b2 4091 0000 		lds r20,timer1_stop+4
 5442 24b6 5091 0000 		lds r21,(timer1_stop+4)+1
 5443 24ba 6091 0000 		lds r22,(timer1_stop+4)+2
 5444 24be 7091 0000 		lds r23,(timer1_stop+4)+3
 5445 24c2 82EB      		ldi r24,lo8(178)
 5446 24c4 90E0      		ldi r25,hi8(178)
 5447 24c6 0E94 0000 		call __eewr_dword_m32
 5448               	.LM596:
 5449 24ca 4091 0000 		lds r20,timer2_stop+4
 5450 24ce 5091 0000 		lds r21,(timer2_stop+4)+1
 5451 24d2 6091 0000 		lds r22,(timer2_stop+4)+2
 5452 24d6 7091 0000 		lds r23,(timer2_stop+4)+3
 5453 24da 86ED      		ldi r24,lo8(214)
 5454 24dc 90E0      		ldi r25,hi8(214)
 5455 24de 0E94 0000 		call __eewr_dword_m32
 5456               	.LM597:
 5457 24e2 4091 0000 		lds r20,timer3_stop+4
 5458 24e6 5091 0000 		lds r21,(timer3_stop+4)+1
 5459 24ea 6091 0000 		lds r22,(timer3_stop+4)+2
 5460 24ee 7091 0000 		lds r23,(timer3_stop+4)+3
 5461 24f2 8AEF      		ldi r24,lo8(250)
 5462 24f4 90E0      		ldi r25,hi8(250)
 5463 24f6 00C0      		rjmp .L266
 5464               	.L251:
 5465               	.LM598:
 5466 24f8 4091 0000 		lds r20,timer1_start+8
 5467 24fc 5091 0000 		lds r21,(timer1_start+8)+1
 5468 2500 6091 0000 		lds r22,(timer1_start+8)+2
 5469 2504 7091 0000 		lds r23,(timer1_start+8)+3
 5470 2508 8AE4      		ldi r24,lo8(74)
 5471 250a 90E0      		ldi r25,hi8(74)
 5472 250c 0E94 0000 		call __eewr_dword_m32
 5473               	.LM599:
 5474 2510 4091 0000 		lds r20,timer2_start+8
 5475 2514 5091 0000 		lds r21,(timer2_start+8)+1
 5476 2518 6091 0000 		lds r22,(timer2_start+8)+2
 5477 251c 7091 0000 		lds r23,(timer2_start+8)+3
 5478 2520 8EE6      		ldi r24,lo8(110)
 5479 2522 90E0      		ldi r25,hi8(110)
 5480 2524 0E94 0000 		call __eewr_dword_m32
 5481               	.LM600:
 5482 2528 4091 0000 		lds r20,timer3_start+8
 5483 252c 5091 0000 		lds r21,(timer3_start+8)+1
 5484 2530 6091 0000 		lds r22,(timer3_start+8)+2
 5485 2534 7091 0000 		lds r23,(timer3_start+8)+3
 5486 2538 82E9      		ldi r24,lo8(146)
 5487 253a 90E0      		ldi r25,hi8(146)
 5488 253c 0E94 0000 		call __eewr_dword_m32
 5489               	.LM601:
 5490 2540 4091 0000 		lds r20,timer1_stop+8
 5491 2544 5091 0000 		lds r21,(timer1_stop+8)+1
 5492 2548 6091 0000 		lds r22,(timer1_stop+8)+2
 5493 254c 7091 0000 		lds r23,(timer1_stop+8)+3
 5494 2550 86EB      		ldi r24,lo8(182)
 5495 2552 90E0      		ldi r25,hi8(182)
 5496 2554 0E94 0000 		call __eewr_dword_m32
 5497               	.LM602:
 5498 2558 4091 0000 		lds r20,timer2_stop+8
 5499 255c 5091 0000 		lds r21,(timer2_stop+8)+1
 5500 2560 6091 0000 		lds r22,(timer2_stop+8)+2
 5501 2564 7091 0000 		lds r23,(timer2_stop+8)+3
 5502 2568 8AED      		ldi r24,lo8(218)
 5503 256a 90E0      		ldi r25,hi8(218)
 5504 256c 0E94 0000 		call __eewr_dword_m32
 5505               	.LM603:
 5506 2570 4091 0000 		lds r20,timer3_stop+8
 5507 2574 5091 0000 		lds r21,(timer3_stop+8)+1
 5508 2578 6091 0000 		lds r22,(timer3_stop+8)+2
 5509 257c 7091 0000 		lds r23,(timer3_stop+8)+3
 5510 2580 8EEF      		ldi r24,lo8(254)
 5511 2582 90E0      		ldi r25,hi8(254)
 5512 2584 00C0      		rjmp .L266
 5513               	.L252:
 5514               	.LM604:
 5515 2586 4091 0000 		lds r20,timer1_start+12
 5516 258a 5091 0000 		lds r21,(timer1_start+12)+1
 5517 258e 6091 0000 		lds r22,(timer1_start+12)+2
 5518 2592 7091 0000 		lds r23,(timer1_start+12)+3
 5519 2596 8EE4      		ldi r24,lo8(78)
 5520 2598 90E0      		ldi r25,hi8(78)
 5521 259a 0E94 0000 		call __eewr_dword_m32
 5522               	.LM605:
 5523 259e 4091 0000 		lds r20,timer2_start+12
 5524 25a2 5091 0000 		lds r21,(timer2_start+12)+1
 5525 25a6 6091 0000 		lds r22,(timer2_start+12)+2
 5526 25aa 7091 0000 		lds r23,(timer2_start+12)+3
 5527 25ae 82E7      		ldi r24,lo8(114)
 5528 25b0 90E0      		ldi r25,hi8(114)
 5529 25b2 0E94 0000 		call __eewr_dword_m32
 5530               	.LM606:
 5531 25b6 4091 0000 		lds r20,timer3_start+12
 5532 25ba 5091 0000 		lds r21,(timer3_start+12)+1
 5533 25be 6091 0000 		lds r22,(timer3_start+12)+2
 5534 25c2 7091 0000 		lds r23,(timer3_start+12)+3
 5535 25c6 86E9      		ldi r24,lo8(150)
 5536 25c8 90E0      		ldi r25,hi8(150)
 5537 25ca 0E94 0000 		call __eewr_dword_m32
 5538               	.LM607:
 5539 25ce 4091 0000 		lds r20,timer1_stop+12
 5540 25d2 5091 0000 		lds r21,(timer1_stop+12)+1
 5541 25d6 6091 0000 		lds r22,(timer1_stop+12)+2
 5542 25da 7091 0000 		lds r23,(timer1_stop+12)+3
 5543 25de 8AEB      		ldi r24,lo8(186)
 5544 25e0 90E0      		ldi r25,hi8(186)
 5545 25e2 0E94 0000 		call __eewr_dword_m32
 5546               	.LM608:
 5547 25e6 4091 0000 		lds r20,timer2_stop+12
 5548 25ea 5091 0000 		lds r21,(timer2_stop+12)+1
 5549 25ee 6091 0000 		lds r22,(timer2_stop+12)+2
 5550 25f2 7091 0000 		lds r23,(timer2_stop+12)+3
 5551 25f6 8EED      		ldi r24,lo8(222)
 5552 25f8 90E0      		ldi r25,hi8(222)
 5553 25fa 0E94 0000 		call __eewr_dword_m32
 5554               	.LM609:
 5555 25fe 4091 0000 		lds r20,timer3_stop+12
 5556 2602 5091 0000 		lds r21,(timer3_stop+12)+1
 5557 2606 6091 0000 		lds r22,(timer3_stop+12)+2
 5558 260a 7091 0000 		lds r23,(timer3_stop+12)+3
 5559 260e 82E0      		ldi r24,lo8(258)
 5560 2610 91E0      		ldi r25,hi8(258)
 5561 2612 00C0      		rjmp .L266
 5562               	.L270:
 5563               	.LM610:
 5564 2614 4091 0000 		lds r20,timer1_start+16
 5565 2618 5091 0000 		lds r21,(timer1_start+16)+1
 5566 261c 6091 0000 		lds r22,(timer1_start+16)+2
 5567 2620 7091 0000 		lds r23,(timer1_start+16)+3
 5568 2624 82E5      		ldi r24,lo8(82)
 5569 2626 90E0      		ldi r25,hi8(82)
 5570 2628 0E94 0000 		call __eewr_dword_m32
 5571               	.LM611:
 5572 262c 4091 0000 		lds r20,timer2_start+16
 5573 2630 5091 0000 		lds r21,(timer2_start+16)+1
 5574 2634 6091 0000 		lds r22,(timer2_start+16)+2
 5575 2638 7091 0000 		lds r23,(timer2_start+16)+3
 5576 263c 86E7      		ldi r24,lo8(118)
 5577 263e 90E0      		ldi r25,hi8(118)
 5578 2640 0E94 0000 		call __eewr_dword_m32
 5579               	.LM612:
 5580 2644 4091 0000 		lds r20,timer3_start+16
 5581 2648 5091 0000 		lds r21,(timer3_start+16)+1
 5582 264c 6091 0000 		lds r22,(timer3_start+16)+2
 5583 2650 7091 0000 		lds r23,(timer3_start+16)+3
 5584 2654 8AE9      		ldi r24,lo8(154)
 5585 2656 90E0      		ldi r25,hi8(154)
 5586 2658 0E94 0000 		call __eewr_dword_m32
 5587               	.LM613:
 5588 265c 4091 0000 		lds r20,timer1_stop+16
 5589 2660 5091 0000 		lds r21,(timer1_stop+16)+1
 5590 2664 6091 0000 		lds r22,(timer1_stop+16)+2
 5591 2668 7091 0000 		lds r23,(timer1_stop+16)+3
 5592 266c 8EEB      		ldi r24,lo8(190)
 5593 266e 90E0      		ldi r25,hi8(190)
 5594 2670 0E94 0000 		call __eewr_dword_m32
 5595               	.LM614:
 5596 2674 4091 0000 		lds r20,timer2_stop+16
 5597 2678 5091 0000 		lds r21,(timer2_stop+16)+1
 5598 267c 6091 0000 		lds r22,(timer2_stop+16)+2
 5599 2680 7091 0000 		lds r23,(timer2_stop+16)+3
 5600 2684 82EE      		ldi r24,lo8(226)
 5601 2686 90E0      		ldi r25,hi8(226)
 5602 2688 0E94 0000 		call __eewr_dword_m32
 5603               	.LM615:
 5604 268c 4091 0000 		lds r20,timer3_stop+16
 5605 2690 5091 0000 		lds r21,(timer3_stop+16)+1
 5606 2694 6091 0000 		lds r22,(timer3_stop+16)+2
 5607 2698 7091 0000 		lds r23,(timer3_stop+16)+3
 5608 269c 86E0      		ldi r24,lo8(262)
 5609 269e 91E0      		ldi r25,hi8(262)
 5610 26a0 00C0      		rjmp .L266
 5611               	.L254:
 5612               	.LM616:
 5613 26a2 4091 0000 		lds r20,timer1_start+20
 5614 26a6 5091 0000 		lds r21,(timer1_start+20)+1
 5615 26aa 6091 0000 		lds r22,(timer1_start+20)+2
 5616 26ae 7091 0000 		lds r23,(timer1_start+20)+3
 5617 26b2 86E5      		ldi r24,lo8(86)
 5618 26b4 90E0      		ldi r25,hi8(86)
 5619 26b6 0E94 0000 		call __eewr_dword_m32
 5620               	.LM617:
 5621 26ba 4091 0000 		lds r20,timer2_start+20
 5622 26be 5091 0000 		lds r21,(timer2_start+20)+1
 5623 26c2 6091 0000 		lds r22,(timer2_start+20)+2
 5624 26c6 7091 0000 		lds r23,(timer2_start+20)+3
 5625 26ca 8AE7      		ldi r24,lo8(122)
 5626 26cc 90E0      		ldi r25,hi8(122)
 5627 26ce 0E94 0000 		call __eewr_dword_m32
 5628               	.LM618:
 5629 26d2 4091 0000 		lds r20,timer3_start+20
 5630 26d6 5091 0000 		lds r21,(timer3_start+20)+1
 5631 26da 6091 0000 		lds r22,(timer3_start+20)+2
 5632 26de 7091 0000 		lds r23,(timer3_start+20)+3
 5633 26e2 8EE9      		ldi r24,lo8(158)
 5634 26e4 90E0      		ldi r25,hi8(158)
 5635 26e6 0E94 0000 		call __eewr_dword_m32
 5636               	.LM619:
 5637 26ea 4091 0000 		lds r20,timer1_stop+20
 5638 26ee 5091 0000 		lds r21,(timer1_stop+20)+1
 5639 26f2 6091 0000 		lds r22,(timer1_stop+20)+2
 5640 26f6 7091 0000 		lds r23,(timer1_stop+20)+3
 5641 26fa 82EC      		ldi r24,lo8(194)
 5642 26fc 90E0      		ldi r25,hi8(194)
 5643 26fe 0E94 0000 		call __eewr_dword_m32
 5644               	.LM620:
 5645 2702 4091 0000 		lds r20,timer2_stop+20
 5646 2706 5091 0000 		lds r21,(timer2_stop+20)+1
 5647 270a 6091 0000 		lds r22,(timer2_stop+20)+2
 5648 270e 7091 0000 		lds r23,(timer2_stop+20)+3
 5649 2712 86EE      		ldi r24,lo8(230)
 5650 2714 90E0      		ldi r25,hi8(230)
 5651 2716 0E94 0000 		call __eewr_dword_m32
 5652               	.LM621:
 5653 271a 4091 0000 		lds r20,timer3_stop+20
 5654 271e 5091 0000 		lds r21,(timer3_stop+20)+1
 5655 2722 6091 0000 		lds r22,(timer3_stop+20)+2
 5656 2726 7091 0000 		lds r23,(timer3_stop+20)+3
 5657 272a 8AE0      		ldi r24,lo8(266)
 5658 272c 91E0      		ldi r25,hi8(266)
 5659 272e 00C0      		rjmp .L266
 5660               	.L255:
 5661               	.LM622:
 5662 2730 4091 0000 		lds r20,timer1_start+24
 5663 2734 5091 0000 		lds r21,(timer1_start+24)+1
 5664 2738 6091 0000 		lds r22,(timer1_start+24)+2
 5665 273c 7091 0000 		lds r23,(timer1_start+24)+3
 5666 2740 8AE5      		ldi r24,lo8(90)
 5667 2742 90E0      		ldi r25,hi8(90)
 5668 2744 0E94 0000 		call __eewr_dword_m32
 5669               	.LM623:
 5670 2748 4091 0000 		lds r20,timer2_start+24
 5671 274c 5091 0000 		lds r21,(timer2_start+24)+1
 5672 2750 6091 0000 		lds r22,(timer2_start+24)+2
 5673 2754 7091 0000 		lds r23,(timer2_start+24)+3
 5674 2758 8EE7      		ldi r24,lo8(126)
 5675 275a 90E0      		ldi r25,hi8(126)
 5676 275c 0E94 0000 		call __eewr_dword_m32
 5677               	.LM624:
 5678 2760 4091 0000 		lds r20,timer3_start+24
 5679 2764 5091 0000 		lds r21,(timer3_start+24)+1
 5680 2768 6091 0000 		lds r22,(timer3_start+24)+2
 5681 276c 7091 0000 		lds r23,(timer3_start+24)+3
 5682 2770 82EA      		ldi r24,lo8(162)
 5683 2772 90E0      		ldi r25,hi8(162)
 5684 2774 0E94 0000 		call __eewr_dword_m32
 5685               	.LM625:
 5686 2778 4091 0000 		lds r20,timer1_stop+24
 5687 277c 5091 0000 		lds r21,(timer1_stop+24)+1
 5688 2780 6091 0000 		lds r22,(timer1_stop+24)+2
 5689 2784 7091 0000 		lds r23,(timer1_stop+24)+3
 5690 2788 86EC      		ldi r24,lo8(198)
 5691 278a 90E0      		ldi r25,hi8(198)
 5692 278c 0E94 0000 		call __eewr_dword_m32
 5693               	.LM626:
 5694 2790 4091 0000 		lds r20,timer2_stop+24
 5695 2794 5091 0000 		lds r21,(timer2_stop+24)+1
 5696 2798 6091 0000 		lds r22,(timer2_stop+24)+2
 5697 279c 7091 0000 		lds r23,(timer2_stop+24)+3
 5698 27a0 8AEE      		ldi r24,lo8(234)
 5699 27a2 90E0      		ldi r25,hi8(234)
 5700 27a4 0E94 0000 		call __eewr_dword_m32
 5701               	.LM627:
 5702 27a8 4091 0000 		lds r20,timer3_stop+24
 5703 27ac 5091 0000 		lds r21,(timer3_stop+24)+1
 5704 27b0 6091 0000 		lds r22,(timer3_stop+24)+2
 5705 27b4 7091 0000 		lds r23,(timer3_stop+24)+3
 5706 27b8 8EE0      		ldi r24,lo8(270)
 5707 27ba 91E0      		ldi r25,hi8(270)
 5708 27bc 00C0      		rjmp .L266
 5709               	.L256:
 5710               	.LM628:
 5711 27be 4091 0000 		lds r20,timer1_start+28
 5712 27c2 5091 0000 		lds r21,(timer1_start+28)+1
 5713 27c6 6091 0000 		lds r22,(timer1_start+28)+2
 5714 27ca 7091 0000 		lds r23,(timer1_start+28)+3
 5715 27ce 8EE5      		ldi r24,lo8(94)
 5716 27d0 90E0      		ldi r25,hi8(94)
 5717 27d2 0E94 0000 		call __eewr_dword_m32
 5718               	.LM629:
 5719 27d6 4091 0000 		lds r20,timer2_start+28
 5720 27da 5091 0000 		lds r21,(timer2_start+28)+1
 5721 27de 6091 0000 		lds r22,(timer2_start+28)+2
 5722 27e2 7091 0000 		lds r23,(timer2_start+28)+3
 5723 27e6 82E8      		ldi r24,lo8(130)
 5724 27e8 90E0      		ldi r25,hi8(130)
 5725 27ea 0E94 0000 		call __eewr_dword_m32
 5726               	.LM630:
 5727 27ee 4091 0000 		lds r20,timer3_start+28
 5728 27f2 5091 0000 		lds r21,(timer3_start+28)+1
 5729 27f6 6091 0000 		lds r22,(timer3_start+28)+2
 5730 27fa 7091 0000 		lds r23,(timer3_start+28)+3
 5731 27fe 86EA      		ldi r24,lo8(166)
 5732 2800 90E0      		ldi r25,hi8(166)
 5733 2802 0E94 0000 		call __eewr_dword_m32
 5734               	.LM631:
 5735 2806 4091 0000 		lds r20,timer1_stop+28
 5736 280a 5091 0000 		lds r21,(timer1_stop+28)+1
 5737 280e 6091 0000 		lds r22,(timer1_stop+28)+2
 5738 2812 7091 0000 		lds r23,(timer1_stop+28)+3
 5739 2816 8AEC      		ldi r24,lo8(202)
 5740 2818 90E0      		ldi r25,hi8(202)
 5741 281a 0E94 0000 		call __eewr_dword_m32
 5742               	.LM632:
 5743 281e 4091 0000 		lds r20,timer2_stop+28
 5744 2822 5091 0000 		lds r21,(timer2_stop+28)+1
 5745 2826 6091 0000 		lds r22,(timer2_stop+28)+2
 5746 282a 7091 0000 		lds r23,(timer2_stop+28)+3
 5747 282e 8EEE      		ldi r24,lo8(238)
 5748 2830 90E0      		ldi r25,hi8(238)
 5749 2832 0E94 0000 		call __eewr_dword_m32
 5750               	.LM633:
 5751 2836 4091 0000 		lds r20,timer3_stop+28
 5752 283a 5091 0000 		lds r21,(timer3_stop+28)+1
 5753 283e 6091 0000 		lds r22,(timer3_stop+28)+2
 5754 2842 7091 0000 		lds r23,(timer3_stop+28)+3
 5755 2846 82E1      		ldi r24,lo8(274)
 5756 2848 91E0      		ldi r25,hi8(274)
 5757 284a 00C0      		rjmp .L266
 5758               	.L257:
 5759               	.LM634:
 5760 284c 4091 0000 		lds r20,timer1_start+32
 5761 2850 5091 0000 		lds r21,(timer1_start+32)+1
 5762 2854 6091 0000 		lds r22,(timer1_start+32)+2
 5763 2858 7091 0000 		lds r23,(timer1_start+32)+3
 5764 285c 82E6      		ldi r24,lo8(98)
 5765 285e 90E0      		ldi r25,hi8(98)
 5766 2860 0E94 0000 		call __eewr_dword_m32
 5767               	.LM635:
 5768 2864 4091 0000 		lds r20,timer2_start+32
 5769 2868 5091 0000 		lds r21,(timer2_start+32)+1
 5770 286c 6091 0000 		lds r22,(timer2_start+32)+2
 5771 2870 7091 0000 		lds r23,(timer2_start+32)+3
 5772 2874 86E8      		ldi r24,lo8(134)
 5773 2876 90E0      		ldi r25,hi8(134)
 5774 2878 0E94 0000 		call __eewr_dword_m32
 5775               	.LM636:
 5776 287c 4091 0000 		lds r20,timer3_start+32
 5777 2880 5091 0000 		lds r21,(timer3_start+32)+1
 5778 2884 6091 0000 		lds r22,(timer3_start+32)+2
 5779 2888 7091 0000 		lds r23,(timer3_start+32)+3
 5780 288c 8AEA      		ldi r24,lo8(170)
 5781 288e 90E0      		ldi r25,hi8(170)
 5782 2890 0E94 0000 		call __eewr_dword_m32
 5783               	.LM637:
 5784 2894 4091 0000 		lds r20,timer1_stop+32
 5785 2898 5091 0000 		lds r21,(timer1_stop+32)+1
 5786 289c 6091 0000 		lds r22,(timer1_stop+32)+2
 5787 28a0 7091 0000 		lds r23,(timer1_stop+32)+3
 5788 28a4 8EEC      		ldi r24,lo8(206)
 5789 28a6 90E0      		ldi r25,hi8(206)
 5790 28a8 0E94 0000 		call __eewr_dword_m32
 5791               	.LM638:
 5792 28ac 4091 0000 		lds r20,timer2_stop+32
 5793 28b0 5091 0000 		lds r21,(timer2_stop+32)+1
 5794 28b4 6091 0000 		lds r22,(timer2_stop+32)+2
 5795 28b8 7091 0000 		lds r23,(timer2_stop+32)+3
 5796 28bc 82EF      		ldi r24,lo8(242)
 5797 28be 90E0      		ldi r25,hi8(242)
 5798 28c0 0E94 0000 		call __eewr_dword_m32
 5799               	.LM639:
 5800 28c4 4091 0000 		lds r20,timer3_stop+32
 5801 28c8 5091 0000 		lds r21,(timer3_stop+32)+1
 5802 28cc 6091 0000 		lds r22,(timer3_stop+32)+2
 5803 28d0 7091 0000 		lds r23,(timer3_stop+32)+3
 5804 28d4 86E1      		ldi r24,lo8(278)
 5805 28d6 91E0      		ldi r25,hi8(278)
 5806               	.L266:
 5807 28d8 0E94 0000 		call __eewr_dword_m32
 5808 28dc 0895      		ret
 5809               	.L258:
 5810               	.LM640:
 5811 28de 8AE1      		ldi r24,lo8(282)
 5812 28e0 91E0      		ldi r25,hi8(282)
 5813 28e2 6091 0000 		lds r22,produv
 5814 28e6 0E94 0000 		call __eewr_byte_m32
 5815               	.LM641:
 5816 28ea 4091 0000 		lds r20,timer_produv_time
 5817 28ee 5091 0000 		lds r21,(timer_produv_time)+1
 5818 28f2 6091 0000 		lds r22,(timer_produv_time)+2
 5819 28f6 7091 0000 		lds r23,(timer_produv_time)+3
 5820 28fa 8BE1      		ldi r24,lo8(283)
 5821 28fc 91E0      		ldi r25,hi8(283)
 5822 28fe 0E94 0000 		call __eewr_dword_m32
 5823               	.LM642:
 5824 2902 6091 0000 		lds r22,timer_produv_period
 5825 2906 8FE1      		ldi r24,lo8(287)
 5826 2908 91E0      		ldi r25,hi8(287)
 5827 290a 0E94 0000 		call __eewr_byte_m32
 5828               	.LM643:
 5829 290e 80E2      		ldi r24,lo8(288)
 5830 2910 91E0      		ldi r25,hi8(288)
 5831 2912 6091 0000 		lds r22,co2
 5832 2916 0E94 0000 		call __eewr_byte_m32
 5833               	.LM644:
 5834 291a 6091 0000 		lds r22,ph_high
 5835 291e 7091 0000 		lds r23,(ph_high)+1
 5836 2922 81E2      		ldi r24,lo8(289)
 5837 2924 91E0      		ldi r25,hi8(289)
 5838 2926 0E94 0000 		call __eewr_word_m32
 5839               	.LM645:
 5840 292a 6091 0000 		lds r22,ph_low
 5841 292e 7091 0000 		lds r23,(ph_low)+1
 5842 2932 83E2      		ldi r24,lo8(291)
 5843 2934 91E0      		ldi r25,hi8(291)
 5844 2936 0E94 0000 		call __eewr_word_m32
 5845               	.LM646:
 5846 293a 4091 0000 		lds r20,co2_stop
 5847 293e 5091 0000 		lds r21,(co2_stop)+1
 5848 2942 6091 0000 		lds r22,(co2_stop)+2
 5849 2946 7091 0000 		lds r23,(co2_stop)+3
 5850 294a 85E2      		ldi r24,lo8(293)
 5851 294c 91E0      		ldi r25,hi8(293)
 5852 294e 0E94 0000 		call __eewr_dword_m32
 5853               	.LM647:
 5854 2952 4091 0000 		lds r20,co2_start
 5855 2956 5091 0000 		lds r21,(co2_start)+1
 5856 295a 6091 0000 		lds r22,(co2_start)+2
 5857 295e 7091 0000 		lds r23,(co2_start)+3
 5858 2962 89E2      		ldi r24,lo8(297)
 5859 2964 91E0      		ldi r25,hi8(297)
 5860 2966 0E94 0000 		call __eewr_dword_m32
 5861               	.LM648:
 5862 296a 8DE2      		ldi r24,lo8(301)
 5863 296c 91E0      		ldi r25,hi8(301)
 5864 296e 6091 0000 		lds r22,heater_timer_status
 5865 2972 0E94 0000 		call __eewr_byte_m32
 5866               	.L259:
 5867               	.LM649:
 5868 2976 8EE2      		ldi r24,lo8(302)
 5869 2978 91E0      		ldi r25,hi8(302)
 5870 297a 6091 0000 		lds r22,co2_timer_status
 5871 297e 0E94 0000 		call __eewr_byte_m32
 5872               	.LM650:
 5873 2982 8FE2      		ldi r24,lo8(303)
 5874 2984 91E0      		ldi r25,hi8(303)
 5875 2986 6091 0000 		lds r22,co2_set
 5876 298a 0E94 0000 		call __eewr_byte_m32
 5877               	.LM651:
 5878 298e 6091 0000 		lds r22,water_lvl
 5879 2992 7091 0000 		lds r23,(water_lvl)+1
 5880 2996 80E3      		ldi r24,lo8(304)
 5881 2998 91E0      		ldi r25,hi8(304)
 5882 299a 0E94 0000 		call __eewr_word_m32
 5883               	.LM652:
 5884 299e 6091 0000 		lds r22,doliv_porog1
 5885 29a2 7091 0000 		lds r23,(doliv_porog1)+1
 5886 29a6 82E3      		ldi r24,lo8(306)
 5887 29a8 91E0      		ldi r25,hi8(306)
 5888 29aa 0E94 0000 		call __eewr_word_m32
 5889               	.LM653:
 5890 29ae 6091 0000 		lds r22,doliv_porog2
 5891 29b2 7091 0000 		lds r23,(doliv_porog2)+1
 5892 29b6 84E3      		ldi r24,lo8(308)
 5893 29b8 91E0      		ldi r25,hi8(308)
 5894 29ba 0E94 0000 		call __eewr_word_m32
 5895               	.LM654:
 5896 29be 86E3      		ldi r24,lo8(310)
 5897 29c0 91E0      		ldi r25,hi8(310)
 5898 29c2 6091 0000 		lds r22,water_lvl_status
 5899 29c6 0E94 0000 		call __eewr_byte_m32
 5900               	.LM655:
 5901 29ca 87E3      		ldi r24,lo8(311)
 5902 29cc 91E0      		ldi r25,hi8(311)
 5903 29ce 6091 0000 		lds r22,co2_status
 5904 29d2 0E94 0000 		call __eewr_byte_m32
 5905               	.LM656:
 5906 29d6 88E3      		ldi r24,lo8(312)
 5907 29d8 91E0      		ldi r25,hi8(312)
 5908 29da 6091 0000 		lds r22,doliv
 5909 29de 0E94 0000 		call __eewr_byte_m32
 5910               	.LM657:
 5911 29e2 89E3      		ldi r24,lo8(313)
 5912 29e4 91E0      		ldi r25,hi8(313)
 5913 29e6 6091 0000 		lds r22,heater_chanel_status
 5914 29ea 0E94 0000 		call __eewr_byte_m32
 5915               	.LM658:
 5916 29ee 1092 0000 		sts EEPROM_WRITE,__zero_reg__
 5917               	.L263:
 5918 29f2 0895      		ret
 5919               	.LFE52:
 5921               	.global	main
 5923               	main:
 5924               	.LFB50:
 5925               	.LM659:
 5926 29f4 2F92      		push r2
 5927 29f6 3F92      		push r3
 5928 29f8 4F92      		push r4
 5929 29fa 5F92      		push r5
 5930 29fc 6F92      		push r6
 5931 29fe 7F92      		push r7
 5932 2a00 8F92      		push r8
 5933 2a02 9F92      		push r9
 5934 2a04 AF92      		push r10
 5935 2a06 BF92      		push r11
 5936 2a08 CF92      		push r12
 5937 2a0a DF92      		push r13
 5938 2a0c EF92      		push r14
 5939 2a0e FF92      		push r15
 5940 2a10 0F93      		push r16
 5941 2a12 1F93      		push r17
 5942 2a14 DF93      		push r29
 5943 2a16 CF93      		push r28
 5944 2a18 CDB7      		in r28,__SP_L__
 5945 2a1a DEB7      		in r29,__SP_H__
 5946 2a1c 6B97      		sbiw r28,27
 5947 2a1e 0FB6      		in __tmp_reg__,__SREG__
 5948 2a20 F894      		cli
 5949 2a22 DEBF      		out __SP_H__,r29
 5950 2a24 0FBE      		out __SREG__,__tmp_reg__
 5951 2a26 CDBF      		out __SP_L__,r28
 5952               	/* prologue: function */
 5953               	/* frame size = 27 */
 5954               	.LM660:
 5955 2a28 1B82      		std Y+3,__zero_reg__
 5956 2a2a 1A82      		std Y+2,__zero_reg__
 5957               	.LVL135:
 5958 2a2c 1D82      		std Y+5,__zero_reg__
 5959 2a2e 1C82      		std Y+4,__zero_reg__
 5960               	.LVL136:
 5961               	.LM661:
 5962 2a30 1982      		std Y+1,__zero_reg__
 5963               	.LVL137:
 5964               	.LBB291:
 5965               	.LBB292:
 5966               	.LM662:
 5967               	/* #APP */
 5968               	 ;  188 "main.c" 1
 5969 2a32 F894      		cli
 5970               	 ;  0 "" 2
 5971               	.LM663:
 5972               	/* #NOAPP */
 5973 2a34 8AB3      		in r24,58-32
 5974 2a36 806F      		ori r24,lo8(-16)
 5975 2a38 8ABB      		out 58-32,r24
 5976               	.LM664:
 5977 2a3a 84B3      		in r24,52-32
 5978 2a3c 806C      		ori r24,lo8(-64)
 5979 2a3e 84BB      		out 52-32,r24
 5980               	.LM665:
 5981 2a40 8AB3      		in r24,58-32
 5982 2a42 887F      		andi r24,lo8(-8)
 5983 2a44 8ABB      		out 58-32,r24
 5984               	.LM666:
 5985 2a46 80E4      		ldi r24,lo8(64)
 5986 2a48 87B9      		out 39-32,r24
 5987               	.LM667:
 5988 2a4a 83EA      		ldi r24,lo8(-93)
 5989 2a4c 86B9      		out 38-32,r24
 5990               	.LM668:
 5991 2a4e 369A      		sbi 38-32,6
 5992               	.LM669:
 5993 2a50 81B3      		in r24,49-32
 5994 2a52 806F      		ori r24,lo8(-16)
 5995 2a54 81BB      		out 49-32,r24
 5996               	.LM670:
 5997 2a56 84B3      		in r24,52-32
 5998 2a58 8F60      		ori r24,lo8(15)
 5999 2a5a 84BB      		out 52-32,r24
 6000               	.LM671:
 6001 2a5c 82B3      		in r24,50-32
 6002 2a5e 8F70      		andi r24,lo8(15)
 6003 2a60 82BB      		out 50-32,r24
 6004               	.LM672:
 6005 2a62 85B3      		in r24,53-32
 6006 2a64 807F      		andi r24,lo8(-16)
 6007 2a66 85BB      		out 53-32,r24
 6008               	.LM673:
 6009 2a68 A59A      		sbi 52-32,5
 6010               	.LM674:
 6011 2a6a A49A      		sbi 52-32,4
 6012               	.LM675:
 6013 2a6c AD9A      		sbi 53-32,5
 6014               	.LM676:
 6015 2a6e AC98      		cbi 53-32,4
 6016               	.LM677:
 6017 2a70 D39A      		sbi 58-32,3
 6018               	.LM678:
 6019 2a72 DB98      		cbi 59-32,3
 6020               	.LM679:
 6021 2a74 DB9A      		sbi 59-32,3
 6022               	.LBB293:
 6023               	.LBB294:
 6024               	.LBB295:
 6025               	.LBB296:
 6026               	.LBB297:
 6027               	.LBB298:
 6028               	.LM680:
 6029 2a76 84E1      		ldi r24,lo8(276)
 6030 2a78 91E0      		ldi r25,hi8(276)
 6031               	.LVL138:
 6032               	/* #APP */
 6033               	 ;  105 "c:/winavr-20100110/lib/gcc/../../avr/include/util/delay_basic.h" 1
 6034 2a7a 0197      		1: sbiw r24,1
 6035 2a7c 01F4      		brne 1b
 6036               	 ;  0 "" 2
 6037               	/* #NOAPP */
 6038               	.LBE298:
 6039               	.LBE297:
 6040               	.LBE296:
 6041               	.LBE295:
 6042               	.LBE294:
 6043               	.LBE293:
 6044               	.LM681:
 6045 2a7e DB98      		cbi 59-32,3
 6046               	.LM682:
 6047 2a80 BB9A      		sbi 55-32,3
 6048 2a82 88EE      		ldi r24,lo8(1000)
 6049 2a84 93E0      		ldi r25,hi8(1000)
 6050               	.LVL139:
 6051               	.LBB299:
 6052               	.LBB300:
 6053               	.LBB301:
 6054               	.LBB302:
 6055               	.LM683:
 6056 2a86 24E1      		ldi r18,lo8(276)
 6057 2a88 31E0      		ldi r19,hi8(276)
 6058               	.L272:
 6059 2a8a F901      		movw r30,r18
 6060               	.LVL140:
 6061               	/* #APP */
 6062               	 ;  105 "c:/winavr-20100110/lib/gcc/../../avr/include/util/delay_basic.h" 1
 6063 2a8c 3197      		1: sbiw r30,1
 6064 2a8e 01F4      		brne 1b
 6065               	 ;  0 "" 2
 6066               	/* #NOAPP */
 6067               	.LBE302:
 6068               	.LBE301:
 6069               	.LM684:
 6070 2a90 0197      		sbiw r24,1
 6071               	.LM685:
 6072 2a92 01F4      		brne .L272
 6073               	.LBE300:
 6074               	.LBE299:
 6075               	.LM686:
 6076 2a94 0E94 0000 		call init_LCD
 6077               	.LVL141:
 6078               	.LM687:
 6079 2a98 80E4      		ldi r24,lo8(64)
 6080 2a9a 89BF      		out 89-32,r24
 6081               	.LM688:
 6082 2a9c 82E0      		ldi r24,lo8(2)
 6083 2a9e 85BD      		out 69-32,r24
 6084               	.LM689:
 6085 2aa0 8AE6      		ldi r24,lo8(106)
 6086 2aa2 83BF      		out 83-32,r24
 6087               	.LM690:
 6088 2aa4 1CBE      		out 92-32,__zero_reg__
 6089               	.LM691:
 6090 2aa6 12BE      		out 82-32,__zero_reg__
 6091               	.LM692:
 6092 2aa8 8FE1      		ldi r24,lo8(31)
 6093 2aaa 84BD      		out 68-32,r24
 6094               	.LM693:
 6095               	/* #APP */
 6096               	 ;  229 "main.c" 1
 6097 2aac 7894      		sei
 6098               	 ;  0 "" 2
 6099               	/* #NOAPP */
 6100               	.LBE292:
 6101               	.LBE291:
 6102               	.LM694:
 6103 2aae 0E94 0000 		call usart_init
 6104               	.LM695:
 6105 2ab2 0E94 0000 		call DS1307_init
 6106               	.LM696:
 6107 2ab6 1092 0000 		sts temp_req,__zero_reg__
 6108               	.LM697:
 6109 2aba 88EE      		ldi r24,lo8(1000)
 6110 2abc 93E0      		ldi r25,hi8(1000)
 6111 2abe 0E94 0000 		call __eerd_word_m32
 6112 2ac2 4D97      		sbiw r24,29
 6113 2ac4 01F4      		brne .L273
 6114               	.LM698:
 6115 2ac6 0E94 0000 		call load_option_eeprom
 6116               	.L273:
 6117               	.LM699:
 6118 2aca 8091 0000 		lds r24,cooler_start_pulse
 6119 2ace 8823      		tst r24
 6120 2ad0 01F0      		breq .L274
 6121 2ad2 81E0      		ldi r24,lo8(1)
 6122 2ad4 8093 0000 		sts cooler_hand_start,r24
 6123 2ad8 00C0      		rjmp .L275
 6124               	.L274:
 6125               	.LM700:
 6126 2ada 1092 0000 		sts cooler_hand_start,__zero_reg__
 6127               	.L275:
 6128               	.LM701:
 6129 2ade 1092 0000 		sts cooler_start_pulse+1,__zero_reg__
 6130               	.LM702:
 6131 2ae2 1092 0000 		sts cooler_start_pulse+2,__zero_reg__
 6132               	.LM703:
 6133 2ae6 1092 0000 		sts cooler_start_pulse+3,__zero_reg__
 6134               	.LVL142:
 6135               	.L482:
 6136               	.LM704:
 6137 2aea 8091 0000 		lds r24,FlagsFastCount
 6138 2aee 9091 0000 		lds r25,(FlagsFastCount)+1
 6139 2af2 87FF      		sbrs r24,7
 6140 2af4 00C0      		rjmp .L276
 6141               	.LM705:
 6142 2af6 8091 0000 		lds r24,string_to_print
 6143 2afa 8F5F      		subi r24,lo8(-(1))
 6144 2afc 8093 0000 		sts string_to_print,r24
 6145               	.LM706:
 6146 2b00 8230      		cpi r24,lo8(2)
 6147 2b02 01F0      		breq .L279
 6148 2b04 8330      		cpi r24,lo8(3)
 6149 2b06 00F4      		brsh .L282
 6150 2b08 8130      		cpi r24,lo8(1)
 6151 2b0a 01F4      		brne .L277
 6152 2b0c 00C0      		rjmp .L505
 6153               	.L282:
 6154 2b0e 8330      		cpi r24,lo8(3)
 6155 2b10 01F0      		breq .L280
 6156 2b12 8430      		cpi r24,lo8(4)
 6157 2b14 01F4      		brne .L277
 6158 2b16 00C0      		rjmp .L506
 6159               	.L505:
 6160               	.LM707:
 6161 2b18 81E0      		ldi r24,lo8(1)
 6162 2b1a 60E0      		ldi r22,lo8(0)
 6163 2b1c 40E0      		ldi r20,lo8(string_1)
 6164 2b1e 50E0      		ldi r21,hi8(string_1)
 6165 2b20 00C0      		rjmp .L483
 6166               	.L279:
 6167               	.LM708:
 6168 2b22 82E0      		ldi r24,lo8(2)
 6169 2b24 60E0      		ldi r22,lo8(0)
 6170 2b26 40E0      		ldi r20,lo8(string_2)
 6171 2b28 50E0      		ldi r21,hi8(string_2)
 6172               	.L483:
 6173 2b2a 0E94 0000 		call string_to_LCD
 6174 2b2e 00C0      		rjmp .L277
 6175               	.L280:
 6176               	.LM709:
 6177 2b30 83E0      		ldi r24,lo8(3)
 6178 2b32 60E0      		ldi r22,lo8(0)
 6179 2b34 40E0      		ldi r20,lo8(string_3)
 6180 2b36 50E0      		ldi r21,hi8(string_3)
 6181 2b38 00C0      		rjmp .L483
 6182               	.L506:
 6183               	.LM710:
 6184 2b3a 84E0      		ldi r24,lo8(4)
 6185 2b3c 60E0      		ldi r22,lo8(0)
 6186 2b3e 40E0      		ldi r20,lo8(string_4)
 6187 2b40 50E0      		ldi r21,hi8(string_4)
 6188 2b42 0E94 0000 		call string_to_LCD
 6189 2b46 1092 0000 		sts string_to_print,__zero_reg__
 6190               	.L277:
 6191               	.LM711:
 6192 2b4a 8091 0000 		lds r24,FlagsFastCount
 6193 2b4e 9091 0000 		lds r25,(FlagsFastCount)+1
 6194 2b52 8F77      		andi r24,lo8(-129)
 6195 2b54 9093 0000 		sts (FlagsFastCount)+1,r25
 6196 2b58 8093 0000 		sts FlagsFastCount,r24
 6197               	.L276:
 6198               	.LM712:
 6199 2b5c 8091 0000 		lds r24,FlagsFastCount
 6200 2b60 9091 0000 		lds r25,(FlagsFastCount)+1
 6201 2b64 91FF      		sbrs r25,1
 6202 2b66 00C0      		rjmp .L283
 6203               	.LM713:
 6204 2b68 8091 0000 		lds r24,temp_req
 6205 2b6c 8823      		tst r24
 6206 2b6e 01F0      		breq .L285
 6207 2b70 8130      		cpi r24,lo8(1)
 6208 2b72 01F4      		brne .L284
 6209 2b74 00C0      		rjmp .L507
 6210               	.L285:
 6211               	.LM714:
 6212 2b76 81E0      		ldi r24,lo8(1)
 6213 2b78 62E6      		ldi r22,lo8(98)
 6214 2b7a 44E0      		ldi r20,lo8(4)
 6215 2b7c 0E94 0000 		call DS18B20_start_meas
 6216 2b80 8E83      		std Y+6,r24
 6217               	.LM715:
 6218 2b82 81E0      		ldi r24,lo8(1)
 6219 2b84 62E6      		ldi r22,lo8(98)
 6220 2b86 42E0      		ldi r20,lo8(2)
 6221 2b88 0E94 0000 		call DS18B20_start_meas
 6222 2b8c 8A87      		std Y+10,r24
 6223               	.LM716:
 6224 2b8e 81E0      		ldi r24,lo8(1)
 6225 2b90 62E6      		ldi r22,lo8(98)
 6226 2b92 41E0      		ldi r20,lo8(1)
 6227 2b94 0E94 0000 		call DS18B20_start_meas
 6228 2b98 8E87      		std Y+14,r24
 6229               	.LM717:
 6230 2b9a 81E0      		ldi r24,lo8(1)
 6231 2b9c 8093 0000 		sts temp_req,r24
 6232 2ba0 00C0      		rjmp .L284
 6233               	.L507:
 6234               	.LM718:
 6235 2ba2 8091 0000 		lds r24,temp_start_pulse
 6236 2ba6 8F5F      		subi r24,lo8(-(1))
 6237 2ba8 8093 0000 		sts temp_start_pulse,r24
 6238               	.LM719:
 6239 2bac 8431      		cpi r24,lo8(20)
 6240 2bae 01F4      		brne .L284
 6241               	.LM720:
 6242 2bb0 CE01      		movw r24,r28
 6243 2bb2 0896      		adiw r24,8
 6244 2bb4 62E6      		ldi r22,lo8(98)
 6245 2bb6 44E0      		ldi r20,lo8(4)
 6246 2bb8 0E94 0000 		call DS18B20_read_meas_single
 6247 2bbc 8F83      		std Y+7,r24
 6248               	.LM721:
 6249 2bbe CE01      		movw r24,r28
 6250 2bc0 0C96      		adiw r24,12
 6251 2bc2 62E6      		ldi r22,lo8(98)
 6252 2bc4 42E0      		ldi r20,lo8(2)
 6253 2bc6 0E94 0000 		call DS18B20_read_meas_single
 6254 2bca 8B87      		std Y+11,r24
 6255               	.LM722:
 6256 2bcc CE01      		movw r24,r28
 6257 2bce 4096      		adiw r24,16
 6258 2bd0 62E6      		ldi r22,lo8(98)
 6259 2bd2 41E0      		ldi r20,lo8(1)
 6260 2bd4 0E94 0000 		call DS18B20_read_meas_single
 6261 2bd8 8F87      		std Y+15,r24
 6262               	.LM723:
 6263 2bda 1092 0000 		sts temp_req,__zero_reg__
 6264               	.LM724:
 6265 2bde 1092 0000 		sts temp_start_pulse,__zero_reg__
 6266               	.L284:
 6267               	.LM725:
 6268 2be2 8F81      		ldd r24,Y+7
 6269 2be4 8823      		tst r24
 6270 2be6 01F4      		brne .L287
 6271               	.LM726:
 6272 2be8 1B82      		std Y+3,__zero_reg__
 6273 2bea 1A82      		std Y+2,__zero_reg__
 6274               	.LVL143:
 6275 2bec 1D82      		std Y+5,__zero_reg__
 6276 2bee 1C82      		std Y+4,__zero_reg__
 6277               	.LVL144:
 6278 2bf0 20E2      		ldi r18,lo8(32)
 6279 2bf2 2983      		std Y+1,r18
 6280               	.LVL145:
 6281               	.LM727:
 6282 2bf4 8885      		ldd r24,Y+8
 6283 2bf6 9985      		ldd r25,Y+9
 6284 2bf8 BE01      		movw r22,r28
 6285 2bfa 6E5F      		subi r22,lo8(-(2))
 6286 2bfc 7F4F      		sbci r23,hi8(-(2))
 6287 2bfe AE01      		movw r20,r28
 6288 2c00 4C5F      		subi r20,lo8(-(4))
 6289 2c02 5F4F      		sbci r21,hi8(-(4))
 6290 2c04 9E01      		movw r18,r28
 6291 2c06 2F5F      		subi r18,lo8(-(1))
 6292 2c08 3F4F      		sbci r19,hi8(-(1))
 6293 2c0a 0E94 0000 		call scale_t
 6294               	.LM728:
 6295 2c0e 2A81      		ldd r18,Y+2
 6296 2c10 3B81      		ldd r19,Y+3
 6297 2c12 C901      		movw r24,r18
 6298 2c14 6AE0      		ldi r22,lo8(10)
 6299 2c16 70E0      		ldi r23,hi8(10)
 6300 2c18 0E94 0000 		call __udivmodhi4
 6301 2c1c CB01      		movw r24,r22
 6302 2c1e 6AE0      		ldi r22,lo8(10)
 6303 2c20 70E0      		ldi r23,hi8(10)
 6304 2c22 0E94 0000 		call __udivmodhi4
 6305 2c26 805D      		subi r24,lo8(-(48))
 6306 2c28 8093 0000 		sts string_2+5,r24
 6307               	.LM729:
 6308 2c2c C901      		movw r24,r18
 6309 2c2e 6AE0      		ldi r22,lo8(10)
 6310 2c30 70E0      		ldi r23,hi8(10)
 6311 2c32 0E94 0000 		call __udivmodhi4
 6312 2c36 805D      		subi r24,lo8(-(48))
 6313 2c38 8093 0000 		sts string_2+6,r24
 6314               	.LM730:
 6315 2c3c 3EE2      		ldi r19,lo8(46)
 6316 2c3e 3093 0000 		sts string_2+7,r19
 6317               	.LM731:
 6318 2c42 8C81      		ldd r24,Y+4
 6319 2c44 9D81      		ldd r25,Y+5
 6320 2c46 68EE      		ldi r22,lo8(1000)
 6321 2c48 73E0      		ldi r23,hi8(1000)
 6322 2c4a 0E94 0000 		call __udivmodhi4
 6323 2c4e CB01      		movw r24,r22
 6324 2c50 6AE0      		ldi r22,lo8(10)
 6325 2c52 70E0      		ldi r23,hi8(10)
 6326 2c54 0E94 0000 		call __udivmodhi4
 6327 2c58 805D      		subi r24,lo8(-(48))
 6328 2c5a 8093 0000 		sts string_2+8,r24
 6329               	.L287:
 6330               	.LM732:
 6331 2c5e 8B85      		ldd r24,Y+11
 6332 2c60 8823      		tst r24
 6333 2c62 01F4      		brne .L288
 6334               	.LM733:
 6335 2c64 1B82      		std Y+3,__zero_reg__
 6336 2c66 1A82      		std Y+2,__zero_reg__
 6337               	.LVL146:
 6338 2c68 1D82      		std Y+5,__zero_reg__
 6339 2c6a 1C82      		std Y+4,__zero_reg__
 6340               	.LVL147:
 6341 2c6c 40E2      		ldi r20,lo8(32)
 6342 2c6e 4983      		std Y+1,r20
 6343               	.LVL148:
 6344               	.LM734:
 6345 2c70 8C85      		ldd r24,Y+12
 6346 2c72 9D85      		ldd r25,Y+13
 6347 2c74 BE01      		movw r22,r28
 6348 2c76 6E5F      		subi r22,lo8(-(2))
 6349 2c78 7F4F      		sbci r23,hi8(-(2))
 6350 2c7a AE01      		movw r20,r28
 6351 2c7c 4C5F      		subi r20,lo8(-(4))
 6352 2c7e 5F4F      		sbci r21,hi8(-(4))
 6353 2c80 9E01      		movw r18,r28
 6354 2c82 2F5F      		subi r18,lo8(-(1))
 6355 2c84 3F4F      		sbci r19,hi8(-(1))
 6356 2c86 0E94 0000 		call scale_t
 6357               	.LM735:
 6358 2c8a 2A81      		ldd r18,Y+2
 6359 2c8c 3B81      		ldd r19,Y+3
 6360 2c8e C901      		movw r24,r18
 6361 2c90 6AE0      		ldi r22,lo8(10)
 6362 2c92 70E0      		ldi r23,hi8(10)
 6363 2c94 0E94 0000 		call __udivmodhi4
 6364 2c98 CB01      		movw r24,r22
 6365 2c9a 6AE0      		ldi r22,lo8(10)
 6366 2c9c 70E0      		ldi r23,hi8(10)
 6367 2c9e 0E94 0000 		call __udivmodhi4
 6368 2ca2 805D      		subi r24,lo8(-(48))
 6369 2ca4 8093 0000 		sts string_3+5,r24
 6370               	.LM736:
 6371 2ca8 C901      		movw r24,r18
 6372 2caa 6AE0      		ldi r22,lo8(10)
 6373 2cac 70E0      		ldi r23,hi8(10)
 6374 2cae 0E94 0000 		call __udivmodhi4
 6375 2cb2 805D      		subi r24,lo8(-(48))
 6376 2cb4 8093 0000 		sts string_3+6,r24
 6377               	.LM737:
 6378 2cb8 5EE2      		ldi r21,lo8(46)
 6379 2cba 5093 0000 		sts string_3+7,r21
 6380               	.LM738:
 6381 2cbe 8C81      		ldd r24,Y+4
 6382 2cc0 9D81      		ldd r25,Y+5
 6383 2cc2 68EE      		ldi r22,lo8(1000)
 6384 2cc4 73E0      		ldi r23,hi8(1000)
 6385 2cc6 0E94 0000 		call __udivmodhi4
 6386 2cca CB01      		movw r24,r22
 6387 2ccc 6AE0      		ldi r22,lo8(10)
 6388 2cce 70E0      		ldi r23,hi8(10)
 6389 2cd0 0E94 0000 		call __udivmodhi4
 6390 2cd4 805D      		subi r24,lo8(-(48))
 6391 2cd6 8093 0000 		sts string_3+8,r24
 6392               	.L288:
 6393               	.LM739:
 6394 2cda 8F85      		ldd r24,Y+15
 6395 2cdc 8823      		tst r24
 6396 2cde 01F4      		brne .L289
 6397               	.LM740:
 6398 2ce0 1B82      		std Y+3,__zero_reg__
 6399 2ce2 1A82      		std Y+2,__zero_reg__
 6400               	.LVL149:
 6401 2ce4 1D82      		std Y+5,__zero_reg__
 6402 2ce6 1C82      		std Y+4,__zero_reg__
 6403               	.LVL150:
 6404 2ce8 80E2      		ldi r24,lo8(32)
 6405 2cea 8983      		std Y+1,r24
 6406               	.LVL151:
 6407               	.LM741:
 6408 2cec 8889      		ldd r24,Y+16
 6409 2cee 9989      		ldd r25,Y+17
 6410 2cf0 BE01      		movw r22,r28
 6411 2cf2 6E5F      		subi r22,lo8(-(2))
 6412 2cf4 7F4F      		sbci r23,hi8(-(2))
 6413 2cf6 AE01      		movw r20,r28
 6414 2cf8 4C5F      		subi r20,lo8(-(4))
 6415 2cfa 5F4F      		sbci r21,hi8(-(4))
 6416 2cfc 9E01      		movw r18,r28
 6417 2cfe 2F5F      		subi r18,lo8(-(1))
 6418 2d00 3F4F      		sbci r19,hi8(-(1))
 6419 2d02 0E94 0000 		call scale_t
 6420               	.LM742:
 6421 2d06 2A81      		ldd r18,Y+2
 6422 2d08 3B81      		ldd r19,Y+3
 6423 2d0a C901      		movw r24,r18
 6424 2d0c 6AE0      		ldi r22,lo8(10)
 6425 2d0e 70E0      		ldi r23,hi8(10)
 6426 2d10 0E94 0000 		call __udivmodhi4
 6427 2d14 CB01      		movw r24,r22
 6428 2d16 6AE0      		ldi r22,lo8(10)
 6429 2d18 70E0      		ldi r23,hi8(10)
 6430 2d1a 0E94 0000 		call __udivmodhi4
 6431 2d1e 805D      		subi r24,lo8(-(48))
 6432 2d20 8093 0000 		sts string_4+5,r24
 6433               	.LM743:
 6434 2d24 C901      		movw r24,r18
 6435 2d26 6AE0      		ldi r22,lo8(10)
 6436 2d28 70E0      		ldi r23,hi8(10)
 6437 2d2a 0E94 0000 		call __udivmodhi4
 6438 2d2e 805D      		subi r24,lo8(-(48))
 6439 2d30 8093 0000 		sts string_4+6,r24
 6440               	.LM744:
 6441 2d34 9EE2      		ldi r25,lo8(46)
 6442 2d36 9093 0000 		sts string_4+7,r25
 6443               	.LM745:
 6444 2d3a 8C81      		ldd r24,Y+4
 6445 2d3c 9D81      		ldd r25,Y+5
 6446 2d3e 68EE      		ldi r22,lo8(1000)
 6447 2d40 73E0      		ldi r23,hi8(1000)
 6448 2d42 0E94 0000 		call __udivmodhi4
 6449 2d46 CB01      		movw r24,r22
 6450 2d48 6AE0      		ldi r22,lo8(10)
 6451 2d4a 70E0      		ldi r23,hi8(10)
 6452 2d4c 0E94 0000 		call __udivmodhi4
 6453 2d50 805D      		subi r24,lo8(-(48))
 6454 2d52 8093 0000 		sts string_4+8,r24
 6455               	.L289:
 6456               	.LM746:
 6457 2d56 0E94 0000 		call DS1307
 6458               	.LM747:
 6459 2d5a 4091 0000 		lds r20,buffer_ds+2
 6460 2d5e 842F      		mov r24,r20
 6461 2d60 8295      		swap r24
 6462 2d62 8F70      		andi r24,lo8(15)
 6463 2d64 90E0      		ldi r25,lo8(0)
 6464 2d66 9C01      		movw r18,r24
 6465 2d68 13E0      		ldi r17,3
 6466 2d6a 220F      	1:	lsl r18
 6467 2d6c 331F      		rol r19
 6468 2d6e 1A95      		dec r17
 6469 2d70 01F4      		brne 1b
 6470 2d72 880F      		lsl r24
 6471 2d74 991F      		rol r25
 6472 2d76 280F      		add r18,r24
 6473 2d78 391F      		adc r19,r25
 6474 2d7a 4F70      		andi r20,lo8(15)
 6475 2d7c 240F      		add r18,r20
 6476 2d7e 311D      		adc r19,__zero_reg__
 6477 2d80 C901      		movw r24,r18
 6478 2d82 6AE0      		ldi r22,lo8(10)
 6479 2d84 70E0      		ldi r23,hi8(10)
 6480 2d86 0E94 0000 		call __divmodhi4
 6481 2d8a 605D      		subi r22,lo8(-(48))
 6482 2d8c 6093 0000 		sts string_1,r22
 6483               	.LM748:
 6484 2d90 C901      		movw r24,r18
 6485 2d92 6AE0      		ldi r22,lo8(10)
 6486 2d94 70E0      		ldi r23,hi8(10)
 6487 2d96 0E94 0000 		call __divmodhi4
 6488 2d9a 805D      		subi r24,lo8(-(48))
 6489 2d9c 8093 0000 		sts string_1+1,r24
 6490               	.LM749:
 6491 2da0 AAE3      		ldi r26,lo8(58)
 6492 2da2 A093 0000 		sts string_1+2,r26
 6493               	.LM750:
 6494 2da6 4091 0000 		lds r20,buffer_ds+1
 6495 2daa 842F      		mov r24,r20
 6496 2dac 8295      		swap r24
 6497 2dae 8F70      		andi r24,lo8(15)
 6498 2db0 90E0      		ldi r25,lo8(0)
 6499 2db2 9C01      		movw r18,r24
 6500 2db4 A3E0      		ldi r26,3
 6501 2db6 220F      	1:	lsl r18
 6502 2db8 331F      		rol r19
 6503 2dba AA95      		dec r26
 6504 2dbc 01F4      		brne 1b
 6505 2dbe 880F      		lsl r24
 6506 2dc0 991F      		rol r25
 6507 2dc2 280F      		add r18,r24
 6508 2dc4 391F      		adc r19,r25
 6509 2dc6 4F70      		andi r20,lo8(15)
 6510 2dc8 240F      		add r18,r20
 6511 2dca 311D      		adc r19,__zero_reg__
 6512 2dcc C901      		movw r24,r18
 6513 2dce 6AE0      		ldi r22,lo8(10)
 6514 2dd0 70E0      		ldi r23,hi8(10)
 6515 2dd2 0E94 0000 		call __divmodhi4
 6516 2dd6 605D      		subi r22,lo8(-(48))
 6517 2dd8 6093 0000 		sts string_1+3,r22
 6518               	.LM751:
 6519 2ddc C901      		movw r24,r18
 6520 2dde 6AE0      		ldi r22,lo8(10)
 6521 2de0 70E0      		ldi r23,hi8(10)
 6522 2de2 0E94 0000 		call __divmodhi4
 6523 2de6 805D      		subi r24,lo8(-(48))
 6524 2de8 8093 0000 		sts string_1+4,r24
 6525               	.LM752:
 6526 2dec BAE3      		ldi r27,lo8(58)
 6527 2dee B093 0000 		sts string_1+5,r27
 6528               	.LM753:
 6529 2df2 4091 0000 		lds r20,buffer_ds
 6530 2df6 842F      		mov r24,r20
 6531 2df8 8295      		swap r24
 6532 2dfa 8F70      		andi r24,lo8(15)
 6533 2dfc 90E0      		ldi r25,lo8(0)
 6534 2dfe 9C01      		movw r18,r24
 6535 2e00 E3E0      		ldi r30,3
 6536 2e02 220F      	1:	lsl r18
 6537 2e04 331F      		rol r19
 6538 2e06 EA95      		dec r30
 6539 2e08 01F4      		brne 1b
 6540 2e0a 880F      		lsl r24
 6541 2e0c 991F      		rol r25
 6542 2e0e 280F      		add r18,r24
 6543 2e10 391F      		adc r19,r25
 6544 2e12 4F70      		andi r20,lo8(15)
 6545 2e14 240F      		add r18,r20
 6546 2e16 311D      		adc r19,__zero_reg__
 6547 2e18 C901      		movw r24,r18
 6548 2e1a 6AE0      		ldi r22,lo8(10)
 6549 2e1c 70E0      		ldi r23,hi8(10)
 6550 2e1e 0E94 0000 		call __divmodhi4
 6551 2e22 605D      		subi r22,lo8(-(48))
 6552 2e24 6093 0000 		sts string_1+6,r22
 6553               	.LM754:
 6554 2e28 C901      		movw r24,r18
 6555 2e2a 6AE0      		ldi r22,lo8(10)
 6556 2e2c 70E0      		ldi r23,hi8(10)
 6557 2e2e 0E94 0000 		call __divmodhi4
 6558 2e32 805D      		subi r24,lo8(-(48))
 6559 2e34 8093 0000 		sts string_1+7,r24
 6560               	.LM755:
 6561 2e38 2091 0000 		lds r18,adc_count
 6562 2e3c 2F5F      		subi r18,lo8(-(1))
 6563 2e3e 2093 0000 		sts adc_count,r18
 6564               	.LM756:
 6565 2e42 94B1      		in r25,36-32
 6566 2e44 9093 0000 		sts dl,r25
 6567               	.LM757:
 6568 2e48 85B1      		in r24,37-32
 6569 2e4a 8093 0000 		sts dh,r24
 6570               	.LM758:
 6571 2e4e 8B8F      		std Y+27,r24
 6572 2e50 1A8E      		std Y+26,__zero_reg__
 6573 2e52 EA8D      		ldd r30,Y+26
 6574 2e54 FB8D      		ldd r31,Y+27
 6575 2e56 E90F      		add r30,r25
 6576 2e58 F11D      		adc r31,__zero_reg__
 6577 2e5a AF01      		movw r20,r30
 6578 2e5c 6627      		clr r22
 6579 2e5e 57FD      		sbrc r21,7
 6580 2e60 6095      		com r22
 6581 2e62 762F      		mov r23,r22
 6582 2e64 4093 0000 		sts adc_data,r20
 6583 2e68 5093 0000 		sts (adc_data)+1,r21
 6584 2e6c 6093 0000 		sts (adc_data)+2,r22
 6585 2e70 7093 0000 		sts (adc_data)+3,r23
 6586               	.LM759:
 6587 2e74 2130      		cpi r18,lo8(1)
 6588 2e76 01F4      		brne .L290
 6589               	.LM760:
 6590 2e78 4093 0000 		sts ph,r20
 6591 2e7c 5093 0000 		sts (ph)+1,r21
 6592 2e80 6093 0000 		sts (ph)+2,r22
 6593 2e84 7093 0000 		sts (ph)+3,r23
 6594               	.LM761:
 6595 2e88 F1E4      		ldi r31,lo8(65)
 6596 2e8a F7B9      		out 39-32,r31
 6597               	.LM762:
 6598 2e8c 369A      		sbi 38-32,6
 6599               	.L290:
 6600               	.LM763:
 6601 2e8e 8091 0000 		lds r24,adc_count
 6602 2e92 8230      		cpi r24,lo8(2)
 6603 2e94 01F4      		brne .L291
 6604               	.LM764:
 6605 2e96 8091 0000 		lds r24,adc_data
 6606 2e9a 9091 0000 		lds r25,(adc_data)+1
 6607 2e9e A091 0000 		lds r26,(adc_data)+2
 6608 2ea2 B091 0000 		lds r27,(adc_data)+3
 6609 2ea6 8093 0000 		sts redox,r24
 6610 2eaa 9093 0000 		sts (redox)+1,r25
 6611 2eae A093 0000 		sts (redox)+2,r26
 6612 2eb2 B093 0000 		sts (redox)+3,r27
 6613               	.LM765:
 6614 2eb6 22E4      		ldi r18,lo8(66)
 6615 2eb8 27B9      		out 39-32,r18
 6616               	.LM766:
 6617 2eba 369A      		sbi 38-32,6
 6618               	.L291:
 6619               	.LM767:
 6620 2ebc 8091 0000 		lds r24,adc_count
 6621 2ec0 8330      		cpi r24,lo8(3)
 6622 2ec2 01F4      		brne .L292
 6623               	.LM768:
 6624 2ec4 8091 0000 		lds r24,adc_data
 6625 2ec8 9091 0000 		lds r25,(adc_data)+1
 6626 2ecc 9093 0000 		sts (water_lvl)+1,r25
 6627 2ed0 8093 0000 		sts water_lvl,r24
 6628               	.LM769:
 6629 2ed4 30E4      		ldi r19,lo8(64)
 6630 2ed6 37B9      		out 39-32,r19
 6631               	.LM770:
 6632 2ed8 369A      		sbi 38-32,6
 6633               	.LM771:
 6634 2eda 1092 0000 		sts adc_count,__zero_reg__
 6635               	.L292:
 6636               	.LM772:
 6637 2ede 6091 0000 		lds r22,k1
 6638 2ee2 7091 0000 		lds r23,(k1)+1
 6639 2ee6 8091 0000 		lds r24,(k1)+2
 6640 2eea 9091 0000 		lds r25,(k1)+3
 6641 2eee 2091 0000 		lds r18,ph
 6642 2ef2 3091 0000 		lds r19,(ph)+1
 6643 2ef6 4091 0000 		lds r20,(ph)+2
 6644 2efa 5091 0000 		lds r21,(ph)+3
 6645 2efe 0E94 0000 		call __mulsi3
 6646 2f02 9B01      		movw r18,r22
 6647 2f04 AC01      		movw r20,r24
 6648 2f06 6091 0000 		lds r22,k2
 6649 2f0a 7091 0000 		lds r23,(k2)+1
 6650 2f0e 8091 0000 		lds r24,(k2)+2
 6651 2f12 9091 0000 		lds r25,(k2)+3
 6652 2f16 620F      		add r22,r18
 6653 2f18 731F      		adc r23,r19
 6654 2f1a 841F      		adc r24,r20
 6655 2f1c 951F      		adc r25,r21
 6656 2f1e 28EE      		ldi r18,lo8(1000)
 6657 2f20 33E0      		ldi r19,hi8(1000)
 6658 2f22 40E0      		ldi r20,hlo8(1000)
 6659 2f24 50E0      		ldi r21,hhi8(1000)
 6660 2f26 0E94 0000 		call __udivmodsi4
 6661 2f2a CA01      		movw r24,r20
 6662 2f2c 2093 0000 		sts data_ph,r18
 6663 2f30 3093 0000 		sts data_ph+1,r19
 6664 2f34 4093 0000 		sts data_ph+2,r20
 6665 2f38 9093 0000 		sts data_ph+3,r25
 6666               	.LM773:
 6667 2f3c B901      		movw r22,r18
 6668 2f3e 28EE      		ldi r18,lo8(1000)
 6669 2f40 33E0      		ldi r19,hi8(1000)
 6670 2f42 40E0      		ldi r20,hlo8(1000)
 6671 2f44 50E0      		ldi r21,hhi8(1000)
 6672 2f46 0E94 0000 		call __udivmodsi4
 6673 2f4a 205D      		subi r18,lo8(-(48))
 6674 2f4c 2093 0000 		sts string_2+15,r18
 6675               	.LM774:
 6676 2f50 6091 0000 		lds r22,data_ph
 6677 2f54 7091 0000 		lds r23,(data_ph)+1
 6678 2f58 8091 0000 		lds r24,(data_ph)+2
 6679 2f5c 9091 0000 		lds r25,(data_ph)+3
 6680 2f60 28EE      		ldi r18,lo8(1000)
 6681 2f62 33E0      		ldi r19,hi8(1000)
 6682 2f64 40E0      		ldi r20,hlo8(1000)
 6683 2f66 50E0      		ldi r21,hhi8(1000)
 6684 2f68 0E94 0000 		call __udivmodsi4
 6685 2f6c 7B01      		movw r14,r22
 6686 2f6e 8C01      		movw r16,r24
 6687 2f70 24E6      		ldi r18,lo8(100)
 6688 2f72 30E0      		ldi r19,hi8(100)
 6689 2f74 40E0      		ldi r20,hlo8(100)
 6690 2f76 50E0      		ldi r21,hhi8(100)
 6691 2f78 0E94 0000 		call __udivmodsi4
 6692 2f7c 205D      		subi r18,lo8(-(48))
 6693 2f7e 2093 0000 		sts string_2+16,r18
 6694               	.LM775:
 6695 2f82 4EE2      		ldi r20,lo8(46)
 6696 2f84 4093 0000 		sts string_2+17,r20
 6697               	.LM776:
 6698 2f88 C801      		movw r24,r16
 6699 2f8a B701      		movw r22,r14
 6700 2f8c 24E6      		ldi r18,lo8(100)
 6701 2f8e 30E0      		ldi r19,hi8(100)
 6702 2f90 40E0      		ldi r20,hlo8(100)
 6703 2f92 50E0      		ldi r21,hhi8(100)
 6704 2f94 0E94 0000 		call __udivmodsi4
 6705 2f98 7B01      		movw r14,r22
 6706 2f9a 8C01      		movw r16,r24
 6707 2f9c 2AE0      		ldi r18,lo8(10)
 6708 2f9e 30E0      		ldi r19,hi8(10)
 6709 2fa0 40E0      		ldi r20,hlo8(10)
 6710 2fa2 50E0      		ldi r21,hhi8(10)
 6711 2fa4 0E94 0000 		call __udivmodsi4
 6712 2fa8 205D      		subi r18,lo8(-(48))
 6713 2faa 2093 0000 		sts string_2+18,r18
 6714               	.LM777:
 6715 2fae C801      		movw r24,r16
 6716 2fb0 B701      		movw r22,r14
 6717 2fb2 2AE0      		ldi r18,lo8(10)
 6718 2fb4 30E0      		ldi r19,hi8(10)
 6719 2fb6 40E0      		ldi r20,hlo8(10)
 6720 2fb8 50E0      		ldi r21,hhi8(10)
 6721 2fba 0E94 0000 		call __udivmodsi4
 6722 2fbe 605D      		subi r22,lo8(-(48))
 6723 2fc0 6093 0000 		sts string_2+19,r22
 6724               	.LM778:
 6725 2fc4 6091 0000 		lds r22,k
 6726 2fc8 7091 0000 		lds r23,(k)+1
 6727 2fcc 8091 0000 		lds r24,(k)+2
 6728 2fd0 9091 0000 		lds r25,(k)+3
 6729 2fd4 2091 0000 		lds r18,redox
 6730 2fd8 3091 0000 		lds r19,(redox)+1
 6731 2fdc 4091 0000 		lds r20,(redox)+2
 6732 2fe0 5091 0000 		lds r21,(redox)+3
 6733 2fe4 0E94 0000 		call __mulsi3
 6734 2fe8 28EE      		ldi r18,lo8(1000)
 6735 2fea 33E0      		ldi r19,hi8(1000)
 6736 2fec 40E0      		ldi r20,hlo8(1000)
 6737 2fee 50E0      		ldi r21,hhi8(1000)
 6738 2ff0 0E94 0000 		call __udivmodsi4
 6739 2ff4 CA01      		movw r24,r20
 6740 2ff6 2093 0000 		sts data_redox,r18
 6741 2ffa 3093 0000 		sts data_redox+1,r19
 6742 2ffe 4093 0000 		sts data_redox+2,r20
 6743 3002 9093 0000 		sts data_redox+3,r25
 6744               	.LM779:
 6745 3006 B901      		movw r22,r18
 6746 3008 28EE      		ldi r18,lo8(1000)
 6747 300a 33E0      		ldi r19,hi8(1000)
 6748 300c 40E0      		ldi r20,hlo8(1000)
 6749 300e 50E0      		ldi r21,hhi8(1000)
 6750 3010 0E94 0000 		call __udivmodsi4
 6751 3014 205D      		subi r18,lo8(-(48))
 6752 3016 2093 0000 		sts string_3+15,r18
 6753               	.LM780:
 6754 301a 5EE2      		ldi r21,lo8(46)
 6755 301c 5093 0000 		sts string_3+16,r21
 6756               	.LM781:
 6757 3020 6091 0000 		lds r22,data_redox
 6758 3024 7091 0000 		lds r23,(data_redox)+1
 6759 3028 8091 0000 		lds r24,(data_redox)+2
 6760 302c 9091 0000 		lds r25,(data_redox)+3
 6761 3030 28EE      		ldi r18,lo8(1000)
 6762 3032 33E0      		ldi r19,hi8(1000)
 6763 3034 40E0      		ldi r20,hlo8(1000)
 6764 3036 50E0      		ldi r21,hhi8(1000)
 6765 3038 0E94 0000 		call __udivmodsi4
 6766 303c 7B01      		movw r14,r22
 6767 303e 8C01      		movw r16,r24
 6768 3040 24E6      		ldi r18,lo8(100)
 6769 3042 30E0      		ldi r19,hi8(100)
 6770 3044 40E0      		ldi r20,hlo8(100)
 6771 3046 50E0      		ldi r21,hhi8(100)
 6772 3048 0E94 0000 		call __udivmodsi4
 6773 304c 205D      		subi r18,lo8(-(48))
 6774 304e 2093 0000 		sts string_3+17,r18
 6775               	.LM782:
 6776 3052 C801      		movw r24,r16
 6777 3054 B701      		movw r22,r14
 6778 3056 24E6      		ldi r18,lo8(100)
 6779 3058 30E0      		ldi r19,hi8(100)
 6780 305a 40E0      		ldi r20,hlo8(100)
 6781 305c 50E0      		ldi r21,hhi8(100)
 6782 305e 0E94 0000 		call __udivmodsi4
 6783 3062 7B01      		movw r14,r22
 6784 3064 8C01      		movw r16,r24
 6785 3066 2AE0      		ldi r18,lo8(10)
 6786 3068 30E0      		ldi r19,hi8(10)
 6787 306a 40E0      		ldi r20,hlo8(10)
 6788 306c 50E0      		ldi r21,hhi8(10)
 6789 306e 0E94 0000 		call __udivmodsi4
 6790 3072 205D      		subi r18,lo8(-(48))
 6791 3074 2093 0000 		sts string_3+18,r18
 6792               	.LM783:
 6793 3078 C801      		movw r24,r16
 6794 307a B701      		movw r22,r14
 6795 307c 2AE0      		ldi r18,lo8(10)
 6796 307e 30E0      		ldi r19,hi8(10)
 6797 3080 40E0      		ldi r20,hlo8(10)
 6798 3082 50E0      		ldi r21,hhi8(10)
 6799 3084 0E94 0000 		call __udivmodsi4
 6800 3088 605D      		subi r22,lo8(-(48))
 6801 308a 6093 0000 		sts string_3+19,r22
 6802               	.LM784:
 6803 308e 8091 0000 		lds r24,FlagsFastCount
 6804 3092 9091 0000 		lds r25,(FlagsFastCount)+1
 6805 3096 9D7F      		andi r25,hi8(-513)
 6806 3098 9093 0000 		sts (FlagsFastCount)+1,r25
 6807 309c 8093 0000 		sts FlagsFastCount,r24
 6808               	.L283:
 6809               	.LM785:
 6810 30a0 8091 0000 		lds r24,FlagsFastCount
 6811 30a4 9091 0000 		lds r25,(FlagsFastCount)+1
 6812 30a8 92FD      		sbrc r25,2
 6813 30aa 00C0      		rjmp .+4
 6814 30ac 0C94 0000 		jmp .L293
 6815               	.LM786:
 6816 30b0 8091 0000 		lds r24,usart_data_in
 6817 30b4 8B33      		cpi r24,lo8(59)
 6818 30b6 01F0      		breq .+2
 6819 30b8 00C0      		rjmp .L294
 6820               	.LM787:
 6821 30ba 8091 0000 		lds r24,usart_data_in+1
 6822 30be 90E0      		ldi r25,lo8(0)
 6823 30c0 FC01      		movw r30,r24
 6824 30c2 3197      		sbiw r30,1
 6825 30c4 E931      		cpi r30,25
 6826 30c6 F105      		cpc r31,__zero_reg__
 6827 30c8 00F0      		brlo .+2
 6828 30ca 00C0      		rjmp .L294
 6829 30cc E050      		subi r30,lo8(-(gs(.L314)))
 6830 30ce F040      		sbci r31,hi8(-(gs(.L314)))
 6831 30d0 EE0F      		lsl r30
 6832 30d2 FF1F      		rol r31
 6833 30d4 0590      		lpm __tmp_reg__,Z+
 6834 30d6 F491      		lpm r31,Z
 6835 30d8 E02D      		mov r30,__tmp_reg__
 6836 30da 0994      		ijmp
 6837               		.data
 6838               		.section .progmem.gcc_sw_table, "a", @progbits
 6839               		.p2align 1
 6840               	.L314:
 6841               		.data
 6842               		.section .progmem.gcc_sw_table, "a", @progbits
 6843               		.p2align 1
 6844 0000 0000      		.word gs(.L295)
 6845 0002 0000      		.word gs(.L296)
 6846 0004 0000      		.word gs(.L297)
 6847 0006 0000      		.word gs(.L298)
 6848 0008 0000      		.word gs(.L299)
 6849 000a 0000      		.word gs(.L300)
 6850 000c 0000      		.word gs(.L301)
 6851 000e 0000      		.word gs(.L302)
 6852 0010 0000      		.word gs(.L303)
 6853 0012 0000      		.word gs(.L294)
 6854 0014 0000      		.word gs(.L294)
 6855 0016 0000      		.word gs(.L294)
 6856 0018 0000      		.word gs(.L294)
 6857 001a 0000      		.word gs(.L294)
 6858 001c 0000      		.word gs(.L294)
 6859 001e 0000      		.word gs(.L304)
 6860 0020 0000      		.word gs(.L305)
 6861 0022 0000      		.word gs(.L306)
 6862 0024 0000      		.word gs(.L307)
 6863 0026 0000      		.word gs(.L308)
 6864 0028 0000      		.word gs(.L309)
 6865 002a 0000      		.word gs(.L310)
 6866 002c 0000      		.word gs(.L311)
 6867 002e 0000      		.word gs(.L312)
 6868 0030 0000      		.word gs(.L313)
 6869               		.text
 6870               	.L295:
 6871               	.LM788:
 6872 30dc 8091 0000 		lds r24,usart_data_in+22
 6873 30e0 833B      		cpi r24,lo8(-77)
 6874 30e2 01F0      		breq .+2
 6875 30e4 00C0      		rjmp .L315
 6876               	.LM789:
 6877 30e6 8091 0000 		lds r24,usart_data_in+2
 6878 30ea 8133      		cpi r24,lo8(49)
 6879 30ec 01F4      		brne .L316
 6880 30ee 81E0      		ldi r24,lo8(1)
 6881 30f0 8093 0000 		sts rele_set,r24
 6882 30f4 00C0      		rjmp .L317
 6883               	.L316:
 6884               	.LM790:
 6885 30f6 1092 0000 		sts rele_set,__zero_reg__
 6886               	.L317:
 6887               	.LM791:
 6888 30fa 8091 0000 		lds r24,usart_data_in+3
 6889 30fe 8133      		cpi r24,lo8(49)
 6890 3100 01F4      		brne .L318
 6891 3102 81E0      		ldi r24,lo8(1)
 6892 3104 8093 0000 		sts rele_set+1,r24
 6893 3108 00C0      		rjmp .L319
 6894               	.L318:
 6895               	.LM792:
 6896 310a 1092 0000 		sts rele_set+1,__zero_reg__
 6897               	.L319:
 6898               	.LM793:
 6899 310e 8091 0000 		lds r24,usart_data_in+4
 6900 3112 8133      		cpi r24,lo8(49)
 6901 3114 01F4      		brne .L320
 6902 3116 81E0      		ldi r24,lo8(1)
 6903 3118 8093 0000 		sts rele_set+2,r24
 6904 311c 00C0      		rjmp .L321
 6905               	.L320:
 6906               	.LM794:
 6907 311e 1092 0000 		sts rele_set+2,__zero_reg__
 6908               	.L321:
 6909               	.LM795:
 6910 3122 8091 0000 		lds r24,usart_data_in+5
 6911 3126 8133      		cpi r24,lo8(49)
 6912 3128 01F4      		brne .L322
 6913 312a 81E0      		ldi r24,lo8(1)
 6914 312c 8093 0000 		sts rele_set+3,r24
 6915 3130 00C0      		rjmp .L323
 6916               	.L322:
 6917               	.LM796:
 6918 3132 1092 0000 		sts rele_set+3,__zero_reg__
 6919               	.L323:
 6920               	.LM797:
 6921 3136 8091 0000 		lds r24,usart_data_in+6
 6922 313a 8133      		cpi r24,lo8(49)
 6923 313c 01F4      		brne .L324
 6924 313e 81E0      		ldi r24,lo8(1)
 6925 3140 8093 0000 		sts rele_set+4,r24
 6926 3144 00C0      		rjmp .L325
 6927               	.L324:
 6928               	.LM798:
 6929 3146 1092 0000 		sts rele_set+4,__zero_reg__
 6930               	.L325:
 6931               	.LM799:
 6932 314a 8091 0000 		lds r24,usart_data_in+7
 6933 314e 8133      		cpi r24,lo8(49)
 6934 3150 01F4      		brne .L326
 6935               	.LM800:
 6936 3152 81E0      		ldi r24,lo8(1)
 6937 3154 8093 0000 		sts rele_set+5,r24
 6938               	.LM801:
 6939 3158 82E3      		ldi r24,lo8(50)
 6940 315a 8093 0000 		sts heater_chanel_status,r24
 6941 315e 00C0      		rjmp .L327
 6942               	.L326:
 6943               	.LM802:
 6944 3160 1092 0000 		sts rele_set+5,__zero_reg__
 6945               	.LM803:
 6946 3164 1092 0000 		sts heater_chanel_status,__zero_reg__
 6947               	.L327:
 6948               	.LM804:
 6949 3168 8091 0000 		lds r24,usart_data_in+8
 6950 316c 8133      		cpi r24,lo8(49)
 6951 316e 01F4      		brne .L328
 6952               	.LM805:
 6953 3170 81E0      		ldi r24,lo8(1)
 6954 3172 8093 0000 		sts rele_set+6,r24
 6955               	.LM806:
 6956 3176 82E3      		ldi r24,lo8(50)
 6957 3178 8093 0000 		sts co2_status,r24
 6958 317c 00C0      		rjmp .L329
 6959               	.L328:
 6960               	.LM807:
 6961 317e 1092 0000 		sts rele_set+6,__zero_reg__
 6962               	.LM808:
 6963 3182 1092 0000 		sts co2_status,__zero_reg__
 6964               	.L329:
 6965               	.LM809:
 6966 3186 8091 0000 		lds r24,usart_data_in+9
 6967 318a 8133      		cpi r24,lo8(49)
 6968 318c 01F4      		brne .L330
 6969               	.LM810:
 6970 318e 81E0      		ldi r24,lo8(1)
 6971 3190 8093 0000 		sts rele_set+7,r24
 6972               	.LM811:
 6973 3194 82E3      		ldi r24,lo8(50)
 6974 3196 8093 0000 		sts water_lvl_status,r24
 6975 319a 00C0      		rjmp .L331
 6976               	.L330:
 6977               	.LM812:
 6978 319c 1092 0000 		sts rele_set+7,__zero_reg__
 6979               	.LM813:
 6980 31a0 1092 0000 		sts water_lvl_status,__zero_reg__
 6981               	.L331:
 6982               	.LM814:
 6983 31a4 1092 0000 		sts usart_data_in+22,__zero_reg__
 6984               	.L315:
 6985               	.LM815:
 6986 31a8 8091 0000 		lds r24,usart_data_in+10
 6987 31ac 8133      		cpi r24,lo8(49)
 6988 31ae 01F0      		breq .+2
 6989 31b0 00C0      		rjmp .L332
 6990               	.LM816:
 6991 31b2 8091 0000 		lds r24,cooler_start_pulse
 6992 31b6 8F5F      		subi r24,lo8(-(1))
 6993 31b8 8093 0000 		sts cooler_start_pulse,r24
 6994               	.LM817:
 6995 31bc 8A30      		cpi r24,lo8(10)
 6996 31be 01F0      		breq .+2
 6997 31c0 00C0      		rjmp .L333
 6998               	.LM818:
 6999 31c2 6091 0000 		lds r22,usart_data_in+11
 7000 31c6 2091 0000 		lds r18,usart_data_in+12
 7001 31ca 5091 0000 		lds r21,usart_data_in+13
 7002 31ce 44E6      		ldi r20,lo8(100)
 7003 31d0 649F      		mul r22,r20
 7004 31d2 B001      		movw r22,r0
 7005 31d4 1124      		clr r1
 7006 31d6 289F      		mul r18,r24
 7007 31d8 9001      		movw r18,r0
 7008 31da 1124      		clr r1
 7009 31dc 620F      		add r22,r18
 7010 31de 731F      		adc r23,r19
 7011 31e0 650F      		add r22,r21
 7012 31e2 711D      		adc r23,__zero_reg__
 7013 31e4 8827      		clr r24
 7014 31e6 77FD      		sbrc r23,7
 7015 31e8 8095      		com r24
 7016 31ea 982F      		mov r25,r24
 7017 31ec 0E94 0000 		call __floatsisf
 7018 31f0 23E3      		ldi r18,lo8(0x40233333)
 7019 31f2 33E3      		ldi r19,hi8(0x40233333)
 7020 31f4 43E2      		ldi r20,hlo8(0x40233333)
 7021 31f6 50E4      		ldi r21,hhi8(0x40233333)
 7022 31f8 0E94 0000 		call __mulsf3
 7023 31fc 6093 0000 		sts cooler_data,r22
 7024 3200 7093 0000 		sts (cooler_data)+1,r23
 7025 3204 8093 0000 		sts (cooler_data)+2,r24
 7026 3208 9093 0000 		sts (cooler_data)+3,r25
 7027               	.LM819:
 7028 320c 29E0      		ldi r18,lo8(9)
 7029 320e 2093 0000 		sts cooler_start_pulse,r18
 7030               	.LM820:
 7031 3212 6090 0000 		lds r6,cooler_min
 7032 3216 7090 0000 		lds r7,(cooler_min)+1
 7033 321a 8090 0000 		lds r8,(cooler_min)+2
 7034 321e 9090 0000 		lds r9,(cooler_min)+3
 7035 3222 A401      		movw r20,r8
 7036 3224 9301      		movw r18,r6
 7037 3226 0E94 0000 		call __ltsf2
 7038 322a 8823      		tst r24
 7039 322c 04F4      		brge .L334
 7040 322e 6092 0000 		sts cooler_data,r6
 7041 3232 7092 0000 		sts (cooler_data)+1,r7
 7042 3236 8092 0000 		sts (cooler_data)+2,r8
 7043 323a 9092 0000 		sts (cooler_data)+3,r9
 7044               	.L334:
 7045               	.LM821:
 7046 323e 8091 0000 		lds r24,cooler_data
 7047 3242 9091 0000 		lds r25,(cooler_data)+1
 7048 3246 A091 0000 		lds r26,(cooler_data)+2
 7049 324a B091 0000 		lds r27,(cooler_data)+3
 7050 324e 8093 0000 		sts cooler_data+8,r24
 7051 3252 9093 0000 		sts (cooler_data+8)+1,r25
 7052 3256 A093 0000 		sts (cooler_data+8)+2,r26
 7053 325a B093 0000 		sts (cooler_data+8)+3,r27
 7054 325e 00C0      		rjmp .L336
 7055               	.L333:
 7056               	.LM822:
 7057 3260 80E0      		ldi r24,lo8(0x437f0000)
 7058 3262 90E0      		ldi r25,hi8(0x437f0000)
 7059 3264 AFE7      		ldi r26,hlo8(0x437f0000)
 7060 3266 B3E4      		ldi r27,hhi8(0x437f0000)
 7061 3268 8093 0000 		sts cooler_data,r24
 7062 326c 9093 0000 		sts (cooler_data)+1,r25
 7063 3270 A093 0000 		sts (cooler_data)+2,r26
 7064 3274 B093 0000 		sts (cooler_data)+3,r27
 7065               	.L336:
 7066               	.LM823:
 7067 3278 6091 0000 		lds r22,cooler_data
 7068 327c 7091 0000 		lds r23,(cooler_data)+1
 7069 3280 8091 0000 		lds r24,(cooler_data)+2
 7070 3284 9091 0000 		lds r25,(cooler_data)+3
 7071 3288 0E94 0000 		call __fixunssfsi
 7072 328c 6CBF      		out 92-32,r22
 7073               	.LM824:
 7074 328e 82E3      		ldi r24,lo8(50)
 7075 3290 8093 0000 		sts cooler_chanel_status,r24
 7076 3294 00C0      		rjmp .L337
 7077               	.L332:
 7078               	.LM825:
 7079 3296 1CBE      		out 92-32,__zero_reg__
 7080               	.LM826:
 7081 3298 1092 0000 		sts cooler_start_pulse,__zero_reg__
 7082               	.LM827:
 7083 329c 1092 0000 		sts cooler_chanel_status,__zero_reg__
 7084               	.LM828:
 7085 32a0 1092 0000 		sts cooler_hand_start,__zero_reg__
 7086               	.L337:
 7087               	.LM829:
 7088 32a4 6091 0000 		lds r22,usart_data_in+14
 7089 32a8 1091 0000 		lds r17,usart_data_in+15
 7090 32ac 70E0      		ldi r23,lo8(0)
 7091 32ae 80E0      		ldi r24,lo8(0)
 7092 32b0 90E0      		ldi r25,hi8(0)
 7093 32b2 2AE0      		ldi r18,lo8(10)
 7094 32b4 30E0      		ldi r19,hi8(10)
 7095 32b6 40E0      		ldi r20,hlo8(10)
 7096 32b8 50E0      		ldi r21,hhi8(10)
 7097 32ba 0E94 0000 		call __mulsi3
 7098 32be 610F      		add r22,r17
 7099 32c0 711D      		adc r23,__zero_reg__
 7100 32c2 811D      		adc r24,__zero_reg__
 7101 32c4 911D      		adc r25,__zero_reg__
 7102 32c6 20E1      		ldi r18,lo8(10000)
 7103 32c8 37E2      		ldi r19,hi8(10000)
 7104 32ca 40E0      		ldi r20,hlo8(10000)
 7105 32cc 50E0      		ldi r21,hhi8(10000)
 7106 32ce 0E94 0000 		call __mulsi3
 7107 32d2 6050      		subi r22,lo8(-(-5280000))
 7108 32d4 7149      		sbci r23,hi8(-(-5280000))
 7109 32d6 8045      		sbci r24,hlo8(-(-5280000))
 7110 32d8 9040      		sbci r25,hhi8(-(-5280000))
 7111 32da 6093 0000 		sts lcd_led_stop,r22
 7112 32de 7093 0000 		sts (lcd_led_stop)+1,r23
 7113 32e2 8093 0000 		sts (lcd_led_stop)+2,r24
 7114 32e6 9093 0000 		sts (lcd_led_stop)+3,r25
 7115               	.LM830:
 7116 32ea 6091 0000 		lds r22,usart_data_in+16
 7117 32ee 1091 0000 		lds r17,usart_data_in+17
 7118 32f2 70E0      		ldi r23,lo8(0)
 7119 32f4 80E0      		ldi r24,lo8(0)
 7120 32f6 90E0      		ldi r25,hi8(0)
 7121 32f8 2AE0      		ldi r18,lo8(10)
 7122 32fa 30E0      		ldi r19,hi8(10)
 7123 32fc 40E0      		ldi r20,hlo8(10)
 7124 32fe 50E0      		ldi r21,hhi8(10)
 7125 3300 0E94 0000 		call __mulsi3
 7126 3304 610F      		add r22,r17
 7127 3306 711D      		adc r23,__zero_reg__
 7128 3308 811D      		adc r24,__zero_reg__
 7129 330a 911D      		adc r25,__zero_reg__
 7130 330c 20E1      		ldi r18,lo8(10000)
 7131 330e 37E2      		ldi r19,hi8(10000)
 7132 3310 40E0      		ldi r20,hlo8(10000)
 7133 3312 50E0      		ldi r21,hhi8(10000)
 7134 3314 0E94 0000 		call __mulsi3
 7135 3318 6050      		subi r22,lo8(-(-5280000))
 7136 331a 7149      		sbci r23,hi8(-(-5280000))
 7137 331c 8045      		sbci r24,hlo8(-(-5280000))
 7138 331e 9040      		sbci r25,hhi8(-(-5280000))
 7139 3320 6093 0000 		sts lcd_led_start,r22
 7140 3324 7093 0000 		sts (lcd_led_start)+1,r23
 7141 3328 8093 0000 		sts (lcd_led_start)+2,r24
 7142 332c 9093 0000 		sts (lcd_led_start)+3,r25
 7143               	.LM831:
 7144 3330 6091 0000 		lds r22,usart_data_in+18
 7145 3334 1091 0000 		lds r17,usart_data_in+19
 7146 3338 70E0      		ldi r23,lo8(0)
 7147 333a 80E0      		ldi r24,lo8(0)
 7148 333c 90E0      		ldi r25,hi8(0)
 7149 333e 2AE0      		ldi r18,lo8(10)
 7150 3340 30E0      		ldi r19,hi8(10)
 7151 3342 40E0      		ldi r20,hlo8(10)
 7152 3344 50E0      		ldi r21,hhi8(10)
 7153 3346 0E94 0000 		call __mulsi3
 7154 334a 610F      		add r22,r17
 7155 334c 711D      		adc r23,__zero_reg__
 7156 334e 811D      		adc r24,__zero_reg__
 7157 3350 911D      		adc r25,__zero_reg__
 7158 3352 20E1      		ldi r18,lo8(10000)
 7159 3354 37E2      		ldi r19,hi8(10000)
 7160 3356 40E0      		ldi r20,hlo8(10000)
 7161 3358 50E0      		ldi r21,hhi8(10000)
 7162 335a 0E94 0000 		call __mulsi3
 7163 335e 6050      		subi r22,lo8(-(-5280000))
 7164 3360 7149      		sbci r23,hi8(-(-5280000))
 7165 3362 8045      		sbci r24,hlo8(-(-5280000))
 7166 3364 9040      		sbci r25,hhi8(-(-5280000))
 7167 3366 6093 0000 		sts cooler_stop,r22
 7168 336a 7093 0000 		sts (cooler_stop)+1,r23
 7169 336e 8093 0000 		sts (cooler_stop)+2,r24
 7170 3372 9093 0000 		sts (cooler_stop)+3,r25
 7171               	.LM832:
 7172 3376 6091 0000 		lds r22,usart_data_in+20
 7173 337a 1091 0000 		lds r17,usart_data_in+21
 7174 337e 70E0      		ldi r23,lo8(0)
 7175 3380 80E0      		ldi r24,lo8(0)
 7176 3382 90E0      		ldi r25,hi8(0)
 7177 3384 2AE0      		ldi r18,lo8(10)
 7178 3386 30E0      		ldi r19,hi8(10)
 7179 3388 40E0      		ldi r20,hlo8(10)
 7180 338a 50E0      		ldi r21,hhi8(10)
 7181 338c 0E94 0000 		call __mulsi3
 7182 3390 610F      		add r22,r17
 7183 3392 711D      		adc r23,__zero_reg__
 7184 3394 811D      		adc r24,__zero_reg__
 7185 3396 911D      		adc r25,__zero_reg__
 7186 3398 20E1      		ldi r18,lo8(10000)
 7187 339a 37E2      		ldi r19,hi8(10000)
 7188 339c 40E0      		ldi r20,hlo8(10000)
 7189 339e 50E0      		ldi r21,hhi8(10000)
 7190 33a0 0E94 0000 		call __mulsi3
 7191 33a4 6050      		subi r22,lo8(-(-5280000))
 7192 33a6 7149      		sbci r23,hi8(-(-5280000))
 7193 33a8 8045      		sbci r24,hlo8(-(-5280000))
 7194 33aa 9040      		sbci r25,hhi8(-(-5280000))
 7195 33ac 6093 0000 		sts cooler_start,r22
 7196 33b0 7093 0000 		sts (cooler_start)+1,r23
 7197 33b4 8093 0000 		sts (cooler_start)+2,r24
 7198 33b8 9093 0000 		sts (cooler_start)+3,r25
 7199 33bc 00C0      		rjmp .L294
 7200               	.L296:
 7201               	.LM833:
 7202 33be 8091 0000 		lds r24,usart_data_in+2
 7203 33c2 2091 0000 		lds r18,usart_data_in+3
 7204 33c6 2051      		subi r18,lo8(-(-16))
 7205 33c8 3AE0      		ldi r19,lo8(10)
 7206 33ca 839F      		mul r24,r19
 7207 33cc C001      		movw r24,r0
 7208 33ce 1124      		clr r1
 7209 33d0 280F      		add r18,r24
 7210 33d2 2093 0000 		sts buffer_time,r18
 7211               	.LM834:
 7212 33d6 8091 0000 		lds r24,usart_data_in+4
 7213 33da 2091 0000 		lds r18,usart_data_in+5
 7214 33de 2051      		subi r18,lo8(-(-16))
 7215 33e0 839F      		mul r24,r19
 7216 33e2 C001      		movw r24,r0
 7217 33e4 1124      		clr r1
 7218 33e6 280F      		add r18,r24
 7219 33e8 2093 0000 		sts buffer_time+1,r18
 7220               	.LM835:
 7221 33ec 8091 0000 		lds r24,usart_data_in+6
 7222 33f0 2091 0000 		lds r18,usart_data_in+7
 7223 33f4 2051      		subi r18,lo8(-(-16))
 7224 33f6 839F      		mul r24,r19
 7225 33f8 C001      		movw r24,r0
 7226 33fa 1124      		clr r1
 7227 33fc 280F      		add r18,r24
 7228 33fe 2093 0000 		sts buffer_time+2,r18
 7229               	.LM836:
 7230 3402 0E94 0000 		call DS1307_set_time
 7231               	.LM837:
 7232 3406 8091 0000 		lds r24,usart_data_in+8
 7233 340a 833B      		cpi r24,lo8(-77)
 7234 340c 01F0      		breq .+2
 7235 340e 00C0      		rjmp .L294
 7236               	.LM838:
 7237 3410 1092 0000 		sts usart_data_in+8,__zero_reg__
 7238 3414 00C0      		rjmp .L484
 7239               	.L307:
 7240               	.LM839:
 7241 3416 1092 0000 		sts eeprom_count,__zero_reg__
 7242               	.LM840:
 7243 341a 81E0      		ldi r24,lo8(1)
 7244 341c 8093 0000 		sts EEPROM_WRITE,r24
 7245 3420 00C0      		rjmp .L493
 7246               	.L297:
 7247               	.LM841:
 7248 3422 81E0      		ldi r24,lo8(1)
 7249 3424 8093 0000 		sts temp_control,r24
 7250               	.LM842:
 7251 3428 8091 0000 		lds r24,usart_data_in+2
 7252 342c 8053      		subi r24,lo8(-(-48))
 7253 342e 8093 0000 		sts set_temp_sensor,r24
 7254               	.LM843:
 7255 3432 8091 0000 		lds r24,usart_data_in+3
 7256 3436 2091 0000 		lds r18,usart_data_in+4
 7257 343a E4E6      		ldi r30,lo8(100)
 7258 343c 8E9F      		mul r24,r30
 7259 343e C001      		movw r24,r0
 7260 3440 1124      		clr r1
 7261 3442 FAE0      		ldi r31,lo8(10)
 7262 3444 2F9F      		mul r18,r31
 7263 3446 9001      		movw r18,r0
 7264 3448 1124      		clr r1
 7265 344a 820F      		add r24,r18
 7266 344c 931F      		adc r25,r19
 7267 344e 805A      		subi r24,lo8(-(-5280))
 7268 3450 9441      		sbci r25,hi8(-(-5280))
 7269 3452 9093 0000 		sts (set_temp)+1,r25
 7270 3456 8093 0000 		sts set_temp,r24
 7271               	.LM844:
 7272 345a 8091 0000 		lds r24,usart_data_in+5
 7273 345e 8053      		subi r24,lo8(-(-48))
 7274 3460 8093 0000 		sts set_temp_dec,r24
 7275               	.LM845:
 7276 3464 2091 0000 		lds r18,usart_data_in+6
 7277 3468 4091 0000 		lds r20,usart_data_in+7
 7278 346c 6091 0000 		lds r22,usart_data_in+8
 7279 3470 70E0      		ldi r23,lo8(0)
 7280 3472 605D      		subi r22,lo8(-(-5328))
 7281 3474 7441      		sbci r23,hi8(-(-5328))
 7282 3476 2E9F      		mul r18,r30
 7283 3478 9001      		movw r18,r0
 7284 347a 1124      		clr r1
 7285 347c 620F      		add r22,r18
 7286 347e 731F      		adc r23,r19
 7287 3480 4F9F      		mul r20,r31
 7288 3482 A001      		movw r20,r0
 7289 3484 1124      		clr r1
 7290 3486 640F      		add r22,r20
 7291 3488 751F      		adc r23,r21
 7292 348a 8827      		clr r24
 7293 348c 77FD      		sbrc r23,7
 7294 348e 8095      		com r24
 7295 3490 982F      		mov r25,r24
 7296 3492 0E94 0000 		call __floatsisf
 7297 3496 23E3      		ldi r18,lo8(0x40233333)
 7298 3498 33E3      		ldi r19,hi8(0x40233333)
 7299 349a 43E2      		ldi r20,hlo8(0x40233333)
 7300 349c 50E4      		ldi r21,hhi8(0x40233333)
 7301 349e 0E94 0000 		call __mulsf3
 7302 34a2 0E94 0000 		call __fixunssfsi
 7303 34a6 7093 0000 		sts (cooler_set)+1,r23
 7304 34aa 6093 0000 		sts cooler_set,r22
 7305               	.LM846:
 7306 34ae 8091 0000 		lds r24,usart_data_in+9
 7307 34b2 833B      		cpi r24,lo8(-77)
 7308 34b4 01F0      		breq .+2
 7309 34b6 00C0      		rjmp .L294
 7310               	.LM847:
 7311 34b8 1092 0000 		sts usart_data_in+9,__zero_reg__
 7312 34bc 00C0      		rjmp .L484
 7313               	.L298:
 7314               	.LM848:
 7315 34be 82E0      		ldi r24,lo8(2)
 7316 34c0 8093 0000 		sts temp_control,r24
 7317               	.LM849:
 7318 34c4 1092 0000 		sts cooler,__zero_reg__
 7319               	.LM850:
 7320 34c8 1092 0000 		sts heater,__zero_reg__
 7321               	.LM851:
 7322 34cc 1092 0000 		sts cooler_start_pulse+1,__zero_reg__
 7323 34d0 00C0      		rjmp .L493
 7324               	.L300:
 7325               	.LM852:
 7326 34d2 81E0      		ldi r24,lo8(1)
 7327 34d4 8093 0000 		sts produv,r24
 7328               	.LM853:
 7329 34d8 E090 0000 		lds r14,usart_data_in+2
 7330 34dc D090 0000 		lds r13,usart_data_in+3
 7331 34e0 6091 0000 		lds r22,usart_data_in+4
 7332 34e4 8091 0000 		lds r24,usart_data_in+5
 7333 34e8 682E      		mov r6,r24
 7334 34ea 7724      		clr r7
 7335 34ec 8824      		clr r8
 7336 34ee 9924      		clr r9
 7337 34f0 80EB      		ldi r24,lo8(-53328)
 7338 34f2 9FE2      		ldi r25,hi8(-53328)
 7339 34f4 AFEF      		ldi r26,hlo8(-53328)
 7340 34f6 BFEF      		ldi r27,hhi8(-53328)
 7341 34f8 680E      		add r6,r24
 7342 34fa 791E      		adc r7,r25
 7343 34fc 8A1E      		adc r8,r26
 7344 34fe 9B1E      		adc r9,r27
 7345 3500 70E0      		ldi r23,lo8(0)
 7346 3502 80E0      		ldi r24,lo8(0)
 7347 3504 90E0      		ldi r25,hi8(0)
 7348 3506 2AE0      		ldi r18,lo8(10)
 7349 3508 30E0      		ldi r19,hi8(10)
 7350 350a 40E0      		ldi r20,hlo8(10)
 7351 350c 50E0      		ldi r21,hhi8(10)
 7352 350e 0E94 0000 		call __mulsi3
 7353 3512 660E      		add r6,r22
 7354 3514 771E      		adc r7,r23
 7355 3516 881E      		adc r8,r24
 7356 3518 991E      		adc r9,r25
 7357 351a FF24      		clr r15
 7358 351c 00E0      		ldi r16,lo8(0)
 7359 351e 10E0      		ldi r17,hi8(0)
 7360 3520 C801      		movw r24,r16
 7361 3522 B701      		movw r22,r14
 7362 3524 0E94 0000 		call __mulsi3
 7363 3528 6D0D      		add r22,r13
 7364 352a 711D      		adc r23,__zero_reg__
 7365 352c 811D      		adc r24,__zero_reg__
 7366 352e 911D      		adc r25,__zero_reg__
 7367 3530 24E6      		ldi r18,lo8(100)
 7368 3532 30E0      		ldi r19,hi8(100)
 7369 3534 40E0      		ldi r20,hlo8(100)
 7370 3536 50E0      		ldi r21,hhi8(100)
 7371 3538 0E94 0000 		call __mulsi3
 7372 353c 660E      		add r6,r22
 7373 353e 771E      		adc r7,r23
 7374 3540 881E      		adc r8,r24
 7375 3542 991E      		adc r9,r25
 7376 3544 6092 0000 		sts timer_produv_time,r6
 7377 3548 7092 0000 		sts (timer_produv_time)+1,r7
 7378 354c 8092 0000 		sts (timer_produv_time)+2,r8
 7379 3550 9092 0000 		sts (timer_produv_time)+3,r9
 7380               	.LM854:
 7381 3554 8091 0000 		lds r24,usart_data_in+6
 7382 3558 8053      		subi r24,lo8(-(-48))
 7383 355a 8093 0000 		sts timer_produv_period,r24
 7384               	.LM855:
 7385 355e 2091 0000 		lds r18,usart_data_in+7
 7386 3562 E091 0000 		lds r30,usart_data_in+8
 7387 3566 6091 0000 		lds r22,usart_data_in+9
 7388 356a 70E0      		ldi r23,lo8(0)
 7389 356c 605D      		subi r22,lo8(-(-5328))
 7390 356e 7441      		sbci r23,hi8(-(-5328))
 7391 3570 44E6      		ldi r20,lo8(100)
 7392 3572 249F      		mul r18,r20
 7393 3574 9001      		movw r18,r0
 7394 3576 1124      		clr r1
 7395 3578 620F      		add r22,r18
 7396 357a 731F      		adc r23,r19
 7397 357c 2AE0      		ldi r18,lo8(10)
 7398 357e E29F      		mul r30,r18
 7399 3580 F001      		movw r30,r0
 7400 3582 1124      		clr r1
 7401 3584 6E0F      		add r22,r30
 7402 3586 7F1F      		adc r23,r31
 7403 3588 8827      		clr r24
 7404 358a 77FD      		sbrc r23,7
 7405 358c 8095      		com r24
 7406 358e 982F      		mov r25,r24
 7407 3590 0E94 0000 		call __floatsisf
 7408 3594 23E3      		ldi r18,lo8(0x40233333)
 7409 3596 33E3      		ldi r19,hi8(0x40233333)
 7410 3598 43E2      		ldi r20,hlo8(0x40233333)
 7411 359a 50E4      		ldi r21,hhi8(0x40233333)
 7412 359c 0E94 0000 		call __mulsf3
 7413 35a0 6093 0000 		sts cooler_min,r22
 7414 35a4 7093 0000 		sts (cooler_min)+1,r23
 7415 35a8 8093 0000 		sts (cooler_min)+2,r24
 7416 35ac 9093 0000 		sts (cooler_min)+3,r25
 7417               	.LM856:
 7418 35b0 8091 0000 		lds r24,usart_data_in+10
 7419 35b4 833B      		cpi r24,lo8(-77)
 7420 35b6 01F0      		breq .+2
 7421 35b8 00C0      		rjmp .L294
 7422               	.LM857:
 7423 35ba 1092 0000 		sts usart_data_in+10,__zero_reg__
 7424 35be 00C0      		rjmp .L484
 7425               	.L301:
 7426               	.LM858:
 7427 35c0 82E0      		ldi r24,lo8(2)
 7428 35c2 8093 0000 		sts produv,r24
 7429               	.LM859:
 7430 35c6 1092 0000 		sts cooler_start_pulse+3,__zero_reg__
 7431 35ca 00C0      		rjmp .L493
 7432               	.L305:
 7433               	.LM860:
 7434 35cc 81E0      		ldi r24,lo8(1)
 7435 35ce 8093 0000 		sts co2,r24
 7436               	.LM861:
 7437 35d2 2091 0000 		lds r18,usart_data_in+2
 7438 35d6 4091 0000 		lds r20,usart_data_in+3
 7439 35da 8091 0000 		lds r24,usart_data_in+4
 7440 35de 90E0      		ldi r25,lo8(0)
 7441 35e0 805D      		subi r24,lo8(-(-5328))
 7442 35e2 9441      		sbci r25,hi8(-(-5328))
 7443 35e4 74E6      		ldi r23,lo8(100)
 7444 35e6 279F      		mul r18,r23
 7445 35e8 9001      		movw r18,r0
 7446 35ea 1124      		clr r1
 7447 35ec 820F      		add r24,r18
 7448 35ee 931F      		adc r25,r19
 7449 35f0 6AE0      		ldi r22,lo8(10)
 7450 35f2 469F      		mul r20,r22
 7451 35f4 A001      		movw r20,r0
 7452 35f6 1124      		clr r1
 7453 35f8 840F      		add r24,r20
 7454 35fa 951F      		adc r25,r21
 7455 35fc 9093 0000 		sts (ph_high)+1,r25
 7456 3600 8093 0000 		sts ph_high,r24
 7457               	.LM862:
 7458 3604 2091 0000 		lds r18,usart_data_in+5
 7459 3608 4091 0000 		lds r20,usart_data_in+6
 7460 360c 8091 0000 		lds r24,usart_data_in+7
 7461 3610 90E0      		ldi r25,lo8(0)
 7462 3612 805D      		subi r24,lo8(-(-5328))
 7463 3614 9441      		sbci r25,hi8(-(-5328))
 7464 3616 279F      		mul r18,r23
 7465 3618 9001      		movw r18,r0
 7466 361a 1124      		clr r1
 7467 361c 820F      		add r24,r18
 7468 361e 931F      		adc r25,r19
 7469 3620 469F      		mul r20,r22
 7470 3622 A001      		movw r20,r0
 7471 3624 1124      		clr r1
 7472 3626 840F      		add r24,r20
 7473 3628 951F      		adc r25,r21
 7474 362a 9093 0000 		sts (ph_low)+1,r25
 7475 362e 8093 0000 		sts ph_low,r24
 7476               	.LM863:
 7477 3632 6091 0000 		lds r22,usart_data_in+8
 7478 3636 1091 0000 		lds r17,usart_data_in+9
 7479 363a 70E0      		ldi r23,lo8(0)
 7480 363c 80E0      		ldi r24,lo8(0)
 7481 363e 90E0      		ldi r25,hi8(0)
 7482 3640 2AE0      		ldi r18,lo8(10)
 7483 3642 30E0      		ldi r19,hi8(10)
 7484 3644 40E0      		ldi r20,hlo8(10)
 7485 3646 50E0      		ldi r21,hhi8(10)
 7486 3648 0E94 0000 		call __mulsi3
 7487 364c 610F      		add r22,r17
 7488 364e 711D      		adc r23,__zero_reg__
 7489 3650 811D      		adc r24,__zero_reg__
 7490 3652 911D      		adc r25,__zero_reg__
 7491 3654 20E1      		ldi r18,lo8(10000)
 7492 3656 37E2      		ldi r19,hi8(10000)
 7493 3658 40E0      		ldi r20,hlo8(10000)
 7494 365a 50E0      		ldi r21,hhi8(10000)
 7495 365c 0E94 0000 		call __mulsi3
 7496 3660 6050      		subi r22,lo8(-(-5280000))
 7497 3662 7149      		sbci r23,hi8(-(-5280000))
 7498 3664 8045      		sbci r24,hlo8(-(-5280000))
 7499 3666 9040      		sbci r25,hhi8(-(-5280000))
 7500 3668 6093 0000 		sts co2_stop,r22
 7501 366c 7093 0000 		sts (co2_stop)+1,r23
 7502 3670 8093 0000 		sts (co2_stop)+2,r24
 7503 3674 9093 0000 		sts (co2_stop)+3,r25
 7504               	.LM864:
 7505 3678 6091 0000 		lds r22,usart_data_in+10
 7506 367c 1091 0000 		lds r17,usart_data_in+11
 7507 3680 70E0      		ldi r23,lo8(0)
 7508 3682 80E0      		ldi r24,lo8(0)
 7509 3684 90E0      		ldi r25,hi8(0)
 7510 3686 2AE0      		ldi r18,lo8(10)
 7511 3688 30E0      		ldi r19,hi8(10)
 7512 368a 40E0      		ldi r20,hlo8(10)
 7513 368c 50E0      		ldi r21,hhi8(10)
 7514 368e 0E94 0000 		call __mulsi3
 7515 3692 610F      		add r22,r17
 7516 3694 711D      		adc r23,__zero_reg__
 7517 3696 811D      		adc r24,__zero_reg__
 7518 3698 911D      		adc r25,__zero_reg__
 7519 369a 20E1      		ldi r18,lo8(10000)
 7520 369c 37E2      		ldi r19,hi8(10000)
 7521 369e 40E0      		ldi r20,hlo8(10000)
 7522 36a0 50E0      		ldi r21,hhi8(10000)
 7523 36a2 0E94 0000 		call __mulsi3
 7524 36a6 6050      		subi r22,lo8(-(-5280000))
 7525 36a8 7149      		sbci r23,hi8(-(-5280000))
 7526 36aa 8045      		sbci r24,hlo8(-(-5280000))
 7527 36ac 9040      		sbci r25,hhi8(-(-5280000))
 7528 36ae 6093 0000 		sts co2_start,r22
 7529 36b2 7093 0000 		sts (co2_start)+1,r23
 7530 36b6 8093 0000 		sts (co2_start)+2,r24
 7531 36ba 9093 0000 		sts (co2_start)+3,r25
 7532               	.LM865:
 7533 36be 8091 0000 		lds r24,usart_data_in+12
 7534 36c2 833B      		cpi r24,lo8(-77)
 7535 36c4 01F0      		breq .+2
 7536 36c6 00C0      		rjmp .L294
 7537               	.LM866:
 7538 36c8 1092 0000 		sts usart_data_in+12,__zero_reg__
 7539 36cc 00C0      		rjmp .L484
 7540               	.L306:
 7541               	.LM867:
 7542 36ce 1092 0000 		sts co2,__zero_reg__
 7543               	.LM868:
 7544 36d2 8091 0000 		lds r24,co2_timer_status
 7545 36d6 8823      		tst r24
 7546 36d8 01F0      		breq .+2
 7547 36da 00C0      		rjmp .L493
 7548 36dc AA98      		cbi 53-32,2
 7549 36de 00C0      		rjmp .L493
 7550               	.L309:
 7551               	.LM869:
 7552 36e0 81E0      		ldi r24,lo8(1)
 7553 36e2 8093 0000 		sts doliv,r24
 7554               	.LM870:
 7555 36e6 8091 0000 		lds r24,water_lvl
 7556 36ea 9091 0000 		lds r25,(water_lvl)+1
 7557 36ee 9093 0000 		sts (water_lvl_last)+1,r25
 7558 36f2 8093 0000 		sts water_lvl_last,r24
 7559               	.LM871:
 7560 36f6 1092 0000 		sts WATER_ERROR_POMPA,__zero_reg__
 7561 36fa 00C0      		rjmp .L493
 7562               	.L310:
 7563               	.LM872:
 7564 36fc 1092 0000 		sts pompa,__zero_reg__
 7565               	.LM873:
 7566 3700 82E0      		ldi r24,lo8(2)
 7567 3702 8093 0000 		sts doliv,r24
 7568 3706 00C0      		rjmp .L493
 7569               	.L311:
 7570               	.LM874:
 7571 3708 8091 0000 		lds r24,water_lvl
 7572 370c 9091 0000 		lds r25,(water_lvl)+1
 7573 3710 9093 0000 		sts (doliv_porog1)+1,r25
 7574 3714 8093 0000 		sts doliv_porog1,r24
 7575 3718 00C0      		rjmp .L493
 7576               	.L312:
 7577               	.LM875:
 7578 371a 8091 0000 		lds r24,water_lvl
 7579 371e 9091 0000 		lds r25,(water_lvl)+1
 7580 3722 9093 0000 		sts (doliv_porog2)+1,r25
 7581 3726 8093 0000 		sts doliv_porog2,r24
 7582 372a 00C0      		rjmp .L493
 7583               	.L313:
 7584               	.LM876:
 7585 372c 0E94 0000 		call events_data_to_uart
 7586 3730 00C0      		rjmp .L493
 7587               	.L299:
 7588               	.LM877:
 7589 3732 1D8A      		std Y+21,__zero_reg__
 7590 3734 1C8A      		std Y+20,__zero_reg__
 7591               	.LVL152:
 7592 3736 1B8A      		std Y+19,__zero_reg__
 7593 3738 1A8A      		std Y+18,__zero_reg__
 7594               	.L340:
 7595               	.LBB303:
 7596               	.LM878:
 7597 373a EA89      		ldd r30,Y+18
 7598 373c FB89      		ldd r31,Y+19
 7599 373e E050      		subi r30,lo8(-(usart_data_in+2))
 7600 3740 F040      		sbci r31,hi8(-(usart_data_in+2))
 7601 3742 E080      		ld r14,Z
 7602 3744 EA89      		ldd r30,Y+18
 7603 3746 FB89      		ldd r31,Y+19
 7604 3748 E050      		subi r30,lo8(-(usart_data_in+3))
 7605 374a F040      		sbci r31,hi8(-(usart_data_in+3))
 7606 374c 9080      		ld r9,Z
 7607 374e EA89      		ldd r30,Y+18
 7608 3750 FB89      		ldd r31,Y+19
 7609 3752 E050      		subi r30,lo8(-(usart_data_in+4))
 7610 3754 F040      		sbci r31,hi8(-(usart_data_in+4))
 7611 3756 A080      		ld r10,Z
 7612 3758 EA89      		ldd r30,Y+18
 7613 375a FB89      		ldd r31,Y+19
 7614 375c E050      		subi r30,lo8(-(usart_data_in+5))
 7615 375e F040      		sbci r31,hi8(-(usart_data_in+5))
 7616 3760 8080      		ld r8,Z
 7617 3762 EA89      		ldd r30,Y+18
 7618 3764 FB89      		ldd r31,Y+19
 7619 3766 E050      		subi r30,lo8(-(usart_data_in+6))
 7620 3768 F040      		sbci r31,hi8(-(usart_data_in+6))
 7621 376a 6081      		ld r22,Z
 7622 376c EA89      		ldd r30,Y+18
 7623 376e FB89      		ldd r31,Y+19
 7624 3770 E050      		subi r30,lo8(-(usart_data_in+7))
 7625 3772 F040      		sbci r31,hi8(-(usart_data_in+7))
 7626 3774 E081      		ld r30,Z
 7627 3776 4E2E      		mov r4,r30
 7628 3778 5524      		clr r5
 7629 377a 6624      		clr r6
 7630 377c 7724      		clr r7
 7631 377e 20EB      		ldi r18,lo8(-5333328)
 7632 3780 3EE9      		ldi r19,hi8(-5333328)
 7633 3782 4EEA      		ldi r20,hlo8(-5333328)
 7634 3784 5FEF      		ldi r21,hhi8(-5333328)
 7635 3786 420E      		add r4,r18
 7636 3788 531E      		adc r5,r19
 7637 378a 641E      		adc r6,r20
 7638 378c 751E      		adc r7,r21
 7639 378e 70E0      		ldi r23,lo8(0)
 7640 3790 80E0      		ldi r24,lo8(0)
 7641 3792 90E0      		ldi r25,hi8(0)
 7642 3794 2AE0      		ldi r18,lo8(10)
 7643 3796 30E0      		ldi r19,hi8(10)
 7644 3798 40E0      		ldi r20,hlo8(10)
 7645 379a 50E0      		ldi r21,hhi8(10)
 7646 379c 0E94 0000 		call __mulsi3
 7647 37a0 460E      		add r4,r22
 7648 37a2 571E      		adc r5,r23
 7649 37a4 681E      		adc r6,r24
 7650 37a6 791E      		adc r7,r25
 7651 37a8 FF24      		clr r15
 7652 37aa 00E0      		ldi r16,lo8(0)
 7653 37ac 10E0      		ldi r17,hi8(0)
 7654 37ae C801      		movw r24,r16
 7655 37b0 B701      		movw r22,r14
 7656 37b2 0E94 0000 		call __mulsi3
 7657 37b6 690D      		add r22,r9
 7658 37b8 711D      		adc r23,__zero_reg__
 7659 37ba 811D      		adc r24,__zero_reg__
 7660 37bc 911D      		adc r25,__zero_reg__
 7661 37be 20E1      		ldi r18,lo8(10000)
 7662 37c0 37E2      		ldi r19,hi8(10000)
 7663 37c2 40E0      		ldi r20,hlo8(10000)
 7664 37c4 50E0      		ldi r21,hhi8(10000)
 7665 37c6 0E94 0000 		call __mulsi3
 7666 37ca 460E      		add r4,r22
 7667 37cc 571E      		adc r5,r23
 7668 37ce 681E      		adc r6,r24
 7669 37d0 791E      		adc r7,r25
 7670 37d2 BB24      		clr r11
 7671 37d4 CC24      		clr r12
 7672 37d6 DD24      		clr r13
 7673 37d8 C601      		movw r24,r12
 7674 37da B501      		movw r22,r10
 7675 37dc 2AE0      		ldi r18,lo8(10)
 7676 37de 30E0      		ldi r19,hi8(10)
 7677 37e0 40E0      		ldi r20,hlo8(10)
 7678 37e2 50E0      		ldi r21,hhi8(10)
 7679 37e4 0E94 0000 		call __mulsi3
 7680 37e8 680D      		add r22,r8
 7681 37ea 711D      		adc r23,__zero_reg__
 7682 37ec 811D      		adc r24,__zero_reg__
 7683 37ee 911D      		adc r25,__zero_reg__
 7684 37f0 24E6      		ldi r18,lo8(100)
 7685 37f2 30E0      		ldi r19,hi8(100)
 7686 37f4 40E0      		ldi r20,hlo8(100)
 7687 37f6 50E0      		ldi r21,hhi8(100)
 7688 37f8 0E94 0000 		call __mulsi3
 7689 37fc 460E      		add r4,r22
 7690 37fe 571E      		adc r5,r23
 7691 3800 681E      		adc r6,r24
 7692 3802 791E      		adc r7,r25
 7693 3804 8C88      		ldd r8,Y+20
 7694 3806 9D88      		ldd r9,Y+21
 7695 3808 880C      		lsl r8
 7696 380a 991C      		rol r9
 7697 380c 880C      		lsl r8
 7698 380e 991C      		rol r9
 7699 3810 F401      		movw r30,r8
 7700 3812 E050      		subi r30,lo8(-(timer1_start))
 7701 3814 F040      		sbci r31,hi8(-(timer1_start))
 7702 3816 4082      		st Z,r4
 7703 3818 5182      		std Z+1,r5
 7704 381a 6282      		std Z+2,r6
 7705 381c 7382      		std Z+3,r7
 7706               	.LM879:
 7707 381e EA89      		ldd r30,Y+18
 7708 3820 FB89      		ldd r31,Y+19
 7709 3822 E050      		subi r30,lo8(-(usart_data_in+8))
 7710 3824 F040      		sbci r31,hi8(-(usart_data_in+8))
 7711 3826 E080      		ld r14,Z
 7712 3828 EA89      		ldd r30,Y+18
 7713 382a FB89      		ldd r31,Y+19
 7714 382c E050      		subi r30,lo8(-(usart_data_in+9))
 7715 382e F040      		sbci r31,hi8(-(usart_data_in+9))
 7716 3830 7080      		ld r7,Z
 7717 3832 EA89      		ldd r30,Y+18
 7718 3834 FB89      		ldd r31,Y+19
 7719 3836 E050      		subi r30,lo8(-(usart_data_in+10))
 7720 3838 F040      		sbci r31,hi8(-(usart_data_in+10))
 7721 383a A080      		ld r10,Z
 7722 383c EA89      		ldd r30,Y+18
 7723 383e FB89      		ldd r31,Y+19
 7724 3840 E050      		subi r30,lo8(-(usart_data_in+11))
 7725 3842 F040      		sbci r31,hi8(-(usart_data_in+11))
 7726 3844 6080      		ld r6,Z
 7727 3846 EA89      		ldd r30,Y+18
 7728 3848 FB89      		ldd r31,Y+19
 7729 384a E050      		subi r30,lo8(-(usart_data_in+12))
 7730 384c F040      		sbci r31,hi8(-(usart_data_in+12))
 7731 384e 6081      		ld r22,Z
 7732 3850 EA89      		ldd r30,Y+18
 7733 3852 FB89      		ldd r31,Y+19
 7734 3854 E050      		subi r30,lo8(-(usart_data_in+13))
 7735 3856 F040      		sbci r31,hi8(-(usart_data_in+13))
 7736 3858 E081      		ld r30,Z
 7737 385a 2E2E      		mov r2,r30
 7738 385c 3324      		clr r3
 7739 385e 4424      		clr r4
 7740 3860 5524      		clr r5
 7741 3862 80EB      		ldi r24,lo8(-5333328)
 7742 3864 9EE9      		ldi r25,hi8(-5333328)
 7743 3866 AEEA      		ldi r26,hlo8(-5333328)
 7744 3868 BFEF      		ldi r27,hhi8(-5333328)
 7745 386a 280E      		add r2,r24
 7746 386c 391E      		adc r3,r25
 7747 386e 4A1E      		adc r4,r26
 7748 3870 5B1E      		adc r5,r27
 7749 3872 70E0      		ldi r23,lo8(0)
 7750 3874 80E0      		ldi r24,lo8(0)
 7751 3876 90E0      		ldi r25,hi8(0)
 7752 3878 2AE0      		ldi r18,lo8(10)
 7753 387a 30E0      		ldi r19,hi8(10)
 7754 387c 40E0      		ldi r20,hlo8(10)
 7755 387e 50E0      		ldi r21,hhi8(10)
 7756 3880 0E94 0000 		call __mulsi3
 7757 3884 260E      		add r2,r22
 7758 3886 371E      		adc r3,r23
 7759 3888 481E      		adc r4,r24
 7760 388a 591E      		adc r5,r25
 7761 388c FF24      		clr r15
 7762 388e 00E0      		ldi r16,lo8(0)
 7763 3890 10E0      		ldi r17,hi8(0)
 7764 3892 C801      		movw r24,r16
 7765 3894 B701      		movw r22,r14
 7766 3896 0E94 0000 		call __mulsi3
 7767 389a 670D      		add r22,r7
 7768 389c 711D      		adc r23,__zero_reg__
 7769 389e 811D      		adc r24,__zero_reg__
 7770 38a0 911D      		adc r25,__zero_reg__
 7771 38a2 20E1      		ldi r18,lo8(10000)
 7772 38a4 37E2      		ldi r19,hi8(10000)
 7773 38a6 40E0      		ldi r20,hlo8(10000)
 7774 38a8 50E0      		ldi r21,hhi8(10000)
 7775 38aa 0E94 0000 		call __mulsi3
 7776 38ae 260E      		add r2,r22
 7777 38b0 371E      		adc r3,r23
 7778 38b2 481E      		adc r4,r24
 7779 38b4 591E      		adc r5,r25
 7780 38b6 BB24      		clr r11
 7781 38b8 CC24      		clr r12
 7782 38ba DD24      		clr r13
 7783 38bc C601      		movw r24,r12
 7784 38be B501      		movw r22,r10
 7785 38c0 2AE0      		ldi r18,lo8(10)
 7786 38c2 30E0      		ldi r19,hi8(10)
 7787 38c4 40E0      		ldi r20,hlo8(10)
 7788 38c6 50E0      		ldi r21,hhi8(10)
 7789 38c8 0E94 0000 		call __mulsi3
 7790 38cc 660D      		add r22,r6
 7791 38ce 711D      		adc r23,__zero_reg__
 7792 38d0 811D      		adc r24,__zero_reg__
 7793 38d2 911D      		adc r25,__zero_reg__
 7794 38d4 24E6      		ldi r18,lo8(100)
 7795 38d6 30E0      		ldi r19,hi8(100)
 7796 38d8 40E0      		ldi r20,hlo8(100)
 7797 38da 50E0      		ldi r21,hhi8(100)
 7798 38dc 0E94 0000 		call __mulsi3
 7799 38e0 260E      		add r2,r22
 7800 38e2 371E      		adc r3,r23
 7801 38e4 481E      		adc r4,r24
 7802 38e6 591E      		adc r5,r25
 7803 38e8 F401      		movw r30,r8
 7804 38ea E050      		subi r30,lo8(-(timer1_stop))
 7805 38ec F040      		sbci r31,hi8(-(timer1_stop))
 7806 38ee 2082      		st Z,r2
 7807 38f0 3182      		std Z+1,r3
 7808 38f2 4282      		std Z+2,r4
 7809 38f4 5382      		std Z+3,r5
 7810               	.LM880:
 7811 38f6 EA89      		ldd r30,Y+18
 7812 38f8 FB89      		ldd r31,Y+19
 7813 38fa E050      		subi r30,lo8(-(usart_data_in+14))
 7814 38fc F040      		sbci r31,hi8(-(usart_data_in+14))
 7815 38fe E080      		ld r14,Z
 7816 3900 EA89      		ldd r30,Y+18
 7817 3902 FB89      		ldd r31,Y+19
 7818 3904 E050      		subi r30,lo8(-(usart_data_in+15))
 7819 3906 F040      		sbci r31,hi8(-(usart_data_in+15))
 7820 3908 7080      		ld r7,Z
 7821 390a EA89      		ldd r30,Y+18
 7822 390c FB89      		ldd r31,Y+19
 7823 390e E050      		subi r30,lo8(-(usart_data_in+16))
 7824 3910 F040      		sbci r31,hi8(-(usart_data_in+16))
 7825 3912 A080      		ld r10,Z
 7826 3914 EA89      		ldd r30,Y+18
 7827 3916 FB89      		ldd r31,Y+19
 7828 3918 E050      		subi r30,lo8(-(usart_data_in+17))
 7829 391a F040      		sbci r31,hi8(-(usart_data_in+17))
 7830 391c 6080      		ld r6,Z
 7831 391e EA89      		ldd r30,Y+18
 7832 3920 FB89      		ldd r31,Y+19
 7833 3922 E050      		subi r30,lo8(-(usart_data_in+18))
 7834 3924 F040      		sbci r31,hi8(-(usart_data_in+18))
 7835 3926 6081      		ld r22,Z
 7836 3928 EA89      		ldd r30,Y+18
 7837 392a FB89      		ldd r31,Y+19
 7838 392c E050      		subi r30,lo8(-(usart_data_in+19))
 7839 392e F040      		sbci r31,hi8(-(usart_data_in+19))
 7840 3930 E081      		ld r30,Z
 7841 3932 2E2E      		mov r2,r30
 7842 3934 3324      		clr r3
 7843 3936 4424      		clr r4
 7844 3938 5524      		clr r5
 7845 393a 20EB      		ldi r18,lo8(-5333328)
 7846 393c 3EE9      		ldi r19,hi8(-5333328)
 7847 393e 4EEA      		ldi r20,hlo8(-5333328)
 7848 3940 5FEF      		ldi r21,hhi8(-5333328)
 7849 3942 220E      		add r2,r18
 7850 3944 331E      		adc r3,r19
 7851 3946 441E      		adc r4,r20
 7852 3948 551E      		adc r5,r21
 7853 394a 70E0      		ldi r23,lo8(0)
 7854 394c 80E0      		ldi r24,lo8(0)
 7855 394e 90E0      		ldi r25,hi8(0)
 7856 3950 2AE0      		ldi r18,lo8(10)
 7857 3952 30E0      		ldi r19,hi8(10)
 7858 3954 40E0      		ldi r20,hlo8(10)
 7859 3956 50E0      		ldi r21,hhi8(10)
 7860 3958 0E94 0000 		call __mulsi3
 7861 395c 260E      		add r2,r22
 7862 395e 371E      		adc r3,r23
 7863 3960 481E      		adc r4,r24
 7864 3962 591E      		adc r5,r25
 7865 3964 FF24      		clr r15
 7866 3966 00E0      		ldi r16,lo8(0)
 7867 3968 10E0      		ldi r17,hi8(0)
 7868 396a C801      		movw r24,r16
 7869 396c B701      		movw r22,r14
 7870 396e 0E94 0000 		call __mulsi3
 7871 3972 670D      		add r22,r7
 7872 3974 711D      		adc r23,__zero_reg__
 7873 3976 811D      		adc r24,__zero_reg__
 7874 3978 911D      		adc r25,__zero_reg__
 7875 397a 20E1      		ldi r18,lo8(10000)
 7876 397c 37E2      		ldi r19,hi8(10000)
 7877 397e 40E0      		ldi r20,hlo8(10000)
 7878 3980 50E0      		ldi r21,hhi8(10000)
 7879 3982 0E94 0000 		call __mulsi3
 7880 3986 260E      		add r2,r22
 7881 3988 371E      		adc r3,r23
 7882 398a 481E      		adc r4,r24
 7883 398c 591E      		adc r5,r25
 7884 398e BB24      		clr r11
 7885 3990 CC24      		clr r12
 7886 3992 DD24      		clr r13
 7887 3994 C601      		movw r24,r12
 7888 3996 B501      		movw r22,r10
 7889 3998 2AE0      		ldi r18,lo8(10)
 7890 399a 30E0      		ldi r19,hi8(10)
 7891 399c 40E0      		ldi r20,hlo8(10)
 7892 399e 50E0      		ldi r21,hhi8(10)
 7893 39a0 0E94 0000 		call __mulsi3
 7894 39a4 660D      		add r22,r6
 7895 39a6 711D      		adc r23,__zero_reg__
 7896 39a8 811D      		adc r24,__zero_reg__
 7897 39aa 911D      		adc r25,__zero_reg__
 7898 39ac 24E6      		ldi r18,lo8(100)
 7899 39ae 30E0      		ldi r19,hi8(100)
 7900 39b0 40E0      		ldi r20,hlo8(100)
 7901 39b2 50E0      		ldi r21,hhi8(100)
 7902 39b4 0E94 0000 		call __mulsi3
 7903 39b8 260E      		add r2,r22
 7904 39ba 371E      		adc r3,r23
 7905 39bc 481E      		adc r4,r24
 7906 39be 591E      		adc r5,r25
 7907 39c0 F401      		movw r30,r8
 7908 39c2 E050      		subi r30,lo8(-(timer2_start))
 7909 39c4 F040      		sbci r31,hi8(-(timer2_start))
 7910 39c6 2082      		st Z,r2
 7911 39c8 3182      		std Z+1,r3
 7912 39ca 4282      		std Z+2,r4
 7913 39cc 5382      		std Z+3,r5
 7914               	.LM881:
 7915 39ce EA89      		ldd r30,Y+18
 7916 39d0 FB89      		ldd r31,Y+19
 7917 39d2 E050      		subi r30,lo8(-(usart_data_in+20))
 7918 39d4 F040      		sbci r31,hi8(-(usart_data_in+20))
 7919 39d6 E080      		ld r14,Z
 7920 39d8 EA89      		ldd r30,Y+18
 7921 39da FB89      		ldd r31,Y+19
 7922 39dc E050      		subi r30,lo8(-(usart_data_in+21))
 7923 39de F040      		sbci r31,hi8(-(usart_data_in+21))
 7924 39e0 7080      		ld r7,Z
 7925 39e2 EA89      		ldd r30,Y+18
 7926 39e4 FB89      		ldd r31,Y+19
 7927 39e6 E050      		subi r30,lo8(-(usart_data_in+22))
 7928 39e8 F040      		sbci r31,hi8(-(usart_data_in+22))
 7929 39ea A080      		ld r10,Z
 7930 39ec EA89      		ldd r30,Y+18
 7931 39ee FB89      		ldd r31,Y+19
 7932 39f0 E050      		subi r30,lo8(-(usart_data_in+23))
 7933 39f2 F040      		sbci r31,hi8(-(usart_data_in+23))
 7934 39f4 6080      		ld r6,Z
 7935 39f6 EA89      		ldd r30,Y+18
 7936 39f8 FB89      		ldd r31,Y+19
 7937 39fa E050      		subi r30,lo8(-(usart_data_in+24))
 7938 39fc F040      		sbci r31,hi8(-(usart_data_in+24))
 7939 39fe 6081      		ld r22,Z
 7940 3a00 EA89      		ldd r30,Y+18
 7941 3a02 FB89      		ldd r31,Y+19
 7942 3a04 E050      		subi r30,lo8(-(usart_data_in+25))
 7943 3a06 F040      		sbci r31,hi8(-(usart_data_in+25))
 7944 3a08 E081      		ld r30,Z
 7945 3a0a 2E2E      		mov r2,r30
 7946 3a0c 3324      		clr r3
 7947 3a0e 4424      		clr r4
 7948 3a10 5524      		clr r5
 7949 3a12 80EB      		ldi r24,lo8(-5333328)
 7950 3a14 9EE9      		ldi r25,hi8(-5333328)
 7951 3a16 AEEA      		ldi r26,hlo8(-5333328)
 7952 3a18 BFEF      		ldi r27,hhi8(-5333328)
 7953 3a1a 280E      		add r2,r24
 7954 3a1c 391E      		adc r3,r25
 7955 3a1e 4A1E      		adc r4,r26
 7956 3a20 5B1E      		adc r5,r27
 7957 3a22 70E0      		ldi r23,lo8(0)
 7958 3a24 80E0      		ldi r24,lo8(0)
 7959 3a26 90E0      		ldi r25,hi8(0)
 7960 3a28 2AE0      		ldi r18,lo8(10)
 7961 3a2a 30E0      		ldi r19,hi8(10)
 7962 3a2c 40E0      		ldi r20,hlo8(10)
 7963 3a2e 50E0      		ldi r21,hhi8(10)
 7964 3a30 0E94 0000 		call __mulsi3
 7965 3a34 260E      		add r2,r22
 7966 3a36 371E      		adc r3,r23
 7967 3a38 481E      		adc r4,r24
 7968 3a3a 591E      		adc r5,r25
 7969 3a3c FF24      		clr r15
 7970 3a3e 00E0      		ldi r16,lo8(0)
 7971 3a40 10E0      		ldi r17,hi8(0)
 7972 3a42 C801      		movw r24,r16
 7973 3a44 B701      		movw r22,r14
 7974 3a46 0E94 0000 		call __mulsi3
 7975 3a4a 670D      		add r22,r7
 7976 3a4c 711D      		adc r23,__zero_reg__
 7977 3a4e 811D      		adc r24,__zero_reg__
 7978 3a50 911D      		adc r25,__zero_reg__
 7979 3a52 20E1      		ldi r18,lo8(10000)
 7980 3a54 37E2      		ldi r19,hi8(10000)
 7981 3a56 40E0      		ldi r20,hlo8(10000)
 7982 3a58 50E0      		ldi r21,hhi8(10000)
 7983 3a5a 0E94 0000 		call __mulsi3
 7984 3a5e 260E      		add r2,r22
 7985 3a60 371E      		adc r3,r23
 7986 3a62 481E      		adc r4,r24
 7987 3a64 591E      		adc r5,r25
 7988 3a66 BB24      		clr r11
 7989 3a68 CC24      		clr r12
 7990 3a6a DD24      		clr r13
 7991 3a6c C601      		movw r24,r12
 7992 3a6e B501      		movw r22,r10
 7993 3a70 2AE0      		ldi r18,lo8(10)
 7994 3a72 30E0      		ldi r19,hi8(10)
 7995 3a74 40E0      		ldi r20,hlo8(10)
 7996 3a76 50E0      		ldi r21,hhi8(10)
 7997 3a78 0E94 0000 		call __mulsi3
 7998 3a7c 660D      		add r22,r6
 7999 3a7e 711D      		adc r23,__zero_reg__
 8000 3a80 811D      		adc r24,__zero_reg__
 8001 3a82 911D      		adc r25,__zero_reg__
 8002 3a84 24E6      		ldi r18,lo8(100)
 8003 3a86 30E0      		ldi r19,hi8(100)
 8004 3a88 40E0      		ldi r20,hlo8(100)
 8005 3a8a 50E0      		ldi r21,hhi8(100)
 8006 3a8c 0E94 0000 		call __mulsi3
 8007 3a90 260E      		add r2,r22
 8008 3a92 371E      		adc r3,r23
 8009 3a94 481E      		adc r4,r24
 8010 3a96 591E      		adc r5,r25
 8011 3a98 F401      		movw r30,r8
 8012 3a9a E050      		subi r30,lo8(-(timer2_stop))
 8013 3a9c F040      		sbci r31,hi8(-(timer2_stop))
 8014 3a9e 2082      		st Z,r2
 8015 3aa0 3182      		std Z+1,r3
 8016 3aa2 4282      		std Z+2,r4
 8017 3aa4 5382      		std Z+3,r5
 8018               	.LM882:
 8019 3aa6 EA89      		ldd r30,Y+18
 8020 3aa8 FB89      		ldd r31,Y+19
 8021 3aaa E050      		subi r30,lo8(-(usart_data_in+26))
 8022 3aac F040      		sbci r31,hi8(-(usart_data_in+26))
 8023 3aae E080      		ld r14,Z
 8024 3ab0 EA89      		ldd r30,Y+18
 8025 3ab2 FB89      		ldd r31,Y+19
 8026 3ab4 E050      		subi r30,lo8(-(usart_data_in+27))
 8027 3ab6 F040      		sbci r31,hi8(-(usart_data_in+27))
 8028 3ab8 7080      		ld r7,Z
 8029 3aba EA89      		ldd r30,Y+18
 8030 3abc FB89      		ldd r31,Y+19
 8031 3abe E050      		subi r30,lo8(-(usart_data_in+28))
 8032 3ac0 F040      		sbci r31,hi8(-(usart_data_in+28))
 8033 3ac2 A080      		ld r10,Z
 8034 3ac4 EA89      		ldd r30,Y+18
 8035 3ac6 FB89      		ldd r31,Y+19
 8036 3ac8 E050      		subi r30,lo8(-(usart_data_in+29))
 8037 3aca F040      		sbci r31,hi8(-(usart_data_in+29))
 8038 3acc 6080      		ld r6,Z
 8039 3ace EA89      		ldd r30,Y+18
 8040 3ad0 FB89      		ldd r31,Y+19
 8041 3ad2 E050      		subi r30,lo8(-(usart_data_in+30))
 8042 3ad4 F040      		sbci r31,hi8(-(usart_data_in+30))
 8043 3ad6 6081      		ld r22,Z
 8044 3ad8 EA89      		ldd r30,Y+18
 8045 3ada FB89      		ldd r31,Y+19
 8046 3adc E050      		subi r30,lo8(-(usart_data_in+31))
 8047 3ade F040      		sbci r31,hi8(-(usart_data_in+31))
 8048 3ae0 E081      		ld r30,Z
 8049 3ae2 2E2E      		mov r2,r30
 8050 3ae4 3324      		clr r3
 8051 3ae6 4424      		clr r4
 8052 3ae8 5524      		clr r5
 8053 3aea 20EB      		ldi r18,lo8(-5333328)
 8054 3aec 3EE9      		ldi r19,hi8(-5333328)
 8055 3aee 4EEA      		ldi r20,hlo8(-5333328)
 8056 3af0 5FEF      		ldi r21,hhi8(-5333328)
 8057 3af2 220E      		add r2,r18
 8058 3af4 331E      		adc r3,r19
 8059 3af6 441E      		adc r4,r20
 8060 3af8 551E      		adc r5,r21
 8061 3afa 70E0      		ldi r23,lo8(0)
 8062 3afc 80E0      		ldi r24,lo8(0)
 8063 3afe 90E0      		ldi r25,hi8(0)
 8064 3b00 2AE0      		ldi r18,lo8(10)
 8065 3b02 30E0      		ldi r19,hi8(10)
 8066 3b04 40E0      		ldi r20,hlo8(10)
 8067 3b06 50E0      		ldi r21,hhi8(10)
 8068 3b08 0E94 0000 		call __mulsi3
 8069 3b0c 260E      		add r2,r22
 8070 3b0e 371E      		adc r3,r23
 8071 3b10 481E      		adc r4,r24
 8072 3b12 591E      		adc r5,r25
 8073 3b14 FF24      		clr r15
 8074 3b16 00E0      		ldi r16,lo8(0)
 8075 3b18 10E0      		ldi r17,hi8(0)
 8076 3b1a C801      		movw r24,r16
 8077 3b1c B701      		movw r22,r14
 8078 3b1e 0E94 0000 		call __mulsi3
 8079 3b22 670D      		add r22,r7
 8080 3b24 711D      		adc r23,__zero_reg__
 8081 3b26 811D      		adc r24,__zero_reg__
 8082 3b28 911D      		adc r25,__zero_reg__
 8083 3b2a 20E1      		ldi r18,lo8(10000)
 8084 3b2c 37E2      		ldi r19,hi8(10000)
 8085 3b2e 40E0      		ldi r20,hlo8(10000)
 8086 3b30 50E0      		ldi r21,hhi8(10000)
 8087 3b32 0E94 0000 		call __mulsi3
 8088 3b36 260E      		add r2,r22
 8089 3b38 371E      		adc r3,r23
 8090 3b3a 481E      		adc r4,r24
 8091 3b3c 591E      		adc r5,r25
 8092 3b3e BB24      		clr r11
 8093 3b40 CC24      		clr r12
 8094 3b42 DD24      		clr r13
 8095 3b44 C601      		movw r24,r12
 8096 3b46 B501      		movw r22,r10
 8097 3b48 2AE0      		ldi r18,lo8(10)
 8098 3b4a 30E0      		ldi r19,hi8(10)
 8099 3b4c 40E0      		ldi r20,hlo8(10)
 8100 3b4e 50E0      		ldi r21,hhi8(10)
 8101 3b50 0E94 0000 		call __mulsi3
 8102 3b54 660D      		add r22,r6
 8103 3b56 711D      		adc r23,__zero_reg__
 8104 3b58 811D      		adc r24,__zero_reg__
 8105 3b5a 911D      		adc r25,__zero_reg__
 8106 3b5c 24E6      		ldi r18,lo8(100)
 8107 3b5e 30E0      		ldi r19,hi8(100)
 8108 3b60 40E0      		ldi r20,hlo8(100)
 8109 3b62 50E0      		ldi r21,hhi8(100)
 8110 3b64 0E94 0000 		call __mulsi3
 8111 3b68 260E      		add r2,r22
 8112 3b6a 371E      		adc r3,r23
 8113 3b6c 481E      		adc r4,r24
 8114 3b6e 591E      		adc r5,r25
 8115 3b70 F401      		movw r30,r8
 8116 3b72 E050      		subi r30,lo8(-(timer3_start))
 8117 3b74 F040      		sbci r31,hi8(-(timer3_start))
 8118 3b76 2082      		st Z,r2
 8119 3b78 3182      		std Z+1,r3
 8120 3b7a 4282      		std Z+2,r4
 8121 3b7c 5382      		std Z+3,r5
 8122               	.LM883:
 8123 3b7e EA89      		ldd r30,Y+18
 8124 3b80 FB89      		ldd r31,Y+19
 8125 3b82 E050      		subi r30,lo8(-(usart_data_in+32))
 8126 3b84 F040      		sbci r31,hi8(-(usart_data_in+32))
 8127 3b86 E080      		ld r14,Z
 8128 3b88 EA89      		ldd r30,Y+18
 8129 3b8a FB89      		ldd r31,Y+19
 8130 3b8c E050      		subi r30,lo8(-(usart_data_in+33))
 8131 3b8e F040      		sbci r31,hi8(-(usart_data_in+33))
 8132 3b90 7080      		ld r7,Z
 8133 3b92 EA89      		ldd r30,Y+18
 8134 3b94 FB89      		ldd r31,Y+19
 8135 3b96 E050      		subi r30,lo8(-(usart_data_in+34))
 8136 3b98 F040      		sbci r31,hi8(-(usart_data_in+34))
 8137 3b9a A080      		ld r10,Z
 8138 3b9c EA89      		ldd r30,Y+18
 8139 3b9e FB89      		ldd r31,Y+19
 8140 3ba0 E050      		subi r30,lo8(-(usart_data_in+35))
 8141 3ba2 F040      		sbci r31,hi8(-(usart_data_in+35))
 8142 3ba4 6080      		ld r6,Z
 8143 3ba6 4C89      		ldd r20,Y+20
 8144 3ba8 5D89      		ldd r21,Y+21
 8145 3baa 4F5F      		subi r20,lo8(-(1))
 8146 3bac 5F4F      		sbci r21,hi8(-(1))
 8147 3bae 598F      		std Y+25,r21
 8148 3bb0 488F      		std Y+24,r20
 8149               	.LVL153:
 8150               	.LM884:
 8151 3bb2 8A89      		ldd r24,Y+18
 8152 3bb4 9B89      		ldd r25,Y+19
 8153 3bb6 8496      		adiw r24,36
 8154 3bb8 9F8B      		std Y+23,r25
 8155 3bba 8E8B      		std Y+22,r24
 8156               	.LM885:
 8157 3bbc FC01      		movw r30,r24
 8158 3bbe E050      		subi r30,lo8(-(usart_data_in))
 8159 3bc0 F040      		sbci r31,hi8(-(usart_data_in))
 8160 3bc2 6081      		ld r22,Z
 8161 3bc4 AA89      		ldd r26,Y+18
 8162 3bc6 BB89      		ldd r27,Y+19
 8163 3bc8 A050      		subi r26,lo8(-(usart_data_in+37))
 8164 3bca B040      		sbci r27,hi8(-(usart_data_in+37))
 8165 3bcc EC91      		ld r30,X
 8166 3bce 2E2E      		mov r2,r30
 8167 3bd0 3324      		clr r3
 8168 3bd2 4424      		clr r4
 8169 3bd4 5524      		clr r5
 8170 3bd6 20EB      		ldi r18,lo8(-5333328)
 8171 3bd8 3EE9      		ldi r19,hi8(-5333328)
 8172 3bda 4EEA      		ldi r20,hlo8(-5333328)
 8173 3bdc 5FEF      		ldi r21,hhi8(-5333328)
 8174 3bde 220E      		add r2,r18
 8175 3be0 331E      		adc r3,r19
 8176 3be2 441E      		adc r4,r20
 8177 3be4 551E      		adc r5,r21
 8178 3be6 70E0      		ldi r23,lo8(0)
 8179 3be8 80E0      		ldi r24,lo8(0)
 8180 3bea 90E0      		ldi r25,hi8(0)
 8181 3bec 2AE0      		ldi r18,lo8(10)
 8182 3bee 30E0      		ldi r19,hi8(10)
 8183 3bf0 40E0      		ldi r20,hlo8(10)
 8184 3bf2 50E0      		ldi r21,hhi8(10)
 8185 3bf4 0E94 0000 		call __mulsi3
 8186 3bf8 260E      		add r2,r22
 8187 3bfa 371E      		adc r3,r23
 8188 3bfc 481E      		adc r4,r24
 8189 3bfe 591E      		adc r5,r25
 8190 3c00 FF24      		clr r15
 8191 3c02 00E0      		ldi r16,lo8(0)
 8192 3c04 10E0      		ldi r17,hi8(0)
 8193 3c06 C801      		movw r24,r16
 8194 3c08 B701      		movw r22,r14
 8195 3c0a 0E94 0000 		call __mulsi3
 8196 3c0e 670D      		add r22,r7
 8197 3c10 711D      		adc r23,__zero_reg__
 8198 3c12 811D      		adc r24,__zero_reg__
 8199 3c14 911D      		adc r25,__zero_reg__
 8200 3c16 20E1      		ldi r18,lo8(10000)
 8201 3c18 37E2      		ldi r19,hi8(10000)
 8202 3c1a 40E0      		ldi r20,hlo8(10000)
 8203 3c1c 50E0      		ldi r21,hhi8(10000)
 8204 3c1e 0E94 0000 		call __mulsi3
 8205 3c22 260E      		add r2,r22
 8206 3c24 371E      		adc r3,r23
 8207 3c26 481E      		adc r4,r24
 8208 3c28 591E      		adc r5,r25
 8209 3c2a BB24      		clr r11
 8210 3c2c CC24      		clr r12
 8211 3c2e DD24      		clr r13
 8212 3c30 C601      		movw r24,r12
 8213 3c32 B501      		movw r22,r10
 8214 3c34 2AE0      		ldi r18,lo8(10)
 8215 3c36 30E0      		ldi r19,hi8(10)
 8216 3c38 40E0      		ldi r20,hlo8(10)
 8217 3c3a 50E0      		ldi r21,hhi8(10)
 8218 3c3c 0E94 0000 		call __mulsi3
 8219 3c40 660D      		add r22,r6
 8220 3c42 711D      		adc r23,__zero_reg__
 8221 3c44 811D      		adc r24,__zero_reg__
 8222 3c46 911D      		adc r25,__zero_reg__
 8223 3c48 24E6      		ldi r18,lo8(100)
 8224 3c4a 30E0      		ldi r19,hi8(100)
 8225 3c4c 40E0      		ldi r20,hlo8(100)
 8226 3c4e 50E0      		ldi r21,hhi8(100)
 8227 3c50 0E94 0000 		call __mulsi3
 8228 3c54 260E      		add r2,r22
 8229 3c56 371E      		adc r3,r23
 8230 3c58 481E      		adc r4,r24
 8231 3c5a 591E      		adc r5,r25
 8232 3c5c 40E0      		ldi r20,lo8(timer3_stop)
 8233 3c5e 50E0      		ldi r21,hi8(timer3_stop)
 8234 3c60 840E      		add r8,r20
 8235 3c62 951E      		adc r9,r21
 8236 3c64 D401      		movw r26,r8
 8237 3c66 2D92      		st X+,r2
 8238 3c68 3D92      		st X+,r3
 8239 3c6a 4D92      		st X+,r4
 8240 3c6c 5C92      		st X,r5
 8241 3c6e 1397      		sbiw r26,3
 8242               	.LM886:
 8243 3c70 E88D      		ldd r30,Y+24
 8244 3c72 F98D      		ldd r31,Y+25
 8245 3c74 E930      		cpi r30,9
 8246 3c76 F105      		cpc r31,__zero_reg__
 8247 3c78 01F0      		breq .L339
 8248 3c7a FD8B      		std Y+21,r31
 8249 3c7c EC8B      		std Y+20,r30
 8250               	.LVL154:
 8251 3c7e 2E89      		ldd r18,Y+22
 8252 3c80 3F89      		ldd r19,Y+23
 8253 3c82 3B8B      		std Y+19,r19
 8254 3c84 2A8B      		std Y+18,r18
 8255 3c86 00C0      		rjmp .L340
 8256               	.LVL155:
 8257               	.L339:
 8258               	.LBE303:
 8259               	.LM887:
 8260 3c88 8091 0000 		lds r24,usart_data_in+326
 8261 3c8c 833B      		cpi r24,lo8(-77)
 8262 3c8e 01F0      		breq .+2
 8263 3c90 00C0      		rjmp .L294
 8264               	.LM888:
 8265 3c92 1092 0000 		sts usart_data_in+326,__zero_reg__
 8266 3c96 00C0      		rjmp .L484
 8267               	.L308:
 8268               	.LM889:
 8269 3c98 0E94 0000 		call timers_data_to_uart
 8270               	.L493:
 8271               	.LM890:
 8272 3c9c 8091 0000 		lds r24,usart_data_in+2
 8273 3ca0 833B      		cpi r24,lo8(-77)
 8274 3ca2 01F0      		breq .+2
 8275 3ca4 00C0      		rjmp .L294
 8276               	.LM891:
 8277 3ca6 1092 0000 		sts usart_data_in+2,__zero_reg__
 8278 3caa 00C0      		rjmp .L484
 8279               	.L302:
 8280               	.LM892:
 8281 3cac 8091 0000 		lds r24,ph
 8282 3cb0 9091 0000 		lds r25,(ph)+1
 8283 3cb4 9093 0000 		sts (adc_ph_1)+1,r25
 8284 3cb8 8093 0000 		sts adc_ph_1,r24
 8285               	.LM893:
 8286 3cbc 6091 0000 		lds r22,usart_data_in+2
 8287 3cc0 E090 0000 		lds r14,usart_data_in+3
 8288 3cc4 A090 0000 		lds r10,usart_data_in+4
 8289 3cc8 8091 0000 		lds r24,usart_data_in+5
 8290 3ccc 682E      		mov r6,r24
 8291 3cce 7724      		clr r7
 8292 3cd0 8824      		clr r8
 8293 3cd2 9924      		clr r9
 8294 3cd4 80EB      		ldi r24,lo8(-53328)
 8295 3cd6 9FE2      		ldi r25,hi8(-53328)
 8296 3cd8 AFEF      		ldi r26,hlo8(-53328)
 8297 3cda BFEF      		ldi r27,hhi8(-53328)
 8298 3cdc 680E      		add r6,r24
 8299 3cde 791E      		adc r7,r25
 8300 3ce0 8A1E      		adc r8,r26
 8301 3ce2 9B1E      		adc r9,r27
 8302 3ce4 70E0      		ldi r23,lo8(0)
 8303 3ce6 80E0      		ldi r24,lo8(0)
 8304 3ce8 90E0      		ldi r25,hi8(0)
 8305 3cea 28EE      		ldi r18,lo8(1000)
 8306 3cec 33E0      		ldi r19,hi8(1000)
 8307 3cee 40E0      		ldi r20,hlo8(1000)
 8308 3cf0 50E0      		ldi r21,hhi8(1000)
 8309 3cf2 0E94 0000 		call __mulsi3
 8310 3cf6 660E      		add r6,r22
 8311 3cf8 771E      		adc r7,r23
 8312 3cfa 881E      		adc r8,r24
 8313 3cfc 991E      		adc r9,r25
 8314 3cfe FF24      		clr r15
 8315 3d00 00E0      		ldi r16,lo8(0)
 8316 3d02 10E0      		ldi r17,hi8(0)
 8317 3d04 C801      		movw r24,r16
 8318 3d06 B701      		movw r22,r14
 8319 3d08 24E6      		ldi r18,lo8(100)
 8320 3d0a 30E0      		ldi r19,hi8(100)
 8321 3d0c 40E0      		ldi r20,hlo8(100)
 8322 3d0e 50E0      		ldi r21,hhi8(100)
 8323 3d10 0E94 0000 		call __mulsi3
 8324 3d14 660E      		add r6,r22
 8325 3d16 771E      		adc r7,r23
 8326 3d18 881E      		adc r8,r24
 8327 3d1a 991E      		adc r9,r25
 8328 3d1c BB24      		clr r11
 8329 3d1e CC24      		clr r12
 8330 3d20 DD24      		clr r13
 8331 3d22 C601      		movw r24,r12
 8332 3d24 B501      		movw r22,r10
 8333 3d26 2AE0      		ldi r18,lo8(10)
 8334 3d28 30E0      		ldi r19,hi8(10)
 8335 3d2a 40E0      		ldi r20,hlo8(10)
 8336 3d2c 50E0      		ldi r21,hhi8(10)
 8337 3d2e 0E94 0000 		call __mulsi3
 8338 3d32 660E      		add r6,r22
 8339 3d34 771E      		adc r7,r23
 8340 3d36 881E      		adc r8,r24
 8341 3d38 991E      		adc r9,r25
 8342 3d3a 6092 0000 		sts adc_ph_1_calibr,r6
 8343 3d3e 7092 0000 		sts (adc_ph_1_calibr)+1,r7
 8344 3d42 8092 0000 		sts (adc_ph_1_calibr)+2,r8
 8345 3d46 9092 0000 		sts (adc_ph_1_calibr)+3,r9
 8346               	.LM894:
 8347 3d4a 6091 0000 		lds r22,usart_data_in+6
 8348 3d4e E090 0000 		lds r14,usart_data_in+7
 8349 3d52 A090 0000 		lds r10,usart_data_in+8
 8350 3d56 8091 0000 		lds r24,usart_data_in+9
 8351 3d5a 682E      		mov r6,r24
 8352 3d5c 7724      		clr r7
 8353 3d5e 8824      		clr r8
 8354 3d60 9924      		clr r9
 8355 3d62 20EB      		ldi r18,lo8(-53328)
 8356 3d64 3FE2      		ldi r19,hi8(-53328)
 8357 3d66 4FEF      		ldi r20,hlo8(-53328)
 8358 3d68 5FEF      		ldi r21,hhi8(-53328)
 8359 3d6a 620E      		add r6,r18
 8360 3d6c 731E      		adc r7,r19
 8361 3d6e 841E      		adc r8,r20
 8362 3d70 951E      		adc r9,r21
 8363 3d72 70E0      		ldi r23,lo8(0)
 8364 3d74 80E0      		ldi r24,lo8(0)
 8365 3d76 90E0      		ldi r25,hi8(0)
 8366 3d78 28EE      		ldi r18,lo8(1000)
 8367 3d7a 33E0      		ldi r19,hi8(1000)
 8368 3d7c 40E0      		ldi r20,hlo8(1000)
 8369 3d7e 50E0      		ldi r21,hhi8(1000)
 8370 3d80 0E94 0000 		call __mulsi3
 8371 3d84 660E      		add r6,r22
 8372 3d86 771E      		adc r7,r23
 8373 3d88 881E      		adc r8,r24
 8374 3d8a 991E      		adc r9,r25
 8375 3d8c FF24      		clr r15
 8376 3d8e 00E0      		ldi r16,lo8(0)
 8377 3d90 10E0      		ldi r17,hi8(0)
 8378 3d92 C801      		movw r24,r16
 8379 3d94 B701      		movw r22,r14
 8380 3d96 24E6      		ldi r18,lo8(100)
 8381 3d98 30E0      		ldi r19,hi8(100)
 8382 3d9a 40E0      		ldi r20,hlo8(100)
 8383 3d9c 50E0      		ldi r21,hhi8(100)
 8384 3d9e 0E94 0000 		call __mulsi3
 8385 3da2 660E      		add r6,r22
 8386 3da4 771E      		adc r7,r23
 8387 3da6 881E      		adc r8,r24
 8388 3da8 991E      		adc r9,r25
 8389 3daa BB24      		clr r11
 8390 3dac CC24      		clr r12
 8391 3dae DD24      		clr r13
 8392 3db0 C601      		movw r24,r12
 8393 3db2 B501      		movw r22,r10
 8394 3db4 2AE0      		ldi r18,lo8(10)
 8395 3db6 30E0      		ldi r19,hi8(10)
 8396 3db8 40E0      		ldi r20,hlo8(10)
 8397 3dba 50E0      		ldi r21,hhi8(10)
 8398 3dbc 0E94 0000 		call __mulsi3
 8399 3dc0 660E      		add r6,r22
 8400 3dc2 771E      		adc r7,r23
 8401 3dc4 881E      		adc r8,r24
 8402 3dc6 991E      		adc r9,r25
 8403 3dc8 6092 0000 		sts adc_ph_2_calibr,r6
 8404 3dcc 7092 0000 		sts (adc_ph_2_calibr)+1,r7
 8405 3dd0 8092 0000 		sts (adc_ph_2_calibr)+2,r8
 8406 3dd4 9092 0000 		sts (adc_ph_2_calibr)+3,r9
 8407 3dd8 00C0      		rjmp .L503
 8408               	.L303:
 8409               	.LM895:
 8410 3dda E090 0000 		lds r14,ph
 8411 3dde F090 0000 		lds r15,(ph)+1
 8412 3de2 F092 0000 		sts (adc_ph_2)+1,r15
 8413 3de6 E092 0000 		sts adc_ph_2,r14
 8414               	.LM896:
 8415 3dea 6090 0000 		lds r6,adc_ph_1_calibr
 8416 3dee 7090 0000 		lds r7,(adc_ph_1_calibr)+1
 8417 3df2 8090 0000 		lds r8,(adc_ph_1_calibr)+2
 8418 3df6 9090 0000 		lds r9,(adc_ph_1_calibr)+3
 8419 3dfa 8091 0000 		lds r24,adc_ph_2_calibr
 8420 3dfe 9091 0000 		lds r25,(adc_ph_2_calibr)+1
 8421 3e02 A091 0000 		lds r26,(adc_ph_2_calibr)+2
 8422 3e06 B091 0000 		lds r27,(adc_ph_2_calibr)+3
 8423 3e0a A401      		movw r20,r8
 8424 3e0c 9301      		movw r18,r6
 8425 3e0e 281B      		sub r18,r24
 8426 3e10 390B      		sbc r19,r25
 8427 3e12 4A0B      		sbc r20,r26
 8428 3e14 5B0B      		sbc r21,r27
 8429 3e16 CA01      		movw r24,r20
 8430 3e18 B901      		movw r22,r18
 8431 3e1a 28EE      		ldi r18,lo8(1000)
 8432 3e1c 33E0      		ldi r19,hi8(1000)
 8433 3e1e 40E0      		ldi r20,hlo8(1000)
 8434 3e20 50E0      		ldi r21,hhi8(1000)
 8435 3e22 0E94 0000 		call __mulsi3
 8436 3e26 A090 0000 		lds r10,adc_ph_1
 8437 3e2a B090 0000 		lds r11,(adc_ph_1)+1
 8438 3e2e CC24      		clr r12
 8439 3e30 DD24      		clr r13
 8440 3e32 00E0      		ldi r16,lo8(0)
 8441 3e34 10E0      		ldi r17,hi8(0)
 8442 3e36 A601      		movw r20,r12
 8443 3e38 9501      		movw r18,r10
 8444 3e3a 2E19      		sub r18,r14
 8445 3e3c 3F09      		sbc r19,r15
 8446 3e3e 400B      		sbc r20,r16
 8447 3e40 510B      		sbc r21,r17
 8448 3e42 0E94 0000 		call __divmodsi4
 8449 3e46 522E      		mov r5,r18
 8450 3e48 432E      		mov r4,r19
 8451 3e4a 342E      		mov r3,r20
 8452 3e4c 252E      		mov r2,r21
 8453 3e4e 2093 0000 		sts k1,r18
 8454 3e52 3093 0000 		sts k1+1,r19
 8455 3e56 4093 0000 		sts k1+2,r20
 8456 3e5a 5093 0000 		sts k1+3,r21
 8457               	.LM897:
 8458 3e5e C401      		movw r24,r8
 8459 3e60 B301      		movw r22,r6
 8460 3e62 28EE      		ldi r18,lo8(1000)
 8461 3e64 33E0      		ldi r19,hi8(1000)
 8462 3e66 40E0      		ldi r20,hlo8(1000)
 8463 3e68 50E0      		ldi r21,hhi8(1000)
 8464 3e6a 0E94 0000 		call __mulsi3
 8465 3e6e 7B01      		movw r14,r22
 8466 3e70 8C01      		movw r16,r24
 8467 3e72 652D      		mov r22,r5
 8468 3e74 742D      		mov r23,r4
 8469 3e76 832D      		mov r24,r3
 8470 3e78 922D      		mov r25,r2
 8471 3e7a A601      		movw r20,r12
 8472 3e7c 9501      		movw r18,r10
 8473 3e7e 0E94 0000 		call __mulsi3
 8474 3e82 E61A      		sub r14,r22
 8475 3e84 F70A      		sbc r15,r23
 8476 3e86 080B      		sbc r16,r24
 8477 3e88 190B      		sbc r17,r25
 8478 3e8a E092 0000 		sts k2,r14
 8479 3e8e F092 0000 		sts (k2)+1,r15
 8480 3e92 0093 0000 		sts (k2)+2,r16
 8481 3e96 1093 0000 		sts (k2)+3,r17
 8482 3e9a 00C0      		rjmp .L503
 8483               	.L304:
 8484               	.LM898:
 8485 3e9c E090 0000 		lds r14,redox
 8486 3ea0 F090 0000 		lds r15,(redox)+1
 8487 3ea4 F092 0000 		sts (adc_redox)+1,r15
 8488 3ea8 E092 0000 		sts adc_redox,r14
 8489               	.LM899:
 8490 3eac 2091 0000 		lds r18,usart_data_in+10
 8491 3eb0 E091 0000 		lds r30,usart_data_in+11
 8492 3eb4 6091 0000 		lds r22,usart_data_in+12
 8493 3eb8 70E0      		ldi r23,lo8(0)
 8494 3eba 605D      		subi r22,lo8(-(-5328))
 8495 3ebc 7441      		sbci r23,hi8(-(-5328))
 8496 3ebe 44E6      		ldi r20,lo8(100)
 8497 3ec0 249F      		mul r18,r20
 8498 3ec2 9001      		movw r18,r0
 8499 3ec4 1124      		clr r1
 8500 3ec6 620F      		add r22,r18
 8501 3ec8 731F      		adc r23,r19
 8502 3eca 2AE0      		ldi r18,lo8(10)
 8503 3ecc E29F      		mul r30,r18
 8504 3ece F001      		movw r30,r0
 8505 3ed0 1124      		clr r1
 8506 3ed2 6E0F      		add r22,r30
 8507 3ed4 7F1F      		adc r23,r31
 8508 3ed6 8827      		clr r24
 8509 3ed8 77FD      		sbrc r23,7
 8510 3eda 8095      		com r24
 8511 3edc 982F      		mov r25,r24
 8512 3ede 6093 0000 		sts adc_redox_calibr,r22
 8513 3ee2 7093 0000 		sts (adc_redox_calibr)+1,r23
 8514 3ee6 8093 0000 		sts (adc_redox_calibr)+2,r24
 8515 3eea 9093 0000 		sts (adc_redox_calibr)+3,r25
 8516               	.LM900:
 8517 3eee 28EE      		ldi r18,lo8(1000)
 8518 3ef0 33E0      		ldi r19,hi8(1000)
 8519 3ef2 40E0      		ldi r20,hlo8(1000)
 8520 3ef4 50E0      		ldi r21,hhi8(1000)
 8521 3ef6 0E94 0000 		call __mulsi3
 8522 3efa 00E0      		ldi r16,lo8(0)
 8523 3efc 10E0      		ldi r17,hi8(0)
 8524 3efe A801      		movw r20,r16
 8525 3f00 9701      		movw r18,r14
 8526 3f02 0E94 0000 		call __udivmodsi4
 8527 3f06 2093 0000 		sts k,r18
 8528 3f0a 3093 0000 		sts (k)+1,r19
 8529 3f0e 4093 0000 		sts (k)+2,r20
 8530 3f12 5093 0000 		sts (k)+3,r21
 8531               	.L503:
 8532               	.LM901:
 8533 3f16 8091 0000 		lds r24,usart_data_in+13
 8534 3f1a 833B      		cpi r24,lo8(-77)
 8535 3f1c 01F4      		brne .L294
 8536               	.LM902:
 8537 3f1e 1092 0000 		sts usart_data_in+13,__zero_reg__
 8538               	.L484:
 8539               	.LM903:
 8540 3f22 1092 0000 		sts usart_data_in+1,__zero_reg__
 8541               	.L294:
 8542               	.LM904:
 8543 3f26 6091 0000 		lds r22,string_1+3
 8544 3f2a 70E0      		ldi r23,lo8(0)
 8545 3f2c 80E0      		ldi r24,lo8(0)
 8546 3f2e 90E0      		ldi r25,hi8(0)
 8547 3f30 2AE0      		ldi r18,lo8(10)
 8548 3f32 30E0      		ldi r19,hi8(10)
 8549 3f34 40E0      		ldi r20,hlo8(10)
 8550 3f36 50E0      		ldi r21,hhi8(10)
 8551 3f38 0E94 0000 		call __mulsi3
 8552 3f3c 2091 0000 		lds r18,string_1+4
 8553 3f40 620F      		add r22,r18
 8554 3f42 711D      		adc r23,__zero_reg__
 8555 3f44 811D      		adc r24,__zero_reg__
 8556 3f46 911D      		adc r25,__zero_reg__
 8557 3f48 24E6      		ldi r18,lo8(100)
 8558 3f4a 30E0      		ldi r19,hi8(100)
 8559 3f4c 40E0      		ldi r20,hlo8(100)
 8560 3f4e 50E0      		ldi r21,hhi8(100)
 8561 3f50 0E94 0000 		call __mulsi3
 8562 3f54 5B01      		movw r10,r22
 8563 3f56 6C01      		movw r12,r24
 8564 3f58 6091 0000 		lds r22,string_1+6
 8565 3f5c 70E0      		ldi r23,lo8(0)
 8566 3f5e 80E0      		ldi r24,lo8(0)
 8567 3f60 90E0      		ldi r25,hi8(0)
 8568 3f62 2AE0      		ldi r18,lo8(10)
 8569 3f64 30E0      		ldi r19,hi8(10)
 8570 3f66 40E0      		ldi r20,hlo8(10)
 8571 3f68 50E0      		ldi r21,hhi8(10)
 8572 3f6a 0E94 0000 		call __mulsi3
 8573 3f6e 7B01      		movw r14,r22
 8574 3f70 8C01      		movw r16,r24
 8575 3f72 8091 0000 		lds r24,string_1+7
 8576 3f76 E80E      		add r14,r24
 8577 3f78 F11C      		adc r15,__zero_reg__
 8578 3f7a 011D      		adc r16,__zero_reg__
 8579 3f7c 111D      		adc r17,__zero_reg__
 8580 3f7e 80EB      		ldi r24,lo8(-5333328)
 8581 3f80 9EE9      		ldi r25,hi8(-5333328)
 8582 3f82 AEEA      		ldi r26,hlo8(-5333328)
 8583 3f84 BFEF      		ldi r27,hhi8(-5333328)
 8584 3f86 E80E      		add r14,r24
 8585 3f88 F91E      		adc r15,r25
 8586 3f8a 0A1F      		adc r16,r26
 8587 3f8c 1B1F      		adc r17,r27
 8588 3f8e 6091 0000 		lds r22,string_1
 8589 3f92 70E0      		ldi r23,lo8(0)
 8590 3f94 80E0      		ldi r24,lo8(0)
 8591 3f96 90E0      		ldi r25,hi8(0)
 8592 3f98 0E94 0000 		call __mulsi3
 8593 3f9c 2091 0000 		lds r18,string_1+1
 8594 3fa0 620F      		add r22,r18
 8595 3fa2 711D      		adc r23,__zero_reg__
 8596 3fa4 811D      		adc r24,__zero_reg__
 8597 3fa6 911D      		adc r25,__zero_reg__
 8598 3fa8 20E1      		ldi r18,lo8(10000)
 8599 3faa 37E2      		ldi r19,hi8(10000)
 8600 3fac 40E0      		ldi r20,hlo8(10000)
 8601 3fae 50E0      		ldi r21,hhi8(10000)
 8602 3fb0 0E94 0000 		call __mulsi3
 8603 3fb4 6E0D      		add r22,r14
 8604 3fb6 7F1D      		adc r23,r15
 8605 3fb8 801F      		adc r24,r16
 8606 3fba 911F      		adc r25,r17
 8607 3fbc 6A0D      		add r22,r10
 8608 3fbe 7B1D      		adc r23,r11
 8609 3fc0 8C1D      		adc r24,r12
 8610 3fc2 9D1D      		adc r25,r13
 8611 3fc4 6093 0000 		sts time_now,r22
 8612 3fc8 7093 0000 		sts (time_now)+1,r23
 8613 3fcc 8093 0000 		sts (time_now)+2,r24
 8614 3fd0 9093 0000 		sts (time_now)+3,r25
 8615               	.LM905:
 8616 3fd4 20E0      		ldi r18,lo8(5280000)
 8617 3fd6 31E9      		ldi r19,hi8(5280000)
 8618 3fd8 40E5      		ldi r20,hlo8(5280000)
 8619 3fda 50E0      		ldi r21,hhi8(5280000)
 8620 3fdc E20E      		add r14,r18
 8621 3fde F31E      		adc r15,r19
 8622 3fe0 041F      		adc r16,r20
 8623 3fe2 151F      		adc r17,r21
 8624 3fe4 EA0C      		add r14,r10
 8625 3fe6 FB1C      		adc r15,r11
 8626 3fe8 0C1D      		adc r16,r12
 8627 3fea 1D1D      		adc r17,r13
 8628 3fec E092 0000 		sts time_min_and_sec,r14
 8629 3ff0 F092 0000 		sts (time_min_and_sec)+1,r15
 8630 3ff4 0093 0000 		sts (time_min_and_sec)+2,r16
 8631 3ff8 1093 0000 		sts (time_min_and_sec)+3,r17
 8632               	.LM906:
 8633 3ffc AC98      		cbi 53-32,4
 8634               	.LM907:
 8635 3ffe 8091 0000 		lds r24,time_one_sec
 8636 4002 8F5F      		subi r24,lo8(-(1))
 8637 4004 8093 0000 		sts time_one_sec,r24
 8638               	.LM908:
 8639 4008 8330      		cpi r24,lo8(3)
 8640 400a 01F0      		breq .+2
 8641 400c 00C0      		rjmp .L341
 8642               	.LM909:
 8643 400e 2091 0000 		lds r18,time_now
 8644 4012 3091 0000 		lds r19,(time_now)+1
 8645 4016 4091 0000 		lds r20,(time_now)+2
 8646 401a 5091 0000 		lds r21,(time_now)+3
 8647 401e 8091 0000 		lds r24,timer1_start
 8648 4022 9091 0000 		lds r25,(timer1_start)+1
 8649 4026 A091 0000 		lds r26,(timer1_start)+2
 8650 402a B091 0000 		lds r27,(timer1_start)+3
 8651 402e 2817      		cp r18,r24
 8652 4030 3907      		cpc r19,r25
 8653 4032 4A07      		cpc r20,r26
 8654 4034 5B07      		cpc r21,r27
 8655 4036 00F0      		brlo .L342
 8656 4038 2091 0000 		lds r18,time_now
 8657 403c 3091 0000 		lds r19,(time_now)+1
 8658 4040 4091 0000 		lds r20,(time_now)+2
 8659 4044 5091 0000 		lds r21,(time_now)+3
 8660 4048 8091 0000 		lds r24,timer1_stop
 8661 404c 9091 0000 		lds r25,(timer1_stop)+1
 8662 4050 A091 0000 		lds r26,(timer1_stop)+2
 8663 4054 B091 0000 		lds r27,(timer1_stop)+3
 8664 4058 2817      		cp r18,r24
 8665 405a 3907      		cpc r19,r25
 8666 405c 4A07      		cpc r20,r26
 8667 405e 5B07      		cpc r21,r27
 8668 4060 00F4      		brsh .L342
 8669 4062 2091 0000 		lds r18,timer1_start
 8670 4066 3091 0000 		lds r19,(timer1_start)+1
 8671 406a 4091 0000 		lds r20,(timer1_start)+2
 8672 406e 5091 0000 		lds r21,(timer1_start)+3
 8673 4072 8091 0000 		lds r24,timer1_stop
 8674 4076 9091 0000 		lds r25,(timer1_stop)+1
 8675 407a A091 0000 		lds r26,(timer1_stop)+2
 8676 407e B091 0000 		lds r27,(timer1_stop)+3
 8677 4082 2817      		cp r18,r24
 8678 4084 3907      		cpc r19,r25
 8679 4086 4A07      		cpc r20,r26
 8680 4088 5B07      		cpc r21,r27
 8681 408a 01F0      		breq .+2
 8682 408c 00C0      		rjmp .L343
 8683               	.L342:
 8684 408e 2091 0000 		lds r18,time_now
 8685 4092 3091 0000 		lds r19,(time_now)+1
 8686 4096 4091 0000 		lds r20,(time_now)+2
 8687 409a 5091 0000 		lds r21,(time_now)+3
 8688 409e 8091 0000 		lds r24,timer2_start
 8689 40a2 9091 0000 		lds r25,(timer2_start)+1
 8690 40a6 A091 0000 		lds r26,(timer2_start)+2
 8691 40aa B091 0000 		lds r27,(timer2_start)+3
 8692 40ae 2817      		cp r18,r24
 8693 40b0 3907      		cpc r19,r25
 8694 40b2 4A07      		cpc r20,r26
 8695 40b4 5B07      		cpc r21,r27
 8696 40b6 00F0      		brlo .L344
 8697 40b8 2091 0000 		lds r18,time_now
 8698 40bc 3091 0000 		lds r19,(time_now)+1
 8699 40c0 4091 0000 		lds r20,(time_now)+2
 8700 40c4 5091 0000 		lds r21,(time_now)+3
 8701 40c8 8091 0000 		lds r24,timer2_stop
 8702 40cc 9091 0000 		lds r25,(timer2_stop)+1
 8703 40d0 A091 0000 		lds r26,(timer2_stop)+2
 8704 40d4 B091 0000 		lds r27,(timer2_stop)+3
 8705 40d8 2817      		cp r18,r24
 8706 40da 3907      		cpc r19,r25
 8707 40dc 4A07      		cpc r20,r26
 8708 40de 5B07      		cpc r21,r27
 8709 40e0 00F4      		brsh .L344
 8710 40e2 2091 0000 		lds r18,timer2_start
 8711 40e6 3091 0000 		lds r19,(timer2_start)+1
 8712 40ea 4091 0000 		lds r20,(timer2_start)+2
 8713 40ee 5091 0000 		lds r21,(timer2_start)+3
 8714 40f2 8091 0000 		lds r24,timer2_stop
 8715 40f6 9091 0000 		lds r25,(timer2_stop)+1
 8716 40fa A091 0000 		lds r26,(timer2_stop)+2
 8717 40fe B091 0000 		lds r27,(timer2_stop)+3
 8718 4102 2817      		cp r18,r24
 8719 4104 3907      		cpc r19,r25
 8720 4106 4A07      		cpc r20,r26
 8721 4108 5B07      		cpc r21,r27
 8722 410a 01F0      		breq .+2
 8723 410c 00C0      		rjmp .L343
 8724               	.L344:
 8725 410e 2091 0000 		lds r18,time_now
 8726 4112 3091 0000 		lds r19,(time_now)+1
 8727 4116 4091 0000 		lds r20,(time_now)+2
 8728 411a 5091 0000 		lds r21,(time_now)+3
 8729 411e 8091 0000 		lds r24,timer3_start
 8730 4122 9091 0000 		lds r25,(timer3_start)+1
 8731 4126 A091 0000 		lds r26,(timer3_start)+2
 8732 412a B091 0000 		lds r27,(timer3_start)+3
 8733 412e 2817      		cp r18,r24
 8734 4130 3907      		cpc r19,r25
 8735 4132 4A07      		cpc r20,r26
 8736 4134 5B07      		cpc r21,r27
 8737 4136 00F0      		brlo .L345
 8738 4138 2091 0000 		lds r18,time_now
 8739 413c 3091 0000 		lds r19,(time_now)+1
 8740 4140 4091 0000 		lds r20,(time_now)+2
 8741 4144 5091 0000 		lds r21,(time_now)+3
 8742 4148 8091 0000 		lds r24,timer3_stop
 8743 414c 9091 0000 		lds r25,(timer3_stop)+1
 8744 4150 A091 0000 		lds r26,(timer3_stop)+2
 8745 4154 B091 0000 		lds r27,(timer3_stop)+3
 8746 4158 2817      		cp r18,r24
 8747 415a 3907      		cpc r19,r25
 8748 415c 4A07      		cpc r20,r26
 8749 415e 5B07      		cpc r21,r27
 8750 4160 00F4      		brsh .L345
 8751 4162 2091 0000 		lds r18,timer3_start
 8752 4166 3091 0000 		lds r19,(timer3_start)+1
 8753 416a 4091 0000 		lds r20,(timer3_start)+2
 8754 416e 5091 0000 		lds r21,(timer3_start)+3
 8755 4172 8091 0000 		lds r24,timer3_stop
 8756 4176 9091 0000 		lds r25,(timer3_stop)+1
 8757 417a A091 0000 		lds r26,(timer3_stop)+2
 8758 417e B091 0000 		lds r27,(timer3_stop)+3
 8759 4182 2817      		cp r18,r24
 8760 4184 3907      		cpc r19,r25
 8761 4186 4A07      		cpc r20,r26
 8762 4188 5B07      		cpc r21,r27
 8763 418a 01F4      		brne .L343
 8764               	.L345:
 8765 418c 8091 0000 		lds r24,rele_set
 8766 4190 8130      		cpi r24,lo8(1)
 8767 4192 01F4      		brne .L346
 8768               	.L343:
 8769               	.LM910:
 8770 4194 949A      		sbi 50-32,4
 8771 4196 00C0      		rjmp .L347
 8772               	.L346:
 8773               	.LM911:
 8774 4198 9498      		cbi 50-32,4
 8775 419a 1092 0000 		sts rele_set,__zero_reg__
 8776               	.L347:
 8777               	.LM912:
 8778 419e 2091 0000 		lds r18,time_now
 8779 41a2 3091 0000 		lds r19,(time_now)+1
 8780 41a6 4091 0000 		lds r20,(time_now)+2
 8781 41aa 5091 0000 		lds r21,(time_now)+3
 8782 41ae 8091 0000 		lds r24,timer1_start+4
 8783 41b2 9091 0000 		lds r25,(timer1_start+4)+1
 8784 41b6 A091 0000 		lds r26,(timer1_start+4)+2
 8785 41ba B091 0000 		lds r27,(timer1_start+4)+3
 8786 41be 2817      		cp r18,r24
 8787 41c0 3907      		cpc r19,r25
 8788 41c2 4A07      		cpc r20,r26
 8789 41c4 5B07      		cpc r21,r27
 8790 41c6 00F0      		brlo .L348
 8791 41c8 2091 0000 		lds r18,time_now
 8792 41cc 3091 0000 		lds r19,(time_now)+1
 8793 41d0 4091 0000 		lds r20,(time_now)+2
 8794 41d4 5091 0000 		lds r21,(time_now)+3
 8795 41d8 8091 0000 		lds r24,timer1_stop+4
 8796 41dc 9091 0000 		lds r25,(timer1_stop+4)+1
 8797 41e0 A091 0000 		lds r26,(timer1_stop+4)+2
 8798 41e4 B091 0000 		lds r27,(timer1_stop+4)+3
 8799 41e8 2817      		cp r18,r24
 8800 41ea 3907      		cpc r19,r25
 8801 41ec 4A07      		cpc r20,r26
 8802 41ee 5B07      		cpc r21,r27
 8803 41f0 00F4      		brsh .L348
 8804 41f2 2091 0000 		lds r18,timer1_start+4
 8805 41f6 3091 0000 		lds r19,(timer1_start+4)+1
 8806 41fa 4091 0000 		lds r20,(timer1_start+4)+2
 8807 41fe 5091 0000 		lds r21,(timer1_start+4)+3
 8808 4202 8091 0000 		lds r24,timer1_stop+4
 8809 4206 9091 0000 		lds r25,(timer1_stop+4)+1
 8810 420a A091 0000 		lds r26,(timer1_stop+4)+2
 8811 420e B091 0000 		lds r27,(timer1_stop+4)+3
 8812 4212 2817      		cp r18,r24
 8813 4214 3907      		cpc r19,r25
 8814 4216 4A07      		cpc r20,r26
 8815 4218 5B07      		cpc r21,r27
 8816 421a 01F0      		breq .+2
 8817 421c 00C0      		rjmp .L349
 8818               	.L348:
 8819 421e 2091 0000 		lds r18,time_now
 8820 4222 3091 0000 		lds r19,(time_now)+1
 8821 4226 4091 0000 		lds r20,(time_now)+2
 8822 422a 5091 0000 		lds r21,(time_now)+3
 8823 422e 8091 0000 		lds r24,timer2_start+4
 8824 4232 9091 0000 		lds r25,(timer2_start+4)+1
 8825 4236 A091 0000 		lds r26,(timer2_start+4)+2
 8826 423a B091 0000 		lds r27,(timer2_start+4)+3
 8827 423e 2817      		cp r18,r24
 8828 4240 3907      		cpc r19,r25
 8829 4242 4A07      		cpc r20,r26
 8830 4244 5B07      		cpc r21,r27
 8831 4246 00F0      		brlo .L350
 8832 4248 2091 0000 		lds r18,time_now
 8833 424c 3091 0000 		lds r19,(time_now)+1
 8834 4250 4091 0000 		lds r20,(time_now)+2
 8835 4254 5091 0000 		lds r21,(time_now)+3
 8836 4258 8091 0000 		lds r24,timer2_stop+4
 8837 425c 9091 0000 		lds r25,(timer2_stop+4)+1
 8838 4260 A091 0000 		lds r26,(timer2_stop+4)+2
 8839 4264 B091 0000 		lds r27,(timer2_stop+4)+3
 8840 4268 2817      		cp r18,r24
 8841 426a 3907      		cpc r19,r25
 8842 426c 4A07      		cpc r20,r26
 8843 426e 5B07      		cpc r21,r27
 8844 4270 00F4      		brsh .L350
 8845 4272 2091 0000 		lds r18,timer2_start+4
 8846 4276 3091 0000 		lds r19,(timer2_start+4)+1
 8847 427a 4091 0000 		lds r20,(timer2_start+4)+2
 8848 427e 5091 0000 		lds r21,(timer2_start+4)+3
 8849 4282 8091 0000 		lds r24,timer2_stop+4
 8850 4286 9091 0000 		lds r25,(timer2_stop+4)+1
 8851 428a A091 0000 		lds r26,(timer2_stop+4)+2
 8852 428e B091 0000 		lds r27,(timer2_stop+4)+3
 8853 4292 2817      		cp r18,r24
 8854 4294 3907      		cpc r19,r25
 8855 4296 4A07      		cpc r20,r26
 8856 4298 5B07      		cpc r21,r27
 8857 429a 01F0      		breq .+2
 8858 429c 00C0      		rjmp .L349
 8859               	.L350:
 8860 429e 2091 0000 		lds r18,time_now
 8861 42a2 3091 0000 		lds r19,(time_now)+1
 8862 42a6 4091 0000 		lds r20,(time_now)+2
 8863 42aa 5091 0000 		lds r21,(time_now)+3
 8864 42ae 8091 0000 		lds r24,timer3_start+4
 8865 42b2 9091 0000 		lds r25,(timer3_start+4)+1
 8866 42b6 A091 0000 		lds r26,(timer3_start+4)+2
 8867 42ba B091 0000 		lds r27,(timer3_start+4)+3
 8868 42be 2817      		cp r18,r24
 8869 42c0 3907      		cpc r19,r25
 8870 42c2 4A07      		cpc r20,r26
 8871 42c4 5B07      		cpc r21,r27
 8872 42c6 00F0      		brlo .L351
 8873 42c8 2091 0000 		lds r18,time_now
 8874 42cc 3091 0000 		lds r19,(time_now)+1
 8875 42d0 4091 0000 		lds r20,(time_now)+2
 8876 42d4 5091 0000 		lds r21,(time_now)+3
 8877 42d8 8091 0000 		lds r24,timer3_stop+4
 8878 42dc 9091 0000 		lds r25,(timer3_stop+4)+1
 8879 42e0 A091 0000 		lds r26,(timer3_stop+4)+2
 8880 42e4 B091 0000 		lds r27,(timer3_stop+4)+3
 8881 42e8 2817      		cp r18,r24
 8882 42ea 3907      		cpc r19,r25
 8883 42ec 4A07      		cpc r20,r26
 8884 42ee 5B07      		cpc r21,r27
 8885 42f0 00F4      		brsh .L351
 8886 42f2 2091 0000 		lds r18,timer3_start+4
 8887 42f6 3091 0000 		lds r19,(timer3_start+4)+1
 8888 42fa 4091 0000 		lds r20,(timer3_start+4)+2
 8889 42fe 5091 0000 		lds r21,(timer3_start+4)+3
 8890 4302 8091 0000 		lds r24,timer3_stop+4
 8891 4306 9091 0000 		lds r25,(timer3_stop+4)+1
 8892 430a A091 0000 		lds r26,(timer3_stop+4)+2
 8893 430e B091 0000 		lds r27,(timer3_stop+4)+3
 8894 4312 2817      		cp r18,r24
 8895 4314 3907      		cpc r19,r25
 8896 4316 4A07      		cpc r20,r26
 8897 4318 5B07      		cpc r21,r27
 8898 431a 01F4      		brne .L349
 8899               	.L351:
 8900 431c 8091 0000 		lds r24,rele_set+1
 8901 4320 8130      		cpi r24,lo8(1)
 8902 4322 01F4      		brne .L352
 8903               	.L349:
 8904               	.LM913:
 8905 4324 959A      		sbi 50-32,5
 8906 4326 00C0      		rjmp .L353
 8907               	.L352:
 8908               	.LM914:
 8909 4328 9598      		cbi 50-32,5
 8910 432a 1092 0000 		sts rele_set+1,__zero_reg__
 8911               	.L353:
 8912               	.LM915:
 8913 432e 2091 0000 		lds r18,time_now
 8914 4332 3091 0000 		lds r19,(time_now)+1
 8915 4336 4091 0000 		lds r20,(time_now)+2
 8916 433a 5091 0000 		lds r21,(time_now)+3
 8917 433e 8091 0000 		lds r24,timer1_start+8
 8918 4342 9091 0000 		lds r25,(timer1_start+8)+1
 8919 4346 A091 0000 		lds r26,(timer1_start+8)+2
 8920 434a B091 0000 		lds r27,(timer1_start+8)+3
 8921 434e 2817      		cp r18,r24
 8922 4350 3907      		cpc r19,r25
 8923 4352 4A07      		cpc r20,r26
 8924 4354 5B07      		cpc r21,r27
 8925 4356 00F0      		brlo .L354
 8926 4358 2091 0000 		lds r18,time_now
 8927 435c 3091 0000 		lds r19,(time_now)+1
 8928 4360 4091 0000 		lds r20,(time_now)+2
 8929 4364 5091 0000 		lds r21,(time_now)+3
 8930 4368 8091 0000 		lds r24,timer1_stop+8
 8931 436c 9091 0000 		lds r25,(timer1_stop+8)+1
 8932 4370 A091 0000 		lds r26,(timer1_stop+8)+2
 8933 4374 B091 0000 		lds r27,(timer1_stop+8)+3
 8934 4378 2817      		cp r18,r24
 8935 437a 3907      		cpc r19,r25
 8936 437c 4A07      		cpc r20,r26
 8937 437e 5B07      		cpc r21,r27
 8938 4380 00F4      		brsh .L354
 8939 4382 2091 0000 		lds r18,timer1_start+8
 8940 4386 3091 0000 		lds r19,(timer1_start+8)+1
 8941 438a 4091 0000 		lds r20,(timer1_start+8)+2
 8942 438e 5091 0000 		lds r21,(timer1_start+8)+3
 8943 4392 8091 0000 		lds r24,timer1_stop+8
 8944 4396 9091 0000 		lds r25,(timer1_stop+8)+1
 8945 439a A091 0000 		lds r26,(timer1_stop+8)+2
 8946 439e B091 0000 		lds r27,(timer1_stop+8)+3
 8947 43a2 2817      		cp r18,r24
 8948 43a4 3907      		cpc r19,r25
 8949 43a6 4A07      		cpc r20,r26
 8950 43a8 5B07      		cpc r21,r27
 8951 43aa 01F0      		breq .+2
 8952 43ac 00C0      		rjmp .L355
 8953               	.L354:
 8954 43ae 2091 0000 		lds r18,time_now
 8955 43b2 3091 0000 		lds r19,(time_now)+1
 8956 43b6 4091 0000 		lds r20,(time_now)+2
 8957 43ba 5091 0000 		lds r21,(time_now)+3
 8958 43be 8091 0000 		lds r24,timer2_start+8
 8959 43c2 9091 0000 		lds r25,(timer2_start+8)+1
 8960 43c6 A091 0000 		lds r26,(timer2_start+8)+2
 8961 43ca B091 0000 		lds r27,(timer2_start+8)+3
 8962 43ce 2817      		cp r18,r24
 8963 43d0 3907      		cpc r19,r25
 8964 43d2 4A07      		cpc r20,r26
 8965 43d4 5B07      		cpc r21,r27
 8966 43d6 00F0      		brlo .L356
 8967 43d8 2091 0000 		lds r18,time_now
 8968 43dc 3091 0000 		lds r19,(time_now)+1
 8969 43e0 4091 0000 		lds r20,(time_now)+2
 8970 43e4 5091 0000 		lds r21,(time_now)+3
 8971 43e8 8091 0000 		lds r24,timer2_stop+8
 8972 43ec 9091 0000 		lds r25,(timer2_stop+8)+1
 8973 43f0 A091 0000 		lds r26,(timer2_stop+8)+2
 8974 43f4 B091 0000 		lds r27,(timer2_stop+8)+3
 8975 43f8 2817      		cp r18,r24
 8976 43fa 3907      		cpc r19,r25
 8977 43fc 4A07      		cpc r20,r26
 8978 43fe 5B07      		cpc r21,r27
 8979 4400 00F4      		brsh .L356
 8980 4402 2091 0000 		lds r18,timer2_start+8
 8981 4406 3091 0000 		lds r19,(timer2_start+8)+1
 8982 440a 4091 0000 		lds r20,(timer2_start+8)+2
 8983 440e 5091 0000 		lds r21,(timer2_start+8)+3
 8984 4412 8091 0000 		lds r24,timer2_stop+8
 8985 4416 9091 0000 		lds r25,(timer2_stop+8)+1
 8986 441a A091 0000 		lds r26,(timer2_stop+8)+2
 8987 441e B091 0000 		lds r27,(timer2_stop+8)+3
 8988 4422 2817      		cp r18,r24
 8989 4424 3907      		cpc r19,r25
 8990 4426 4A07      		cpc r20,r26
 8991 4428 5B07      		cpc r21,r27
 8992 442a 01F0      		breq .+2
 8993 442c 00C0      		rjmp .L355
 8994               	.L356:
 8995 442e 2091 0000 		lds r18,time_now
 8996 4432 3091 0000 		lds r19,(time_now)+1
 8997 4436 4091 0000 		lds r20,(time_now)+2
 8998 443a 5091 0000 		lds r21,(time_now)+3
 8999 443e 8091 0000 		lds r24,timer3_start+8
 9000 4442 9091 0000 		lds r25,(timer3_start+8)+1
 9001 4446 A091 0000 		lds r26,(timer3_start+8)+2
 9002 444a B091 0000 		lds r27,(timer3_start+8)+3
 9003 444e 2817      		cp r18,r24
 9004 4450 3907      		cpc r19,r25
 9005 4452 4A07      		cpc r20,r26
 9006 4454 5B07      		cpc r21,r27
 9007 4456 00F0      		brlo .L357
 9008 4458 2091 0000 		lds r18,time_now
 9009 445c 3091 0000 		lds r19,(time_now)+1
 9010 4460 4091 0000 		lds r20,(time_now)+2
 9011 4464 5091 0000 		lds r21,(time_now)+3
 9012 4468 8091 0000 		lds r24,timer3_stop+8
 9013 446c 9091 0000 		lds r25,(timer3_stop+8)+1
 9014 4470 A091 0000 		lds r26,(timer3_stop+8)+2
 9015 4474 B091 0000 		lds r27,(timer3_stop+8)+3
 9016 4478 2817      		cp r18,r24
 9017 447a 3907      		cpc r19,r25
 9018 447c 4A07      		cpc r20,r26
 9019 447e 5B07      		cpc r21,r27
 9020 4480 00F4      		brsh .L357
 9021 4482 2091 0000 		lds r18,timer3_start+8
 9022 4486 3091 0000 		lds r19,(timer3_start+8)+1
 9023 448a 4091 0000 		lds r20,(timer3_start+8)+2
 9024 448e 5091 0000 		lds r21,(timer3_start+8)+3
 9025 4492 8091 0000 		lds r24,timer3_stop+8
 9026 4496 9091 0000 		lds r25,(timer3_stop+8)+1
 9027 449a A091 0000 		lds r26,(timer3_stop+8)+2
 9028 449e B091 0000 		lds r27,(timer3_stop+8)+3
 9029 44a2 2817      		cp r18,r24
 9030 44a4 3907      		cpc r19,r25
 9031 44a6 4A07      		cpc r20,r26
 9032 44a8 5B07      		cpc r21,r27
 9033 44aa 01F4      		brne .L355
 9034               	.L357:
 9035 44ac 8091 0000 		lds r24,rele_set+2
 9036 44b0 8130      		cpi r24,lo8(1)
 9037 44b2 01F4      		brne .L358
 9038               	.L355:
 9039               	.LM916:
 9040 44b4 969A      		sbi 50-32,6
 9041 44b6 00C0      		rjmp .L359
 9042               	.L358:
 9043               	.LM917:
 9044 44b8 9698      		cbi 50-32,6
 9045 44ba 1092 0000 		sts rele_set+2,__zero_reg__
 9046               	.L359:
 9047               	.LM918:
 9048 44be 2091 0000 		lds r18,time_now
 9049 44c2 3091 0000 		lds r19,(time_now)+1
 9050 44c6 4091 0000 		lds r20,(time_now)+2
 9051 44ca 5091 0000 		lds r21,(time_now)+3
 9052 44ce 8091 0000 		lds r24,timer1_start+12
 9053 44d2 9091 0000 		lds r25,(timer1_start+12)+1
 9054 44d6 A091 0000 		lds r26,(timer1_start+12)+2
 9055 44da B091 0000 		lds r27,(timer1_start+12)+3
 9056 44de 2817      		cp r18,r24
 9057 44e0 3907      		cpc r19,r25
 9058 44e2 4A07      		cpc r20,r26
 9059 44e4 5B07      		cpc r21,r27
 9060 44e6 00F0      		brlo .L360
 9061 44e8 2091 0000 		lds r18,time_now
 9062 44ec 3091 0000 		lds r19,(time_now)+1
 9063 44f0 4091 0000 		lds r20,(time_now)+2
 9064 44f4 5091 0000 		lds r21,(time_now)+3
 9065 44f8 8091 0000 		lds r24,timer1_stop+12
 9066 44fc 9091 0000 		lds r25,(timer1_stop+12)+1
 9067 4500 A091 0000 		lds r26,(timer1_stop+12)+2
 9068 4504 B091 0000 		lds r27,(timer1_stop+12)+3
 9069 4508 2817      		cp r18,r24
 9070 450a 3907      		cpc r19,r25
 9071 450c 4A07      		cpc r20,r26
 9072 450e 5B07      		cpc r21,r27
 9073 4510 00F4      		brsh .L360
 9074 4512 2091 0000 		lds r18,timer1_start+12
 9075 4516 3091 0000 		lds r19,(timer1_start+12)+1
 9076 451a 4091 0000 		lds r20,(timer1_start+12)+2
 9077 451e 5091 0000 		lds r21,(timer1_start+12)+3
 9078 4522 8091 0000 		lds r24,timer1_stop+12
 9079 4526 9091 0000 		lds r25,(timer1_stop+12)+1
 9080 452a A091 0000 		lds r26,(timer1_stop+12)+2
 9081 452e B091 0000 		lds r27,(timer1_stop+12)+3
 9082 4532 2817      		cp r18,r24
 9083 4534 3907      		cpc r19,r25
 9084 4536 4A07      		cpc r20,r26
 9085 4538 5B07      		cpc r21,r27
 9086 453a 01F0      		breq .+2
 9087 453c 00C0      		rjmp .L361
 9088               	.L360:
 9089 453e 2091 0000 		lds r18,time_now
 9090 4542 3091 0000 		lds r19,(time_now)+1
 9091 4546 4091 0000 		lds r20,(time_now)+2
 9092 454a 5091 0000 		lds r21,(time_now)+3
 9093 454e 8091 0000 		lds r24,timer2_start+12
 9094 4552 9091 0000 		lds r25,(timer2_start+12)+1
 9095 4556 A091 0000 		lds r26,(timer2_start+12)+2
 9096 455a B091 0000 		lds r27,(timer2_start+12)+3
 9097 455e 2817      		cp r18,r24
 9098 4560 3907      		cpc r19,r25
 9099 4562 4A07      		cpc r20,r26
 9100 4564 5B07      		cpc r21,r27
 9101 4566 00F0      		brlo .L362
 9102 4568 2091 0000 		lds r18,time_now
 9103 456c 3091 0000 		lds r19,(time_now)+1
 9104 4570 4091 0000 		lds r20,(time_now)+2
 9105 4574 5091 0000 		lds r21,(time_now)+3
 9106 4578 8091 0000 		lds r24,timer2_stop+12
 9107 457c 9091 0000 		lds r25,(timer2_stop+12)+1
 9108 4580 A091 0000 		lds r26,(timer2_stop+12)+2
 9109 4584 B091 0000 		lds r27,(timer2_stop+12)+3
 9110 4588 2817      		cp r18,r24
 9111 458a 3907      		cpc r19,r25
 9112 458c 4A07      		cpc r20,r26
 9113 458e 5B07      		cpc r21,r27
 9114 4590 00F4      		brsh .L362
 9115 4592 2091 0000 		lds r18,timer2_start+12
 9116 4596 3091 0000 		lds r19,(timer2_start+12)+1
 9117 459a 4091 0000 		lds r20,(timer2_start+12)+2
 9118 459e 5091 0000 		lds r21,(timer2_start+12)+3
 9119 45a2 8091 0000 		lds r24,timer2_stop+12
 9120 45a6 9091 0000 		lds r25,(timer2_stop+12)+1
 9121 45aa A091 0000 		lds r26,(timer2_stop+12)+2
 9122 45ae B091 0000 		lds r27,(timer2_stop+12)+3
 9123 45b2 2817      		cp r18,r24
 9124 45b4 3907      		cpc r19,r25
 9125 45b6 4A07      		cpc r20,r26
 9126 45b8 5B07      		cpc r21,r27
 9127 45ba 01F0      		breq .+2
 9128 45bc 00C0      		rjmp .L361
 9129               	.L362:
 9130 45be 2091 0000 		lds r18,time_now
 9131 45c2 3091 0000 		lds r19,(time_now)+1
 9132 45c6 4091 0000 		lds r20,(time_now)+2
 9133 45ca 5091 0000 		lds r21,(time_now)+3
 9134 45ce 8091 0000 		lds r24,timer3_start+12
 9135 45d2 9091 0000 		lds r25,(timer3_start+12)+1
 9136 45d6 A091 0000 		lds r26,(timer3_start+12)+2
 9137 45da B091 0000 		lds r27,(timer3_start+12)+3
 9138 45de 2817      		cp r18,r24
 9139 45e0 3907      		cpc r19,r25
 9140 45e2 4A07      		cpc r20,r26
 9141 45e4 5B07      		cpc r21,r27
 9142 45e6 00F0      		brlo .L363
 9143 45e8 2091 0000 		lds r18,time_now
 9144 45ec 3091 0000 		lds r19,(time_now)+1
 9145 45f0 4091 0000 		lds r20,(time_now)+2
 9146 45f4 5091 0000 		lds r21,(time_now)+3
 9147 45f8 8091 0000 		lds r24,timer3_stop+12
 9148 45fc 9091 0000 		lds r25,(timer3_stop+12)+1
 9149 4600 A091 0000 		lds r26,(timer3_stop+12)+2
 9150 4604 B091 0000 		lds r27,(timer3_stop+12)+3
 9151 4608 2817      		cp r18,r24
 9152 460a 3907      		cpc r19,r25
 9153 460c 4A07      		cpc r20,r26
 9154 460e 5B07      		cpc r21,r27
 9155 4610 00F4      		brsh .L363
 9156 4612 2091 0000 		lds r18,timer3_start+12
 9157 4616 3091 0000 		lds r19,(timer3_start+12)+1
 9158 461a 4091 0000 		lds r20,(timer3_start+12)+2
 9159 461e 5091 0000 		lds r21,(timer3_start+12)+3
 9160 4622 8091 0000 		lds r24,timer3_stop+12
 9161 4626 9091 0000 		lds r25,(timer3_stop+12)+1
 9162 462a A091 0000 		lds r26,(timer3_stop+12)+2
 9163 462e B091 0000 		lds r27,(timer3_stop+12)+3
 9164 4632 2817      		cp r18,r24
 9165 4634 3907      		cpc r19,r25
 9166 4636 4A07      		cpc r20,r26
 9167 4638 5B07      		cpc r21,r27
 9168 463a 01F4      		brne .L361
 9169               	.L363:
 9170 463c 8091 0000 		lds r24,rele_set+3
 9171 4640 8130      		cpi r24,lo8(1)
 9172 4642 01F4      		brne .L364
 9173               	.L361:
 9174               	.LM919:
 9175 4644 979A      		sbi 50-32,7
 9176 4646 00C0      		rjmp .L365
 9177               	.L364:
 9178               	.LM920:
 9179 4648 9798      		cbi 50-32,7
 9180 464a 1092 0000 		sts rele_set+3,__zero_reg__
 9181               	.L365:
 9182               	.LM921:
 9183 464e 2091 0000 		lds r18,time_now
 9184 4652 3091 0000 		lds r19,(time_now)+1
 9185 4656 4091 0000 		lds r20,(time_now)+2
 9186 465a 5091 0000 		lds r21,(time_now)+3
 9187 465e 8091 0000 		lds r24,timer1_start+16
 9188 4662 9091 0000 		lds r25,(timer1_start+16)+1
 9189 4666 A091 0000 		lds r26,(timer1_start+16)+2
 9190 466a B091 0000 		lds r27,(timer1_start+16)+3
 9191 466e 2817      		cp r18,r24
 9192 4670 3907      		cpc r19,r25
 9193 4672 4A07      		cpc r20,r26
 9194 4674 5B07      		cpc r21,r27
 9195 4676 00F0      		brlo .L366
 9196 4678 2091 0000 		lds r18,time_now
 9197 467c 3091 0000 		lds r19,(time_now)+1
 9198 4680 4091 0000 		lds r20,(time_now)+2
 9199 4684 5091 0000 		lds r21,(time_now)+3
 9200 4688 8091 0000 		lds r24,timer1_stop+16
 9201 468c 9091 0000 		lds r25,(timer1_stop+16)+1
 9202 4690 A091 0000 		lds r26,(timer1_stop+16)+2
 9203 4694 B091 0000 		lds r27,(timer1_stop+16)+3
 9204 4698 2817      		cp r18,r24
 9205 469a 3907      		cpc r19,r25
 9206 469c 4A07      		cpc r20,r26
 9207 469e 5B07      		cpc r21,r27
 9208 46a0 00F4      		brsh .L366
 9209 46a2 2091 0000 		lds r18,timer1_start+16
 9210 46a6 3091 0000 		lds r19,(timer1_start+16)+1
 9211 46aa 4091 0000 		lds r20,(timer1_start+16)+2
 9212 46ae 5091 0000 		lds r21,(timer1_start+16)+3
 9213 46b2 8091 0000 		lds r24,timer1_stop+16
 9214 46b6 9091 0000 		lds r25,(timer1_stop+16)+1
 9215 46ba A091 0000 		lds r26,(timer1_stop+16)+2
 9216 46be B091 0000 		lds r27,(timer1_stop+16)+3
 9217 46c2 2817      		cp r18,r24
 9218 46c4 3907      		cpc r19,r25
 9219 46c6 4A07      		cpc r20,r26
 9220 46c8 5B07      		cpc r21,r27
 9221 46ca 01F0      		breq .+2
 9222 46cc 00C0      		rjmp .L367
 9223               	.L366:
 9224 46ce 2091 0000 		lds r18,time_now
 9225 46d2 3091 0000 		lds r19,(time_now)+1
 9226 46d6 4091 0000 		lds r20,(time_now)+2
 9227 46da 5091 0000 		lds r21,(time_now)+3
 9228 46de 8091 0000 		lds r24,timer2_start+16
 9229 46e2 9091 0000 		lds r25,(timer2_start+16)+1
 9230 46e6 A091 0000 		lds r26,(timer2_start+16)+2
 9231 46ea B091 0000 		lds r27,(timer2_start+16)+3
 9232 46ee 2817      		cp r18,r24
 9233 46f0 3907      		cpc r19,r25
 9234 46f2 4A07      		cpc r20,r26
 9235 46f4 5B07      		cpc r21,r27
 9236 46f6 00F0      		brlo .L368
 9237 46f8 2091 0000 		lds r18,time_now
 9238 46fc 3091 0000 		lds r19,(time_now)+1
 9239 4700 4091 0000 		lds r20,(time_now)+2
 9240 4704 5091 0000 		lds r21,(time_now)+3
 9241 4708 8091 0000 		lds r24,timer2_stop+16
 9242 470c 9091 0000 		lds r25,(timer2_stop+16)+1
 9243 4710 A091 0000 		lds r26,(timer2_stop+16)+2
 9244 4714 B091 0000 		lds r27,(timer2_stop+16)+3
 9245 4718 2817      		cp r18,r24
 9246 471a 3907      		cpc r19,r25
 9247 471c 4A07      		cpc r20,r26
 9248 471e 5B07      		cpc r21,r27
 9249 4720 00F4      		brsh .L368
 9250 4722 2091 0000 		lds r18,timer2_start+16
 9251 4726 3091 0000 		lds r19,(timer2_start+16)+1
 9252 472a 4091 0000 		lds r20,(timer2_start+16)+2
 9253 472e 5091 0000 		lds r21,(timer2_start+16)+3
 9254 4732 8091 0000 		lds r24,timer2_stop+16
 9255 4736 9091 0000 		lds r25,(timer2_stop+16)+1
 9256 473a A091 0000 		lds r26,(timer2_stop+16)+2
 9257 473e B091 0000 		lds r27,(timer2_stop+16)+3
 9258 4742 2817      		cp r18,r24
 9259 4744 3907      		cpc r19,r25
 9260 4746 4A07      		cpc r20,r26
 9261 4748 5B07      		cpc r21,r27
 9262 474a 01F0      		breq .+2
 9263 474c 00C0      		rjmp .L367
 9264               	.L368:
 9265 474e 2091 0000 		lds r18,time_now
 9266 4752 3091 0000 		lds r19,(time_now)+1
 9267 4756 4091 0000 		lds r20,(time_now)+2
 9268 475a 5091 0000 		lds r21,(time_now)+3
 9269 475e 8091 0000 		lds r24,timer3_start+16
 9270 4762 9091 0000 		lds r25,(timer3_start+16)+1
 9271 4766 A091 0000 		lds r26,(timer3_start+16)+2
 9272 476a B091 0000 		lds r27,(timer3_start+16)+3
 9273 476e 2817      		cp r18,r24
 9274 4770 3907      		cpc r19,r25
 9275 4772 4A07      		cpc r20,r26
 9276 4774 5B07      		cpc r21,r27
 9277 4776 00F0      		brlo .L369
 9278 4778 2091 0000 		lds r18,time_now
 9279 477c 3091 0000 		lds r19,(time_now)+1
 9280 4780 4091 0000 		lds r20,(time_now)+2
 9281 4784 5091 0000 		lds r21,(time_now)+3
 9282 4788 8091 0000 		lds r24,timer3_stop+16
 9283 478c 9091 0000 		lds r25,(timer3_stop+16)+1
 9284 4790 A091 0000 		lds r26,(timer3_stop+16)+2
 9285 4794 B091 0000 		lds r27,(timer3_stop+16)+3
 9286 4798 2817      		cp r18,r24
 9287 479a 3907      		cpc r19,r25
 9288 479c 4A07      		cpc r20,r26
 9289 479e 5B07      		cpc r21,r27
 9290 47a0 00F4      		brsh .L369
 9291 47a2 2091 0000 		lds r18,timer3_start+16
 9292 47a6 3091 0000 		lds r19,(timer3_start+16)+1
 9293 47aa 4091 0000 		lds r20,(timer3_start+16)+2
 9294 47ae 5091 0000 		lds r21,(timer3_start+16)+3
 9295 47b2 8091 0000 		lds r24,timer3_stop+16
 9296 47b6 9091 0000 		lds r25,(timer3_stop+16)+1
 9297 47ba A091 0000 		lds r26,(timer3_stop+16)+2
 9298 47be B091 0000 		lds r27,(timer3_stop+16)+3
 9299 47c2 2817      		cp r18,r24
 9300 47c4 3907      		cpc r19,r25
 9301 47c6 4A07      		cpc r20,r26
 9302 47c8 5B07      		cpc r21,r27
 9303 47ca 01F4      		brne .L367
 9304               	.L369:
 9305 47cc 8091 0000 		lds r24,rele_set+4
 9306 47d0 8130      		cpi r24,lo8(1)
 9307 47d2 01F4      		brne .L370
 9308               	.L367:
 9309               	.LM922:
 9310 47d4 A89A      		sbi 53-32,0
 9311 47d6 00C0      		rjmp .L371
 9312               	.L370:
 9313               	.LM923:
 9314 47d8 A898      		cbi 53-32,0
 9315 47da 1092 0000 		sts rele_set+4,__zero_reg__
 9316               	.L371:
 9317               	.LM924:
 9318 47de 2091 0000 		lds r18,time_now
 9319 47e2 3091 0000 		lds r19,(time_now)+1
 9320 47e6 4091 0000 		lds r20,(time_now)+2
 9321 47ea 5091 0000 		lds r21,(time_now)+3
 9322 47ee 8091 0000 		lds r24,timer1_start+20
 9323 47f2 9091 0000 		lds r25,(timer1_start+20)+1
 9324 47f6 A091 0000 		lds r26,(timer1_start+20)+2
 9325 47fa B091 0000 		lds r27,(timer1_start+20)+3
 9326 47fe 2817      		cp r18,r24
 9327 4800 3907      		cpc r19,r25
 9328 4802 4A07      		cpc r20,r26
 9329 4804 5B07      		cpc r21,r27
 9330 4806 00F0      		brlo .L372
 9331 4808 2091 0000 		lds r18,time_now
 9332 480c 3091 0000 		lds r19,(time_now)+1
 9333 4810 4091 0000 		lds r20,(time_now)+2
 9334 4814 5091 0000 		lds r21,(time_now)+3
 9335 4818 8091 0000 		lds r24,timer1_stop+20
 9336 481c 9091 0000 		lds r25,(timer1_stop+20)+1
 9337 4820 A091 0000 		lds r26,(timer1_stop+20)+2
 9338 4824 B091 0000 		lds r27,(timer1_stop+20)+3
 9339 4828 2817      		cp r18,r24
 9340 482a 3907      		cpc r19,r25
 9341 482c 4A07      		cpc r20,r26
 9342 482e 5B07      		cpc r21,r27
 9343 4830 00F4      		brsh .L372
 9344 4832 2091 0000 		lds r18,timer1_start+20
 9345 4836 3091 0000 		lds r19,(timer1_start+20)+1
 9346 483a 4091 0000 		lds r20,(timer1_start+20)+2
 9347 483e 5091 0000 		lds r21,(timer1_start+20)+3
 9348 4842 8091 0000 		lds r24,timer1_stop+20
 9349 4846 9091 0000 		lds r25,(timer1_stop+20)+1
 9350 484a A091 0000 		lds r26,(timer1_stop+20)+2
 9351 484e B091 0000 		lds r27,(timer1_stop+20)+3
 9352 4852 2817      		cp r18,r24
 9353 4854 3907      		cpc r19,r25
 9354 4856 4A07      		cpc r20,r26
 9355 4858 5B07      		cpc r21,r27
 9356 485a 01F0      		breq .+2
 9357 485c 00C0      		rjmp .L373
 9358               	.L372:
 9359 485e 2091 0000 		lds r18,time_now
 9360 4862 3091 0000 		lds r19,(time_now)+1
 9361 4866 4091 0000 		lds r20,(time_now)+2
 9362 486a 5091 0000 		lds r21,(time_now)+3
 9363 486e 8091 0000 		lds r24,timer2_start+20
 9364 4872 9091 0000 		lds r25,(timer2_start+20)+1
 9365 4876 A091 0000 		lds r26,(timer2_start+20)+2
 9366 487a B091 0000 		lds r27,(timer2_start+20)+3
 9367 487e 2817      		cp r18,r24
 9368 4880 3907      		cpc r19,r25
 9369 4882 4A07      		cpc r20,r26
 9370 4884 5B07      		cpc r21,r27
 9371 4886 00F0      		brlo .L374
 9372 4888 2091 0000 		lds r18,time_now
 9373 488c 3091 0000 		lds r19,(time_now)+1
 9374 4890 4091 0000 		lds r20,(time_now)+2
 9375 4894 5091 0000 		lds r21,(time_now)+3
 9376 4898 8091 0000 		lds r24,timer2_stop+20
 9377 489c 9091 0000 		lds r25,(timer2_stop+20)+1
 9378 48a0 A091 0000 		lds r26,(timer2_stop+20)+2
 9379 48a4 B091 0000 		lds r27,(timer2_stop+20)+3
 9380 48a8 2817      		cp r18,r24
 9381 48aa 3907      		cpc r19,r25
 9382 48ac 4A07      		cpc r20,r26
 9383 48ae 5B07      		cpc r21,r27
 9384 48b0 00F4      		brsh .L374
 9385 48b2 2091 0000 		lds r18,timer2_start+20
 9386 48b6 3091 0000 		lds r19,(timer2_start+20)+1
 9387 48ba 4091 0000 		lds r20,(timer2_start+20)+2
 9388 48be 5091 0000 		lds r21,(timer2_start+20)+3
 9389 48c2 8091 0000 		lds r24,timer2_stop+20
 9390 48c6 9091 0000 		lds r25,(timer2_stop+20)+1
 9391 48ca A091 0000 		lds r26,(timer2_stop+20)+2
 9392 48ce B091 0000 		lds r27,(timer2_stop+20)+3
 9393 48d2 2817      		cp r18,r24
 9394 48d4 3907      		cpc r19,r25
 9395 48d6 4A07      		cpc r20,r26
 9396 48d8 5B07      		cpc r21,r27
 9397 48da 01F0      		breq .+2
 9398 48dc 00C0      		rjmp .L373
 9399               	.L374:
 9400 48de 2091 0000 		lds r18,time_now
 9401 48e2 3091 0000 		lds r19,(time_now)+1
 9402 48e6 4091 0000 		lds r20,(time_now)+2
 9403 48ea 5091 0000 		lds r21,(time_now)+3
 9404 48ee 8091 0000 		lds r24,timer3_start+20
 9405 48f2 9091 0000 		lds r25,(timer3_start+20)+1
 9406 48f6 A091 0000 		lds r26,(timer3_start+20)+2
 9407 48fa B091 0000 		lds r27,(timer3_start+20)+3
 9408 48fe 2817      		cp r18,r24
 9409 4900 3907      		cpc r19,r25
 9410 4902 4A07      		cpc r20,r26
 9411 4904 5B07      		cpc r21,r27
 9412 4906 00F0      		brlo .L375
 9413 4908 2091 0000 		lds r18,time_now
 9414 490c 3091 0000 		lds r19,(time_now)+1
 9415 4910 4091 0000 		lds r20,(time_now)+2
 9416 4914 5091 0000 		lds r21,(time_now)+3
 9417 4918 8091 0000 		lds r24,timer3_stop+20
 9418 491c 9091 0000 		lds r25,(timer3_stop+20)+1
 9419 4920 A091 0000 		lds r26,(timer3_stop+20)+2
 9420 4924 B091 0000 		lds r27,(timer3_stop+20)+3
 9421 4928 2817      		cp r18,r24
 9422 492a 3907      		cpc r19,r25
 9423 492c 4A07      		cpc r20,r26
 9424 492e 5B07      		cpc r21,r27
 9425 4930 00F4      		brsh .L375
 9426 4932 2091 0000 		lds r18,timer3_start+20
 9427 4936 3091 0000 		lds r19,(timer3_start+20)+1
 9428 493a 4091 0000 		lds r20,(timer3_start+20)+2
 9429 493e 5091 0000 		lds r21,(timer3_start+20)+3
 9430 4942 8091 0000 		lds r24,timer3_stop+20
 9431 4946 9091 0000 		lds r25,(timer3_stop+20)+1
 9432 494a A091 0000 		lds r26,(timer3_stop+20)+2
 9433 494e B091 0000 		lds r27,(timer3_stop+20)+3
 9434 4952 2817      		cp r18,r24
 9435 4954 3907      		cpc r19,r25
 9436 4956 4A07      		cpc r20,r26
 9437 4958 5B07      		cpc r21,r27
 9438 495a 01F4      		brne .L373
 9439               	.L375:
 9440 495c 8091 0000 		lds r24,rele_set+5
 9441 4960 8130      		cpi r24,lo8(1)
 9442 4962 01F4      		brne .L376
 9443               	.L373:
 9444               	.LM925:
 9445 4964 8091 0000 		lds r24,temp_control
 9446 4968 8823      		tst r24
 9447 496a 01F4      		brne .L377
 9448 496c A99A      		sbi 53-32,1
 9449               	.L377:
 9450               	.LM926:
 9451 496e 81E0      		ldi r24,lo8(1)
 9452 4970 8093 0000 		sts heater_timer_status,r24
 9453               	.LM927:
 9454 4974 8091 0000 		lds r24,heater_chanel_status
 9455 4978 8253      		subi r24,lo8(-(-50))
 9456 497a 8230      		cpi r24,lo8(2)
 9457 497c 00F0      		brlo .L378
 9458 497e 81E3      		ldi r24,lo8(49)
 9459 4980 8093 0000 		sts heater_chanel_status,r24
 9460 4984 00C0      		rjmp .L378
 9461               	.L376:
 9462               	.LM928:
 9463 4986 A998      		cbi 53-32,1
 9464 4988 1092 0000 		sts rele_set+5,__zero_reg__
 9465 498c 1092 0000 		sts heater_timer_status,__zero_reg__
 9466               	.L378:
 9467               	.LM929:
 9468 4990 2091 0000 		lds r18,time_now
 9469 4994 3091 0000 		lds r19,(time_now)+1
 9470 4998 4091 0000 		lds r20,(time_now)+2
 9471 499c 5091 0000 		lds r21,(time_now)+3
 9472 49a0 8091 0000 		lds r24,timer1_start+24
 9473 49a4 9091 0000 		lds r25,(timer1_start+24)+1
 9474 49a8 A091 0000 		lds r26,(timer1_start+24)+2
 9475 49ac B091 0000 		lds r27,(timer1_start+24)+3
 9476 49b0 2817      		cp r18,r24
 9477 49b2 3907      		cpc r19,r25
 9478 49b4 4A07      		cpc r20,r26
 9479 49b6 5B07      		cpc r21,r27
 9480 49b8 00F0      		brlo .L379
 9481 49ba 2091 0000 		lds r18,time_now
 9482 49be 3091 0000 		lds r19,(time_now)+1
 9483 49c2 4091 0000 		lds r20,(time_now)+2
 9484 49c6 5091 0000 		lds r21,(time_now)+3
 9485 49ca 8091 0000 		lds r24,timer1_stop+24
 9486 49ce 9091 0000 		lds r25,(timer1_stop+24)+1
 9487 49d2 A091 0000 		lds r26,(timer1_stop+24)+2
 9488 49d6 B091 0000 		lds r27,(timer1_stop+24)+3
 9489 49da 2817      		cp r18,r24
 9490 49dc 3907      		cpc r19,r25
 9491 49de 4A07      		cpc r20,r26
 9492 49e0 5B07      		cpc r21,r27
 9493 49e2 00F4      		brsh .L379
 9494 49e4 2091 0000 		lds r18,timer1_start+24
 9495 49e8 3091 0000 		lds r19,(timer1_start+24)+1
 9496 49ec 4091 0000 		lds r20,(timer1_start+24)+2
 9497 49f0 5091 0000 		lds r21,(timer1_start+24)+3
 9498 49f4 8091 0000 		lds r24,timer1_stop+24
 9499 49f8 9091 0000 		lds r25,(timer1_stop+24)+1
 9500 49fc A091 0000 		lds r26,(timer1_stop+24)+2
 9501 4a00 B091 0000 		lds r27,(timer1_stop+24)+3
 9502 4a04 2817      		cp r18,r24
 9503 4a06 3907      		cpc r19,r25
 9504 4a08 4A07      		cpc r20,r26
 9505 4a0a 5B07      		cpc r21,r27
 9506 4a0c 01F0      		breq .+2
 9507 4a0e 00C0      		rjmp .L380
 9508               	.L379:
 9509 4a10 2091 0000 		lds r18,time_now
 9510 4a14 3091 0000 		lds r19,(time_now)+1
 9511 4a18 4091 0000 		lds r20,(time_now)+2
 9512 4a1c 5091 0000 		lds r21,(time_now)+3
 9513 4a20 8091 0000 		lds r24,timer2_start+24
 9514 4a24 9091 0000 		lds r25,(timer2_start+24)+1
 9515 4a28 A091 0000 		lds r26,(timer2_start+24)+2
 9516 4a2c B091 0000 		lds r27,(timer2_start+24)+3
 9517 4a30 2817      		cp r18,r24
 9518 4a32 3907      		cpc r19,r25
 9519 4a34 4A07      		cpc r20,r26
 9520 4a36 5B07      		cpc r21,r27
 9521 4a38 00F0      		brlo .L381
 9522 4a3a 2091 0000 		lds r18,time_now
 9523 4a3e 3091 0000 		lds r19,(time_now)+1
 9524 4a42 4091 0000 		lds r20,(time_now)+2
 9525 4a46 5091 0000 		lds r21,(time_now)+3
 9526 4a4a 8091 0000 		lds r24,timer2_stop+24
 9527 4a4e 9091 0000 		lds r25,(timer2_stop+24)+1
 9528 4a52 A091 0000 		lds r26,(timer2_stop+24)+2
 9529 4a56 B091 0000 		lds r27,(timer2_stop+24)+3
 9530 4a5a 2817      		cp r18,r24
 9531 4a5c 3907      		cpc r19,r25
 9532 4a5e 4A07      		cpc r20,r26
 9533 4a60 5B07      		cpc r21,r27
 9534 4a62 00F4      		brsh .L381
 9535 4a64 2091 0000 		lds r18,timer2_start+24
 9536 4a68 3091 0000 		lds r19,(timer2_start+24)+1
 9537 4a6c 4091 0000 		lds r20,(timer2_start+24)+2
 9538 4a70 5091 0000 		lds r21,(timer2_start+24)+3
 9539 4a74 8091 0000 		lds r24,timer2_stop+24
 9540 4a78 9091 0000 		lds r25,(timer2_stop+24)+1
 9541 4a7c A091 0000 		lds r26,(timer2_stop+24)+2
 9542 4a80 B091 0000 		lds r27,(timer2_stop+24)+3
 9543 4a84 2817      		cp r18,r24
 9544 4a86 3907      		cpc r19,r25
 9545 4a88 4A07      		cpc r20,r26
 9546 4a8a 5B07      		cpc r21,r27
 9547 4a8c 01F0      		breq .+2
 9548 4a8e 00C0      		rjmp .L380
 9549               	.L381:
 9550 4a90 2091 0000 		lds r18,time_now
 9551 4a94 3091 0000 		lds r19,(time_now)+1
 9552 4a98 4091 0000 		lds r20,(time_now)+2
 9553 4a9c 5091 0000 		lds r21,(time_now)+3
 9554 4aa0 8091 0000 		lds r24,timer3_start+24
 9555 4aa4 9091 0000 		lds r25,(timer3_start+24)+1
 9556 4aa8 A091 0000 		lds r26,(timer3_start+24)+2
 9557 4aac B091 0000 		lds r27,(timer3_start+24)+3
 9558 4ab0 2817      		cp r18,r24
 9559 4ab2 3907      		cpc r19,r25
 9560 4ab4 4A07      		cpc r20,r26
 9561 4ab6 5B07      		cpc r21,r27
 9562 4ab8 00F0      		brlo .L382
 9563 4aba 2091 0000 		lds r18,time_now
 9564 4abe 3091 0000 		lds r19,(time_now)+1
 9565 4ac2 4091 0000 		lds r20,(time_now)+2
 9566 4ac6 5091 0000 		lds r21,(time_now)+3
 9567 4aca 8091 0000 		lds r24,timer3_stop+24
 9568 4ace 9091 0000 		lds r25,(timer3_stop+24)+1
 9569 4ad2 A091 0000 		lds r26,(timer3_stop+24)+2
 9570 4ad6 B091 0000 		lds r27,(timer3_stop+24)+3
 9571 4ada 2817      		cp r18,r24
 9572 4adc 3907      		cpc r19,r25
 9573 4ade 4A07      		cpc r20,r26
 9574 4ae0 5B07      		cpc r21,r27
 9575 4ae2 00F4      		brsh .L382
 9576 4ae4 2091 0000 		lds r18,timer3_start+24
 9577 4ae8 3091 0000 		lds r19,(timer3_start+24)+1
 9578 4aec 4091 0000 		lds r20,(timer3_start+24)+2
 9579 4af0 5091 0000 		lds r21,(timer3_start+24)+3
 9580 4af4 8091 0000 		lds r24,timer3_stop+24
 9581 4af8 9091 0000 		lds r25,(timer3_stop+24)+1
 9582 4afc A091 0000 		lds r26,(timer3_stop+24)+2
 9583 4b00 B091 0000 		lds r27,(timer3_stop+24)+3
 9584 4b04 2817      		cp r18,r24
 9585 4b06 3907      		cpc r19,r25
 9586 4b08 4A07      		cpc r20,r26
 9587 4b0a 5B07      		cpc r21,r27
 9588 4b0c 01F4      		brne .L380
 9589               	.L382:
 9590 4b0e 8091 0000 		lds r24,rele_set+6
 9591 4b12 8130      		cpi r24,lo8(1)
 9592 4b14 01F4      		brne .L383
 9593               	.L380:
 9594               	.LM930:
 9595 4b16 8091 0000 		lds r24,co2
 9596 4b1a 8823      		tst r24
 9597 4b1c 01F4      		brne .L384
 9598 4b1e AA9A      		sbi 53-32,2
 9599               	.L384:
 9600               	.LM931:
 9601 4b20 81E0      		ldi r24,lo8(1)
 9602 4b22 8093 0000 		sts co2_timer_status,r24
 9603               	.LM932:
 9604 4b26 8091 0000 		lds r24,co2_status
 9605 4b2a 8253      		subi r24,lo8(-(-50))
 9606 4b2c 8230      		cpi r24,lo8(2)
 9607 4b2e 00F0      		brlo .L385
 9608 4b30 81E3      		ldi r24,lo8(49)
 9609 4b32 8093 0000 		sts co2_status,r24
 9610 4b36 00C0      		rjmp .L385
 9611               	.L383:
 9612               	.LM933:
 9613 4b38 AA98      		cbi 53-32,2
 9614 4b3a 1092 0000 		sts rele_set+6,__zero_reg__
 9615 4b3e 1092 0000 		sts co2_timer_status,__zero_reg__
 9616               	.L385:
 9617               	.LM934:
 9618 4b42 2091 0000 		lds r18,time_now
 9619 4b46 3091 0000 		lds r19,(time_now)+1
 9620 4b4a 4091 0000 		lds r20,(time_now)+2
 9621 4b4e 5091 0000 		lds r21,(time_now)+3
 9622 4b52 8091 0000 		lds r24,timer1_start+28
 9623 4b56 9091 0000 		lds r25,(timer1_start+28)+1
 9624 4b5a A091 0000 		lds r26,(timer1_start+28)+2
 9625 4b5e B091 0000 		lds r27,(timer1_start+28)+3
 9626 4b62 2817      		cp r18,r24
 9627 4b64 3907      		cpc r19,r25
 9628 4b66 4A07      		cpc r20,r26
 9629 4b68 5B07      		cpc r21,r27
 9630 4b6a 00F0      		brlo .L386
 9631 4b6c 2091 0000 		lds r18,time_now
 9632 4b70 3091 0000 		lds r19,(time_now)+1
 9633 4b74 4091 0000 		lds r20,(time_now)+2
 9634 4b78 5091 0000 		lds r21,(time_now)+3
 9635 4b7c 8091 0000 		lds r24,timer1_stop+28
 9636 4b80 9091 0000 		lds r25,(timer1_stop+28)+1
 9637 4b84 A091 0000 		lds r26,(timer1_stop+28)+2
 9638 4b88 B091 0000 		lds r27,(timer1_stop+28)+3
 9639 4b8c 2817      		cp r18,r24
 9640 4b8e 3907      		cpc r19,r25
 9641 4b90 4A07      		cpc r20,r26
 9642 4b92 5B07      		cpc r21,r27
 9643 4b94 00F4      		brsh .L386
 9644 4b96 2091 0000 		lds r18,timer1_start+28
 9645 4b9a 3091 0000 		lds r19,(timer1_start+28)+1
 9646 4b9e 4091 0000 		lds r20,(timer1_start+28)+2
 9647 4ba2 5091 0000 		lds r21,(timer1_start+28)+3
 9648 4ba6 8091 0000 		lds r24,timer1_stop+28
 9649 4baa 9091 0000 		lds r25,(timer1_stop+28)+1
 9650 4bae A091 0000 		lds r26,(timer1_stop+28)+2
 9651 4bb2 B091 0000 		lds r27,(timer1_stop+28)+3
 9652 4bb6 2817      		cp r18,r24
 9653 4bb8 3907      		cpc r19,r25
 9654 4bba 4A07      		cpc r20,r26
 9655 4bbc 5B07      		cpc r21,r27
 9656 4bbe 01F0      		breq .+2
 9657 4bc0 00C0      		rjmp .L387
 9658               	.L386:
 9659 4bc2 2091 0000 		lds r18,time_now
 9660 4bc6 3091 0000 		lds r19,(time_now)+1
 9661 4bca 4091 0000 		lds r20,(time_now)+2
 9662 4bce 5091 0000 		lds r21,(time_now)+3
 9663 4bd2 8091 0000 		lds r24,timer2_start+28
 9664 4bd6 9091 0000 		lds r25,(timer2_start+28)+1
 9665 4bda A091 0000 		lds r26,(timer2_start+28)+2
 9666 4bde B091 0000 		lds r27,(timer2_start+28)+3
 9667 4be2 2817      		cp r18,r24
 9668 4be4 3907      		cpc r19,r25
 9669 4be6 4A07      		cpc r20,r26
 9670 4be8 5B07      		cpc r21,r27
 9671 4bea 00F0      		brlo .L388
 9672 4bec 2091 0000 		lds r18,time_now
 9673 4bf0 3091 0000 		lds r19,(time_now)+1
 9674 4bf4 4091 0000 		lds r20,(time_now)+2
 9675 4bf8 5091 0000 		lds r21,(time_now)+3
 9676 4bfc 8091 0000 		lds r24,timer2_stop+28
 9677 4c00 9091 0000 		lds r25,(timer2_stop+28)+1
 9678 4c04 A091 0000 		lds r26,(timer2_stop+28)+2
 9679 4c08 B091 0000 		lds r27,(timer2_stop+28)+3
 9680 4c0c 2817      		cp r18,r24
 9681 4c0e 3907      		cpc r19,r25
 9682 4c10 4A07      		cpc r20,r26
 9683 4c12 5B07      		cpc r21,r27
 9684 4c14 00F4      		brsh .L388
 9685 4c16 2091 0000 		lds r18,timer2_start+28
 9686 4c1a 3091 0000 		lds r19,(timer2_start+28)+1
 9687 4c1e 4091 0000 		lds r20,(timer2_start+28)+2
 9688 4c22 5091 0000 		lds r21,(timer2_start+28)+3
 9689 4c26 8091 0000 		lds r24,timer2_stop+28
 9690 4c2a 9091 0000 		lds r25,(timer2_stop+28)+1
 9691 4c2e A091 0000 		lds r26,(timer2_stop+28)+2
 9692 4c32 B091 0000 		lds r27,(timer2_stop+28)+3
 9693 4c36 2817      		cp r18,r24
 9694 4c38 3907      		cpc r19,r25
 9695 4c3a 4A07      		cpc r20,r26
 9696 4c3c 5B07      		cpc r21,r27
 9697 4c3e 01F0      		breq .+2
 9698 4c40 00C0      		rjmp .L387
 9699               	.L388:
 9700 4c42 2091 0000 		lds r18,time_now
 9701 4c46 3091 0000 		lds r19,(time_now)+1
 9702 4c4a 4091 0000 		lds r20,(time_now)+2
 9703 4c4e 5091 0000 		lds r21,(time_now)+3
 9704 4c52 8091 0000 		lds r24,timer3_start+28
 9705 4c56 9091 0000 		lds r25,(timer3_start+28)+1
 9706 4c5a A091 0000 		lds r26,(timer3_start+28)+2
 9707 4c5e B091 0000 		lds r27,(timer3_start+28)+3
 9708 4c62 2817      		cp r18,r24
 9709 4c64 3907      		cpc r19,r25
 9710 4c66 4A07      		cpc r20,r26
 9711 4c68 5B07      		cpc r21,r27
 9712 4c6a 00F0      		brlo .L389
 9713 4c6c 2091 0000 		lds r18,time_now
 9714 4c70 3091 0000 		lds r19,(time_now)+1
 9715 4c74 4091 0000 		lds r20,(time_now)+2
 9716 4c78 5091 0000 		lds r21,(time_now)+3
 9717 4c7c 8091 0000 		lds r24,timer3_stop+28
 9718 4c80 9091 0000 		lds r25,(timer3_stop+28)+1
 9719 4c84 A091 0000 		lds r26,(timer3_stop+28)+2
 9720 4c88 B091 0000 		lds r27,(timer3_stop+28)+3
 9721 4c8c 2817      		cp r18,r24
 9722 4c8e 3907      		cpc r19,r25
 9723 4c90 4A07      		cpc r20,r26
 9724 4c92 5B07      		cpc r21,r27
 9725 4c94 00F4      		brsh .L389
 9726 4c96 2091 0000 		lds r18,timer3_start+28
 9727 4c9a 3091 0000 		lds r19,(timer3_start+28)+1
 9728 4c9e 4091 0000 		lds r20,(timer3_start+28)+2
 9729 4ca2 5091 0000 		lds r21,(timer3_start+28)+3
 9730 4ca6 8091 0000 		lds r24,timer3_stop+28
 9731 4caa 9091 0000 		lds r25,(timer3_stop+28)+1
 9732 4cae A091 0000 		lds r26,(timer3_stop+28)+2
 9733 4cb2 B091 0000 		lds r27,(timer3_stop+28)+3
 9734 4cb6 2817      		cp r18,r24
 9735 4cb8 3907      		cpc r19,r25
 9736 4cba 4A07      		cpc r20,r26
 9737 4cbc 5B07      		cpc r21,r27
 9738 4cbe 01F4      		brne .L387
 9739               	.L389:
 9740 4cc0 8091 0000 		lds r24,rele_set+7
 9741 4cc4 8130      		cpi r24,lo8(1)
 9742 4cc6 01F4      		brne .L390
 9743               	.L387:
 9744               	.LM935:
 9745 4cc8 8091 0000 		lds r24,doliv
 9746 4ccc 8823      		tst r24
 9747 4cce 01F4      		brne .L391
 9748 4cd0 AB9A      		sbi 53-32,3
 9749               	.L391:
 9750               	.LM936:
 9751 4cd2 81E0      		ldi r24,lo8(1)
 9752 4cd4 8093 0000 		sts doliv_timer_status,r24
 9753               	.LM937:
 9754 4cd8 8091 0000 		lds r24,water_lvl_status
 9755 4cdc 8253      		subi r24,lo8(-(-50))
 9756 4cde 8230      		cpi r24,lo8(2)
 9757 4ce0 00F0      		brlo .L392
 9758 4ce2 81E3      		ldi r24,lo8(49)
 9759 4ce4 8093 0000 		sts water_lvl_status,r24
 9760 4ce8 00C0      		rjmp .L392
 9761               	.L390:
 9762               	.LM938:
 9763 4cea AB98      		cbi 53-32,3
 9764 4cec 1092 0000 		sts rele_set+7,__zero_reg__
 9765 4cf0 1092 0000 		sts doliv_timer_status,__zero_reg__
 9766               	.L392:
 9767               	.LM939:
 9768 4cf4 1092 0000 		sts time_one_sec,__zero_reg__
 9769               	.LM940:
 9770 4cf8 AC9A      		sbi 53-32,4
 9771               	.L341:
 9772               	.LM941:
 9773 4cfa 2091 0000 		lds r18,time_now
 9774 4cfe 3091 0000 		lds r19,(time_now)+1
 9775 4d02 4091 0000 		lds r20,(time_now)+2
 9776 4d06 5091 0000 		lds r21,(time_now)+3
 9777 4d0a 8091 0000 		lds r24,cooler_start
 9778 4d0e 9091 0000 		lds r25,(cooler_start)+1
 9779 4d12 A091 0000 		lds r26,(cooler_start)+2
 9780 4d16 B091 0000 		lds r27,(cooler_start)+3
 9781 4d1a 8217      		cp r24,r18
 9782 4d1c 9307      		cpc r25,r19
 9783 4d1e A407      		cpc r26,r20
 9784 4d20 B507      		cpc r27,r21
 9785 4d22 00F0      		brlo .+2
 9786 4d24 00C0      		rjmp .L393
 9787 4d26 2091 0000 		lds r18,time_now
 9788 4d2a 3091 0000 		lds r19,(time_now)+1
 9789 4d2e 4091 0000 		lds r20,(time_now)+2
 9790 4d32 5091 0000 		lds r21,(time_now)+3
 9791 4d36 8091 0000 		lds r24,cooler_stop
 9792 4d3a 9091 0000 		lds r25,(cooler_stop)+1
 9793 4d3e A091 0000 		lds r26,(cooler_stop)+2
 9794 4d42 B091 0000 		lds r27,(cooler_stop)+3
 9795 4d46 2817      		cp r18,r24
 9796 4d48 3907      		cpc r19,r25
 9797 4d4a 4A07      		cpc r20,r26
 9798 4d4c 5B07      		cpc r21,r27
 9799 4d4e 00F0      		brlo .+2
 9800 4d50 00C0      		rjmp .L393
 9801               	.LM942:
 9802 4d52 2091 0000 		lds r18,time_now
 9803 4d56 3091 0000 		lds r19,(time_now)+1
 9804 4d5a 4091 0000 		lds r20,(time_now)+2
 9805 4d5e 5091 0000 		lds r21,(time_now)+3
 9806 4d62 8091 0000 		lds r24,timer1_start+32
 9807 4d66 9091 0000 		lds r25,(timer1_start+32)+1
 9808 4d6a A091 0000 		lds r26,(timer1_start+32)+2
 9809 4d6e B091 0000 		lds r27,(timer1_start+32)+3
 9810 4d72 2817      		cp r18,r24
 9811 4d74 3907      		cpc r19,r25
 9812 4d76 4A07      		cpc r20,r26
 9813 4d78 5B07      		cpc r21,r27
 9814 4d7a 00F0      		brlo .L394
 9815 4d7c 2091 0000 		lds r18,time_now
 9816 4d80 3091 0000 		lds r19,(time_now)+1
 9817 4d84 4091 0000 		lds r20,(time_now)+2
 9818 4d88 5091 0000 		lds r21,(time_now)+3
 9819 4d8c 8091 0000 		lds r24,timer1_stop+32
 9820 4d90 9091 0000 		lds r25,(timer1_stop+32)+1
 9821 4d94 A091 0000 		lds r26,(timer1_stop+32)+2
 9822 4d98 B091 0000 		lds r27,(timer1_stop+32)+3
 9823 4d9c 2817      		cp r18,r24
 9824 4d9e 3907      		cpc r19,r25
 9825 4da0 4A07      		cpc r20,r26
 9826 4da2 5B07      		cpc r21,r27
 9827 4da4 00F4      		brsh .L394
 9828 4da6 2091 0000 		lds r18,timer1_start+32
 9829 4daa 3091 0000 		lds r19,(timer1_start+32)+1
 9830 4dae 4091 0000 		lds r20,(timer1_start+32)+2
 9831 4db2 5091 0000 		lds r21,(timer1_start+32)+3
 9832 4db6 8091 0000 		lds r24,timer1_stop+32
 9833 4dba 9091 0000 		lds r25,(timer1_stop+32)+1
 9834 4dbe A091 0000 		lds r26,(timer1_stop+32)+2
 9835 4dc2 B091 0000 		lds r27,(timer1_stop+32)+3
 9836 4dc6 2817      		cp r18,r24
 9837 4dc8 3907      		cpc r19,r25
 9838 4dca 4A07      		cpc r20,r26
 9839 4dcc 5B07      		cpc r21,r27
 9840 4dce 01F0      		breq .+2
 9841 4dd0 00C0      		rjmp .L395
 9842               	.L394:
 9843 4dd2 2091 0000 		lds r18,time_now
 9844 4dd6 3091 0000 		lds r19,(time_now)+1
 9845 4dda 4091 0000 		lds r20,(time_now)+2
 9846 4dde 5091 0000 		lds r21,(time_now)+3
 9847 4de2 8091 0000 		lds r24,timer2_start+32
 9848 4de6 9091 0000 		lds r25,(timer2_start+32)+1
 9849 4dea A091 0000 		lds r26,(timer2_start+32)+2
 9850 4dee B091 0000 		lds r27,(timer2_start+32)+3
 9851 4df2 2817      		cp r18,r24
 9852 4df4 3907      		cpc r19,r25
 9853 4df6 4A07      		cpc r20,r26
 9854 4df8 5B07      		cpc r21,r27
 9855 4dfa 00F0      		brlo .L396
 9856 4dfc 2091 0000 		lds r18,time_now
 9857 4e00 3091 0000 		lds r19,(time_now)+1
 9858 4e04 4091 0000 		lds r20,(time_now)+2
 9859 4e08 5091 0000 		lds r21,(time_now)+3
 9860 4e0c 8091 0000 		lds r24,timer2_stop+32
 9861 4e10 9091 0000 		lds r25,(timer2_stop+32)+1
 9862 4e14 A091 0000 		lds r26,(timer2_stop+32)+2
 9863 4e18 B091 0000 		lds r27,(timer2_stop+32)+3
 9864 4e1c 2817      		cp r18,r24
 9865 4e1e 3907      		cpc r19,r25
 9866 4e20 4A07      		cpc r20,r26
 9867 4e22 5B07      		cpc r21,r27
 9868 4e24 00F4      		brsh .L396
 9869 4e26 2091 0000 		lds r18,timer2_start+32
 9870 4e2a 3091 0000 		lds r19,(timer2_start+32)+1
 9871 4e2e 4091 0000 		lds r20,(timer2_start+32)+2
 9872 4e32 5091 0000 		lds r21,(timer2_start+32)+3
 9873 4e36 8091 0000 		lds r24,timer2_stop+32
 9874 4e3a 9091 0000 		lds r25,(timer2_stop+32)+1
 9875 4e3e A091 0000 		lds r26,(timer2_stop+32)+2
 9876 4e42 B091 0000 		lds r27,(timer2_stop+32)+3
 9877 4e46 2817      		cp r18,r24
 9878 4e48 3907      		cpc r19,r25
 9879 4e4a 4A07      		cpc r20,r26
 9880 4e4c 5B07      		cpc r21,r27
 9881 4e4e 01F0      		breq .+2
 9882 4e50 00C0      		rjmp .L395
 9883               	.L396:
 9884 4e52 2091 0000 		lds r18,time_now
 9885 4e56 3091 0000 		lds r19,(time_now)+1
 9886 4e5a 4091 0000 		lds r20,(time_now)+2
 9887 4e5e 5091 0000 		lds r21,(time_now)+3
 9888 4e62 8091 0000 		lds r24,timer3_start+32
 9889 4e66 9091 0000 		lds r25,(timer3_start+32)+1
 9890 4e6a A091 0000 		lds r26,(timer3_start+32)+2
 9891 4e6e B091 0000 		lds r27,(timer3_start+32)+3
 9892 4e72 2817      		cp r18,r24
 9893 4e74 3907      		cpc r19,r25
 9894 4e76 4A07      		cpc r20,r26
 9895 4e78 5B07      		cpc r21,r27
 9896 4e7a 00F0      		brlo .L397
 9897 4e7c 2091 0000 		lds r18,time_now
 9898 4e80 3091 0000 		lds r19,(time_now)+1
 9899 4e84 4091 0000 		lds r20,(time_now)+2
 9900 4e88 5091 0000 		lds r21,(time_now)+3
 9901 4e8c 8091 0000 		lds r24,timer3_stop+32
 9902 4e90 9091 0000 		lds r25,(timer3_stop+32)+1
 9903 4e94 A091 0000 		lds r26,(timer3_stop+32)+2
 9904 4e98 B091 0000 		lds r27,(timer3_stop+32)+3
 9905 4e9c 2817      		cp r18,r24
 9906 4e9e 3907      		cpc r19,r25
 9907 4ea0 4A07      		cpc r20,r26
 9908 4ea2 5B07      		cpc r21,r27
 9909 4ea4 00F4      		brsh .L397
 9910 4ea6 2091 0000 		lds r18,timer3_start+32
 9911 4eaa 3091 0000 		lds r19,(timer3_start+32)+1
 9912 4eae 4091 0000 		lds r20,(timer3_start+32)+2
 9913 4eb2 5091 0000 		lds r21,(timer3_start+32)+3
 9914 4eb6 8091 0000 		lds r24,timer3_stop+32
 9915 4eba 9091 0000 		lds r25,(timer3_stop+32)+1
 9916 4ebe A091 0000 		lds r26,(timer3_stop+32)+2
 9917 4ec2 B091 0000 		lds r27,(timer3_stop+32)+3
 9918 4ec6 2817      		cp r18,r24
 9919 4ec8 3907      		cpc r19,r25
 9920 4eca 4A07      		cpc r20,r26
 9921 4ecc 5B07      		cpc r21,r27
 9922 4ece 01F4      		brne .L395
 9923               	.L397:
 9924 4ed0 8091 0000 		lds r24,cooler_hand_start
 9925 4ed4 8823      		tst r24
 9926 4ed6 01F4      		brne .+2
 9927 4ed8 00C0      		rjmp .L398
 9928               	.L395:
 9929               	.LM943:
 9930 4eda 8091 0000 		lds r24,cooler_start_pulse+2
 9931 4ede 8F5F      		subi r24,lo8(-(1))
 9932 4ee0 8093 0000 		sts cooler_start_pulse+2,r24
 9933               	.LM944:
 9934 4ee4 8A30      		cpi r24,lo8(10)
 9935 4ee6 01F4      		brne .L399
 9936               	.LM945:
 9937 4ee8 6091 0000 		lds r22,cooler_data
 9938 4eec 7091 0000 		lds r23,(cooler_data)+1
 9939 4ef0 8091 0000 		lds r24,(cooler_data)+2
 9940 4ef4 9091 0000 		lds r25,(cooler_data)+3
 9941 4ef8 6093 0000 		sts cooler_data+8,r22
 9942 4efc 7093 0000 		sts (cooler_data+8)+1,r23
 9943 4f00 8093 0000 		sts (cooler_data+8)+2,r24
 9944 4f04 9093 0000 		sts (cooler_data+8)+3,r25
 9945               	.LM946:
 9946 4f08 29E0      		ldi r18,lo8(9)
 9947 4f0a 2093 0000 		sts cooler_start_pulse+2,r18
 9948               	.LM947:
 9949 4f0e 6090 0000 		lds r6,cooler_min
 9950 4f12 7090 0000 		lds r7,(cooler_min)+1
 9951 4f16 8090 0000 		lds r8,(cooler_min)+2
 9952 4f1a 9090 0000 		lds r9,(cooler_min)+3
 9953 4f1e A401      		movw r20,r8
 9954 4f20 9301      		movw r18,r6
 9955 4f22 0E94 0000 		call __ltsf2
 9956 4f26 8823      		tst r24
 9957 4f28 04F4      		brge .L400
 9958 4f2a 6092 0000 		sts cooler_data+8,r6
 9959 4f2e 7092 0000 		sts (cooler_data+8)+1,r7
 9960 4f32 8092 0000 		sts (cooler_data+8)+2,r8
 9961 4f36 9092 0000 		sts (cooler_data+8)+3,r9
 9962 4f3a 00C0      		rjmp .L400
 9963               	.L399:
 9964               	.LM948:
 9965 4f3c 80E0      		ldi r24,lo8(0x437f0000)
 9966 4f3e 90E0      		ldi r25,hi8(0x437f0000)
 9967 4f40 AFE7      		ldi r26,hlo8(0x437f0000)
 9968 4f42 B3E4      		ldi r27,hhi8(0x437f0000)
 9969 4f44 8093 0000 		sts cooler_data+8,r24
 9970 4f48 9093 0000 		sts (cooler_data+8)+1,r25
 9971 4f4c A093 0000 		sts (cooler_data+8)+2,r26
 9972 4f50 B093 0000 		sts (cooler_data+8)+3,r27
 9973               	.L400:
 9974               	.LM949:
 9975 4f54 6091 0000 		lds r22,cooler_data+8
 9976 4f58 7091 0000 		lds r23,(cooler_data+8)+1
 9977 4f5c 8091 0000 		lds r24,(cooler_data+8)+2
 9978 4f60 9091 0000 		lds r25,(cooler_data+8)+3
 9979 4f64 0E94 0000 		call __fixunssfsi
 9980 4f68 6CBF      		out 92-32,r22
 9981               	.LM950:
 9982 4f6a 8091 0000 		lds r24,cooler_chanel_status
 9983 4f6e 8233      		cpi r24,lo8(50)
 9984 4f70 01F4      		brne .+2
 9985 4f72 00C0      		rjmp .L393
 9986 4f74 8433      		cpi r24,lo8(52)
 9987 4f76 01F4      		brne .+2
 9988 4f78 00C0      		rjmp .L393
 9989 4f7a 81E3      		ldi r24,lo8(49)
 9990 4f7c 8093 0000 		sts cooler_chanel_status,r24
 9991 4f80 00C0      		rjmp .L393
 9992               	.L398:
 9993               	.LM951:
 9994 4f82 1092 0000 		sts cooler_start_pulse+2,__zero_reg__
 9995               	.LM952:
 9996 4f86 D090 0000 		lds r13,cooler_start_pulse
 9997 4f8a DD20      		tst r13
 9998 4f8c 01F0      		breq .L402
 9999 4f8e 6091 0000 		lds r22,cooler_data
 10000 4f92 7091 0000 		lds r23,(cooler_data)+1
 10001 4f96 8091 0000 		lds r24,(cooler_data)+2
 10002 4f9a 9091 0000 		lds r25,(cooler_data)+3
 10003 4f9e 0E94 0000 		call __fixunssfsi
 10004 4fa2 6CBF      		out 92-32,r22
 10005               	.L402:
 10006               	.LM953:
 10007 4fa4 1091 0000 		lds r17,cooler_start_pulse+3
 10008 4fa8 1123      		tst r17
 10009 4faa 01F0      		breq .L403
 10010 4fac 6091 0000 		lds r22,cooler_data+12
 10011 4fb0 7091 0000 		lds r23,(cooler_data+12)+1
 10012 4fb4 8091 0000 		lds r24,(cooler_data+12)+2
 10013 4fb8 9091 0000 		lds r25,(cooler_data+12)+3
 10014 4fbc 0E94 0000 		call __fixunssfsi
 10015 4fc0 6CBF      		out 92-32,r22
 10016               	.L403:
 10017               	.LM954:
 10018 4fc2 E090 0000 		lds r14,cooler_start_pulse+1
 10019 4fc6 EE20      		tst r14
 10020 4fc8 01F0      		breq .L404
 10021 4fca 6091 0000 		lds r22,cooler_data+4
 10022 4fce 7091 0000 		lds r23,(cooler_data+4)+1
 10023 4fd2 8091 0000 		lds r24,(cooler_data+4)+2
 10024 4fd6 9091 0000 		lds r25,(cooler_data+4)+3
 10025 4fda 0E94 0000 		call __fixunssfsi
 10026 4fde 6CBF      		out 92-32,r22
 10027               	.L404:
 10028               	.LM955:
 10029 4fe0 80E0      		ldi r24,lo8(0)
 10030 4fe2 90E0      		ldi r25,hi8(0)
 10031 4fe4 1123      		tst r17
 10032 4fe6 01F4      		brne .L405
 10033 4fe8 81E0      		ldi r24,lo8(1)
 10034 4fea 90E0      		ldi r25,hi8(1)
 10035               	.L405:
 10036 4fec 9C01      		movw r18,r24
 10037 4fee 2170      		andi r18,lo8(1)
 10038 4ff0 3070      		andi r19,hi8(1)
 10039 4ff2 80E0      		ldi r24,lo8(0)
 10040 4ff4 DD20      		tst r13
 10041 4ff6 01F4      		brne .L406
 10042 4ff8 81E0      		ldi r24,lo8(1)
 10043               	.L406:
 10044 4ffa 90E0      		ldi r25,lo8(0)
 10045 4ffc EE20      		tst r14
 10046 4ffe 01F4      		brne .L407
 10047 5000 91E0      		ldi r25,lo8(1)
 10048               	.L407:
 10049 5002 8923      		and r24,r25
 10050 5004 90E0      		ldi r25,lo8(0)
 10051 5006 2823      		and r18,r24
 10052 5008 3923      		and r19,r25
 10053 500a 232B      		or r18,r19
 10054 500c 01F0      		breq .L393
 10055 500e 1CBE      		out 92-32,__zero_reg__
 10056               	.L393:
 10057               	.LM956:
 10058 5010 2091 0000 		lds r18,time_now
 10059 5014 3091 0000 		lds r19,(time_now)+1
 10060 5018 4091 0000 		lds r20,(time_now)+2
 10061 501c 5091 0000 		lds r21,(time_now)+3
 10062 5020 8091 0000 		lds r24,co2_start
 10063 5024 9091 0000 		lds r25,(co2_start)+1
 10064 5028 A091 0000 		lds r26,(co2_start)+2
 10065 502c B091 0000 		lds r27,(co2_start)+3
 10066 5030 8217      		cp r24,r18
 10067 5032 9307      		cpc r25,r19
 10068 5034 A407      		cpc r26,r20
 10069 5036 B507      		cpc r27,r21
 10070 5038 00F0      		brlo .+2
 10071 503a 00C0      		rjmp .L408
 10072 503c 2091 0000 		lds r18,time_now
 10073 5040 3091 0000 		lds r19,(time_now)+1
 10074 5044 4091 0000 		lds r20,(time_now)+2
 10075 5048 5091 0000 		lds r21,(time_now)+3
 10076 504c 8091 0000 		lds r24,co2_stop
 10077 5050 9091 0000 		lds r25,(co2_stop)+1
 10078 5054 A091 0000 		lds r26,(co2_stop)+2
 10079 5058 B091 0000 		lds r27,(co2_stop)+3
 10080 505c 2817      		cp r18,r24
 10081 505e 3907      		cpc r19,r25
 10082 5060 4A07      		cpc r20,r26
 10083 5062 5B07      		cpc r21,r27
 10084 5064 00F0      		brlo .+2
 10085 5066 00C0      		rjmp .L408
 10086               	.LM957:
 10087 5068 8091 0000 		lds r24,co2
 10088 506c 8823      		tst r24
 10089 506e 01F4      		brne .+2
 10090 5070 00C0      		rjmp .L409
 10091               	.LM958:
 10092 5072 8091 0000 		lds r24,ph_high
 10093 5076 9091 0000 		lds r25,(ph_high)+1
 10094 507a A0E0      		ldi r26,lo8(0)
 10095 507c B0E0      		ldi r27,hi8(0)
 10096 507e 2091 0000 		lds r18,data_ph
 10097 5082 3091 0000 		lds r19,(data_ph)+1
 10098 5086 4091 0000 		lds r20,(data_ph)+2
 10099 508a 5091 0000 		lds r21,(data_ph)+3
 10100 508e 2817      		cp r18,r24
 10101 5090 3907      		cpc r19,r25
 10102 5092 4A07      		cpc r20,r26
 10103 5094 5B07      		cpc r21,r27
 10104 5096 00F0      		brlo .L410
 10105 5098 81E0      		ldi r24,lo8(1)
 10106 509a 8093 0000 		sts co2_set,r24
 10107               	.L410:
 10108               	.LM959:
 10109 509e 8091 0000 		lds r24,ph_low
 10110 50a2 9091 0000 		lds r25,(ph_low)+1
 10111 50a6 A0E0      		ldi r26,lo8(0)
 10112 50a8 B0E0      		ldi r27,hi8(0)
 10113 50aa 2091 0000 		lds r18,data_ph
 10114 50ae 3091 0000 		lds r19,(data_ph)+1
 10115 50b2 4091 0000 		lds r20,(data_ph)+2
 10116 50b6 5091 0000 		lds r21,(data_ph)+3
 10117 50ba 8217      		cp r24,r18
 10118 50bc 9307      		cpc r25,r19
 10119 50be A407      		cpc r26,r20
 10120 50c0 B507      		cpc r27,r21
 10121 50c2 00F0      		brlo .L411
 10122 50c4 1092 0000 		sts co2_set,__zero_reg__
 10123               	.L411:
 10124               	.LM960:
 10125 50c8 8091 0000 		lds r24,co2_set
 10126 50cc 8823      		tst r24
 10127 50ce 01F0      		breq .L412
 10128               	.LM961:
 10129 50d0 83E3      		ldi r24,lo8(51)
 10130 50d2 8093 0000 		sts co2_status,r24
 10131               	.LM962:
 10132 50d6 AA9A      		sbi 53-32,2
 10133 50d8 00C0      		rjmp .L408
 10134               	.L412:
 10135               	.LM963:
 10136 50da AA98      		cbi 53-32,2
 10137               	.LM964:
 10138 50dc 8091 0000 		lds r24,co2_timer_status
 10139 50e0 8823      		tst r24
 10140 50e2 01F0      		breq .L413
 10141 50e4 81E3      		ldi r24,lo8(49)
 10142 50e6 8093 0000 		sts co2_status,r24
 10143               	.L413:
 10144               	.LM965:
 10145 50ea 8091 0000 		lds r24,rele_set+6
 10146 50ee 8823      		tst r24
 10147 50f0 01F0      		breq .L414
 10148 50f2 82E3      		ldi r24,lo8(50)
 10149 50f4 8093 0000 		sts co2_status,r24
 10150               	.L414:
 10151               	.LM966:
 10152 50f8 8091 0000 		lds r24,co2_timer_status
 10153 50fc 8823      		tst r24
 10154 50fe 01F4      		brne .L408
 10155 5100 8091 0000 		lds r24,rele_set+6
 10156 5104 8823      		tst r24
 10157 5106 01F4      		brne .L408
 10158 5108 00C0      		rjmp .L485
 10159               	.L409:
 10160               	.LM967:
 10161 510a 8091 0000 		lds r24,rele_set+6
 10162 510e 8130      		cpi r24,lo8(1)
 10163 5110 01F4      		brne .L415
 10164 5112 82E3      		ldi r24,lo8(50)
 10165 5114 8093 0000 		sts co2_status,r24
 10166               	.L415:
 10167               	.LM968:
 10168 5118 8091 0000 		lds r24,co2_timer_status
 10169 511c 8823      		tst r24
 10170 511e 01F4      		brne .L408
 10171 5120 8091 0000 		lds r24,rele_set+6
 10172 5124 8823      		tst r24
 10173 5126 01F4      		brne .L408
 10174 5128 AA98      		cbi 53-32,2
 10175               	.L485:
 10176 512a 80E3      		ldi r24,lo8(48)
 10177 512c 8093 0000 		sts co2_status,r24
 10178               	.L408:
 10179               	.LM969:
 10180 5130 2091 0000 		lds r18,time_now
 10181 5134 3091 0000 		lds r19,(time_now)+1
 10182 5138 4091 0000 		lds r20,(time_now)+2
 10183 513c 5091 0000 		lds r21,(time_now)+3
 10184 5140 8091 0000 		lds r24,lcd_led_start
 10185 5144 9091 0000 		lds r25,(lcd_led_start)+1
 10186 5148 A091 0000 		lds r26,(lcd_led_start)+2
 10187 514c B091 0000 		lds r27,(lcd_led_start)+3
 10188 5150 8217      		cp r24,r18
 10189 5152 9307      		cpc r25,r19
 10190 5154 A407      		cpc r26,r20
 10191 5156 B507      		cpc r27,r21
 10192 5158 00F4      		brsh .L416
 10193 515a 2091 0000 		lds r18,time_now
 10194 515e 3091 0000 		lds r19,(time_now)+1
 10195 5162 4091 0000 		lds r20,(time_now)+2
 10196 5166 5091 0000 		lds r21,(time_now)+3
 10197 516a 8091 0000 		lds r24,lcd_led_stop
 10198 516e 9091 0000 		lds r25,(lcd_led_stop)+1
 10199 5172 A091 0000 		lds r26,(lcd_led_stop)+2
 10200 5176 B091 0000 		lds r27,(lcd_led_stop)+3
 10201 517a 2817      		cp r18,r24
 10202 517c 3907      		cpc r19,r25
 10203 517e 4A07      		cpc r20,r26
 10204 5180 5B07      		cpc r21,r27
 10205 5182 00F4      		brsh .L416
 10206 5184 AD98      		cbi 53-32,5
 10207 5186 00C0      		rjmp .L417
 10208               	.L416:
 10209               	.LM970:
 10210 5188 AD9A      		sbi 53-32,5
 10211               	.L417:
 10212               	.LM971:
 10213 518a 0E94 0000 		call set_temp_mode_and_produv
 10214               	.LM972:
 10215 518e 0E94 0000 		call water_doliv
 10216               	.LM973:
 10217 5192 8091 0000 		lds r24,EEPROM_WRITE
 10218 5196 8823      		tst r24
 10219 5198 01F0      		breq .L418
 10220 519a 0E94 0000 		call save_option_eeprom
 10221               	.L418:
 10222               	.LM974:
 10223 519e 90B3      		in r25,48-32
 10224 51a0 83B3      		in r24,51-32
 10225 51a2 8170      		andi r24,lo8(1)
 10226 51a4 8295      		swap r24
 10227 51a6 807F      		andi r24,lo8(-16)
 10228 51a8 9295      		swap r25
 10229 51aa 9F70      		andi r25,lo8(15)
 10230 51ac 890F      		add r24,r25
 10231 51ae 8093 0000 		sts rele_ports_status,r24
 10232               	.LM975:
 10233 51b2 90B3      		in r25,48-32
 10234 51b4 83B3      		in r24,51-32
 10235 51b6 8295      		swap r24
 10236 51b8 807F      		andi r24,lo8(-16)
 10237 51ba 9295      		swap r25
 10238 51bc 9F70      		andi r25,lo8(15)
 10239 51be 890F      		add r24,r25
 10240 51c0 8093 0000 		sts rele_ports_status_lcd,r24
 10241               	.LM976:
 10242 51c4 9091 0000 		lds r25,rele_set+1
 10243 51c8 990F      		lsl r25
 10244 51ca 8091 0000 		lds r24,rele_set+2
 10245 51ce 880F      		lsl r24
 10246 51d0 880F      		lsl r24
 10247 51d2 892B      		or r24,r25
 10248 51d4 9091 0000 		lds r25,rele_set
 10249 51d8 892B      		or r24,r25
 10250 51da 9091 0000 		lds r25,rele_set+3
 10251 51de 990F      		lsl r25
 10252 51e0 990F      		lsl r25
 10253 51e2 990F      		lsl r25
 10254 51e4 982B      		or r25,r24
 10255 51e6 8091 0000 		lds r24,rele_set+4
 10256 51ea 8295      		swap r24
 10257 51ec 807F      		andi r24,lo8(-16)
 10258 51ee 892B      		or r24,r25
 10259 51f0 8093 0000 		sts rele_hand_status,r24
 10260               	.LM977:
 10261 51f4 40E0      		ldi r20,lo8(0)
 10262 51f6 50E0      		ldi r21,hi8(0)
 10263 51f8 8091 0000 		lds r24,cooler_start_pulse+3
 10264 51fc 8823      		tst r24
 10265 51fe 01F4      		brne .L420
 10266 5200 41E0      		ldi r20,lo8(1)
 10267 5202 50E0      		ldi r21,hi8(1)
 10268               	.L420:
 10269 5204 20E0      		ldi r18,lo8(0)
 10270 5206 30E0      		ldi r19,hi8(0)
 10271 5208 8091 0000 		lds r24,cooler_start_pulse+2
 10272 520c 8823      		tst r24
 10273 520e 01F4      		brne .L421
 10274 5210 21E0      		ldi r18,lo8(1)
 10275 5212 30E0      		ldi r19,hi8(1)
 10276               	.L421:
 10277 5214 2423      		and r18,r20
 10278 5216 3523      		and r19,r21
 10279 5218 90E0      		ldi r25,lo8(0)
 10280 521a 8091 0000 		lds r24,cooler_start_pulse
 10281 521e 8823      		tst r24
 10282 5220 01F4      		brne .L422
 10283 5222 91E0      		ldi r25,lo8(1)
 10284               	.L422:
 10285 5224 40E0      		ldi r20,lo8(0)
 10286 5226 8091 0000 		lds r24,cooler_start_pulse+1
 10287 522a 8823      		tst r24
 10288 522c 01F4      		brne .L423
 10289 522e 41E0      		ldi r20,lo8(1)
 10290               	.L423:
 10291 5230 9423      		and r25,r20
 10292 5232 892F      		mov r24,r25
 10293 5234 90E0      		ldi r25,lo8(0)
 10294 5236 2823      		and r18,r24
 10295 5238 3923      		and r19,r25
 10296 523a 232B      		or r18,r19
 10297 523c 01F0      		breq .L419
 10298 523e 80E3      		ldi r24,lo8(48)
 10299 5240 8093 0000 		sts cooler_chanel_status,r24
 10300               	.L419:
 10301               	.LM978:
 10302 5244 90E0      		ldi r25,lo8(0)
 10303 5246 8091 0000 		lds r24,rele_set+6
 10304 524a 8823      		tst r24
 10305 524c 01F4      		brne .L425
 10306 524e 91E0      		ldi r25,lo8(1)
 10307               	.L425:
 10308 5250 20E0      		ldi r18,lo8(0)
 10309 5252 8091 0000 		lds r24,co2_timer_status
 10310 5256 8823      		tst r24
 10311 5258 01F4      		brne .L426
 10312 525a 21E0      		ldi r18,lo8(1)
 10313               	.L426:
 10314 525c 9223      		and r25,r18
 10315 525e 292F      		mov r18,r25
 10316 5260 30E0      		ldi r19,lo8(0)
 10317 5262 40E0      		ldi r20,lo8(0)
 10318 5264 50E0      		ldi r21,hi8(0)
 10319 5266 8091 0000 		lds r24,co2
 10320 526a 8823      		tst r24
 10321 526c 01F4      		brne .L427
 10322 526e 41E0      		ldi r20,lo8(1)
 10323 5270 50E0      		ldi r21,hi8(1)
 10324               	.L427:
 10325 5272 2423      		and r18,r20
 10326 5274 3523      		and r19,r21
 10327 5276 232B      		or r18,r19
 10328 5278 01F0      		breq .L424
 10329 527a 80E3      		ldi r24,lo8(48)
 10330 527c 8093 0000 		sts co2_status,r24
 10331               	.L424:
 10332               	.LM979:
 10333 5280 40E0      		ldi r20,lo8(0)
 10334 5282 50E0      		ldi r21,hi8(0)
 10335 5284 8091 0000 		lds r24,WATER_ERROR
 10336 5288 8823      		tst r24
 10337 528a 01F4      		brne .L429
 10338 528c 41E0      		ldi r20,lo8(1)
 10339 528e 50E0      		ldi r21,hi8(1)
 10340               	.L429:
 10341 5290 20E0      		ldi r18,lo8(0)
 10342 5292 30E0      		ldi r19,hi8(0)
 10343 5294 8091 0000 		lds r24,pompa
 10344 5298 8823      		tst r24
 10345 529a 01F4      		brne .L430
 10346 529c 21E0      		ldi r18,lo8(1)
 10347 529e 30E0      		ldi r19,hi8(1)
 10348               	.L430:
 10349 52a0 2423      		and r18,r20
 10350 52a2 3523      		and r19,r21
 10351 52a4 90E0      		ldi r25,lo8(0)
 10352 52a6 8091 0000 		lds r24,rele_set+7
 10353 52aa 8823      		tst r24
 10354 52ac 01F4      		brne .L431
 10355 52ae 91E0      		ldi r25,lo8(1)
 10356               	.L431:
 10357 52b0 40E0      		ldi r20,lo8(0)
 10358 52b2 8091 0000 		lds r24,doliv_timer_status
 10359 52b6 8823      		tst r24
 10360 52b8 01F4      		brne .L432
 10361 52ba 41E0      		ldi r20,lo8(1)
 10362               	.L432:
 10363 52bc 9423      		and r25,r20
 10364 52be 892F      		mov r24,r25
 10365 52c0 90E0      		ldi r25,lo8(0)
 10366 52c2 2823      		and r18,r24
 10367 52c4 3923      		and r19,r25
 10368 52c6 232B      		or r18,r19
 10369 52c8 01F0      		breq .L428
 10370 52ca 80E3      		ldi r24,lo8(48)
 10371 52cc 8093 0000 		sts water_lvl_status,r24
 10372               	.L428:
 10373               	.LM980:
 10374 52d0 90E0      		ldi r25,lo8(0)
 10375 52d2 8091 0000 		lds r24,rele_set+5
 10376 52d6 8823      		tst r24
 10377 52d8 01F4      		brne .L434
 10378 52da 91E0      		ldi r25,lo8(1)
 10379               	.L434:
 10380 52dc 20E0      		ldi r18,lo8(0)
 10381 52de 8091 0000 		lds r24,heater_timer_status
 10382 52e2 8823      		tst r24
 10383 52e4 01F4      		brne .L435
 10384 52e6 21E0      		ldi r18,lo8(1)
 10385               	.L435:
 10386 52e8 9223      		and r25,r18
 10387 52ea 292F      		mov r18,r25
 10388 52ec 30E0      		ldi r19,lo8(0)
 10389 52ee 40E0      		ldi r20,lo8(0)
 10390 52f0 50E0      		ldi r21,hi8(0)
 10391 52f2 8091 0000 		lds r24,heater
 10392 52f6 8823      		tst r24
 10393 52f8 01F4      		brne .L436
 10394 52fa 41E0      		ldi r20,lo8(1)
 10395 52fc 50E0      		ldi r21,hi8(1)
 10396               	.L436:
 10397 52fe 2423      		and r18,r20
 10398 5300 3523      		and r19,r21
 10399 5302 232B      		or r18,r19
 10400 5304 01F0      		breq .L433
 10401 5306 80E3      		ldi r24,lo8(48)
 10402 5308 8093 0000 		sts heater_chanel_status,r24
 10403               	.L433:
 10404               	.LM981:
 10405 530c 8091 0000 		lds r24,temp_control
 10406 5310 9091 0000 		lds r25,mode_status
 10407 5314 8130      		cpi r24,lo8(1)
 10408 5316 01F4      		brne .L437
 10409 5318 9160      		ori r25,lo8(1)
 10410 531a 00C0      		rjmp .L486
 10411               	.L437:
 10412               	.LM982:
 10413 531c 9E7F      		andi r25,lo8(-2)
 10414               	.L486:
 10415 531e 9093 0000 		sts mode_status,r25
 10416               	.LM983:
 10417 5322 8091 0000 		lds r24,produv
 10418 5326 9091 0000 		lds r25,mode_status
 10419 532a 8130      		cpi r24,lo8(1)
 10420 532c 01F4      		brne .L439
 10421 532e 9260      		ori r25,lo8(2)
 10422 5330 00C0      		rjmp .L487
 10423               	.L439:
 10424               	.LM984:
 10425 5332 9D7F      		andi r25,lo8(-3)
 10426               	.L487:
 10427 5334 9093 0000 		sts mode_status,r25
 10428               	.LM985:
 10429 5338 8091 0000 		lds r24,co2
 10430 533c 9091 0000 		lds r25,mode_status
 10431 5340 8130      		cpi r24,lo8(1)
 10432 5342 01F4      		brne .L441
 10433 5344 9460      		ori r25,lo8(4)
 10434 5346 00C0      		rjmp .L488
 10435               	.L441:
 10436               	.LM986:
 10437 5348 9B7F      		andi r25,lo8(-5)
 10438               	.L488:
 10439 534a 9093 0000 		sts mode_status,r25
 10440               	.LM987:
 10441 534e 8091 0000 		lds r24,doliv
 10442 5352 9091 0000 		lds r25,mode_status
 10443 5356 8130      		cpi r24,lo8(1)
 10444 5358 01F4      		brne .L443
 10445 535a 9860      		ori r25,lo8(8)
 10446 535c 00C0      		rjmp .L489
 10447               	.L443:
 10448               	.LM988:
 10449 535e 977F      		andi r25,lo8(-9)
 10450               	.L489:
 10451 5360 9093 0000 		sts mode_status,r25
 10452               	.LM989:
 10453 5364 1092 0000 		sts hand_mode_set,__zero_reg__
 10454 5368 E0E0      		ldi r30,lo8(rele_set)
 10455 536a F0E0      		ldi r31,hi8(rele_set)
 10456               	.LBB304:
 10457               	.LM990:
 10458 536c 91E0      		ldi r25,lo8(1)
 10459               	.L447:
 10460 536e 8081      		ld r24,Z
 10461 5370 8823      		tst r24
 10462 5372 01F4      		brne .L477
 10463 5374 8091 0000 		lds r24,cooler_start_pulse
 10464 5378 8823      		tst r24
 10465 537a 01F0      		breq .L445
 10466               	.L477:
 10467 537c 9093 0000 		sts hand_mode_set,r25
 10468               	.L445:
 10469 5380 3196      		adiw r30,1
 10470               	.LM991:
 10471 5382 30E0      		ldi r19,hi8(rele_set+8)
 10472 5384 E030      		cpi r30,lo8(rele_set+8)
 10473 5386 F307      		cpc r31,r19
 10474 5388 01F4      		brne .L447
 10475               	.LBE304:
 10476               	.LM992:
 10477 538a 8091 0000 		lds r24,WATER_ERROR
 10478 538e 8823      		tst r24
 10479 5390 01F0      		breq .L448
 10480               	.LM993:
 10481 5392 21E2      		ldi r18,lo8(33)
 10482 5394 2093 0000 		sts string_1+11,r18
 10483               	.LM994:
 10484 5398 85E4      		ldi r24,lo8(69)
 10485 539a 8093 0000 		sts string_1+12,r24
 10486               	.LM995:
 10487 539e 92E5      		ldi r25,lo8(82)
 10488 53a0 9093 0000 		sts string_1+13,r25
 10489               	.LM996:
 10490 53a4 9093 0000 		sts string_1+14,r25
 10491               	.LM997:
 10492 53a8 8FE4      		ldi r24,lo8(79)
 10493 53aa 8093 0000 		sts string_1+15,r24
 10494               	.LM998:
 10495 53ae 9093 0000 		sts string_1+16,r25
 10496               	.LM999:
 10497 53b2 2093 0000 		sts string_1+17,r18
 10498               	.LM1000:
 10499 53b6 40E2      		ldi r20,lo8(32)
 10500 53b8 4093 0000 		sts string_1+18,r20
 10501 53bc 00C0      		rjmp .L449
 10502               	.L448:
 10503               	.LM1001:
 10504 53be 8091 0000 		lds r24,hand_mode_set
 10505 53c2 8823      		tst r24
 10506 53c4 01F0      		breq .L450
 10507               	.LM1002:
 10508 53c6 91E2      		ldi r25,lo8(33)
 10509 53c8 9093 0000 		sts string_1+11,r25
 10510               	.LM1003:
 10511 53cc 9093 0000 		sts string_1+12,r25
 10512               	.LM1004:
 10513 53d0 88E4      		ldi r24,lo8(72)
 10514 53d2 8093 0000 		sts string_1+13,r24
 10515               	.LM1005:
 10516 53d6 51E4      		ldi r21,lo8(65)
 10517 53d8 5093 0000 		sts string_1+14,r21
 10518               	.LM1006:
 10519 53dc 8EE4      		ldi r24,lo8(78)
 10520 53de 8093 0000 		sts string_1+15,r24
 10521               	.LM1007:
 10522 53e2 84E4      		ldi r24,lo8(68)
 10523 53e4 8093 0000 		sts string_1+16,r24
 10524               	.LM1008:
 10525 53e8 9093 0000 		sts string_1+17,r25
 10526               	.LM1009:
 10527 53ec 9093 0000 		sts string_1+18,r25
 10528 53f0 00C0      		rjmp .L449
 10529               	.L450:
 10530               	.LM1010:
 10531 53f2 84E5      		ldi r24,lo8(84)
 10532 53f4 8093 0000 		sts string_1+11,r24
 10533               	.LM1011:
 10534 53f8 89E4      		ldi r24,lo8(73)
 10535 53fa 8093 0000 		sts string_1+12,r24
 10536               	.LM1012:
 10537 53fe 8DE4      		ldi r24,lo8(77)
 10538 5400 8093 0000 		sts string_1+13,r24
 10539               	.LM1013:
 10540 5404 85E4      		ldi r24,lo8(69)
 10541 5406 8093 0000 		sts string_1+14,r24
 10542               	.LM1014:
 10543 540a 82E5      		ldi r24,lo8(82)
 10544 540c 8093 0000 		sts string_1+15,r24
 10545               	.LM1015:
 10546 5410 83E5      		ldi r24,lo8(83)
 10547 5412 8093 0000 		sts string_1+16,r24
 10548               	.LM1016:
 10549 5416 80E2      		ldi r24,lo8(32)
 10550 5418 8093 0000 		sts string_1+17,r24
 10551               	.LM1017:
 10552 541c 8093 0000 		sts string_1+18,r24
 10553               	.L449:
 10554               	.LM1018:
 10555 5420 8091 0000 		lds r24,rele_ports_status_lcd
 10556 5424 80FF      		sbrs r24,0
 10557 5426 00C0      		rjmp .L451
 10558 5428 81E3      		ldi r24,lo8(49)
 10559 542a 8093 0000 		sts string_4+11,r24
 10560 542e 00C0      		rjmp .L452
 10561               	.L451:
 10562               	.LM1019:
 10563 5430 9DE2      		ldi r25,lo8(45)
 10564 5432 9093 0000 		sts string_4+11,r25
 10565               	.L452:
 10566               	.LM1020:
 10567 5436 8091 0000 		lds r24,rele_ports_status_lcd
 10568 543a 81FF      		sbrs r24,1
 10569 543c 00C0      		rjmp .L453
 10570 543e 82E3      		ldi r24,lo8(50)
 10571 5440 8093 0000 		sts string_4+12,r24
 10572 5444 00C0      		rjmp .L454
 10573               	.L453:
 10574               	.LM1021:
 10575 5446 ADE2      		ldi r26,lo8(45)
 10576 5448 A093 0000 		sts string_4+12,r26
 10577               	.L454:
 10578               	.LM1022:
 10579 544c 8091 0000 		lds r24,rele_ports_status_lcd
 10580 5450 82FF      		sbrs r24,2
 10581 5452 00C0      		rjmp .L455
 10582 5454 83E3      		ldi r24,lo8(51)
 10583 5456 8093 0000 		sts string_4+13,r24
 10584 545a 00C0      		rjmp .L456
 10585               	.L455:
 10586               	.LM1023:
 10587 545c BDE2      		ldi r27,lo8(45)
 10588 545e B093 0000 		sts string_4+13,r27
 10589               	.L456:
 10590               	.LM1024:
 10591 5462 8091 0000 		lds r24,rele_ports_status_lcd
 10592 5466 83FF      		sbrs r24,3
 10593 5468 00C0      		rjmp .L457
 10594 546a E4E3      		ldi r30,lo8(52)
 10595 546c E093 0000 		sts string_4+14,r30
 10596 5470 00C0      		rjmp .L458
 10597               	.L457:
 10598               	.LM1025:
 10599 5472 FDE2      		ldi r31,lo8(45)
 10600 5474 F093 0000 		sts string_4+14,r31
 10601               	.L458:
 10602               	.LM1026:
 10603 5478 8091 0000 		lds r24,rele_ports_status_lcd
 10604 547c 84FF      		sbrs r24,4
 10605 547e 00C0      		rjmp .L459
 10606 5480 25E3      		ldi r18,lo8(53)
 10607 5482 2093 0000 		sts string_4+15,r18
 10608 5486 00C0      		rjmp .L460
 10609               	.L459:
 10610               	.LM1027:
 10611 5488 3DE2      		ldi r19,lo8(45)
 10612 548a 3093 0000 		sts string_4+15,r19
 10613               	.L460:
 10614               	.LM1028:
 10615 548e 8091 0000 		lds r24,rele_ports_status_lcd
 10616 5492 85FF      		sbrs r24,5
 10617 5494 00C0      		rjmp .L461
 10618 5496 46E3      		ldi r20,lo8(54)
 10619 5498 4093 0000 		sts string_4+16,r20
 10620 549c 00C0      		rjmp .L462
 10621               	.L461:
 10622               	.LM1029:
 10623 549e 5DE2      		ldi r21,lo8(45)
 10624 54a0 5093 0000 		sts string_4+16,r21
 10625               	.L462:
 10626               	.LM1030:
 10627 54a4 8091 0000 		lds r24,rele_ports_status_lcd
 10628 54a8 86FF      		sbrs r24,6
 10629 54aa 00C0      		rjmp .L463
 10630 54ac 87E3      		ldi r24,lo8(55)
 10631 54ae 8093 0000 		sts string_4+17,r24
 10632 54b2 00C0      		rjmp .L464
 10633               	.L463:
 10634               	.LM1031:
 10635 54b4 9DE2      		ldi r25,lo8(45)
 10636 54b6 9093 0000 		sts string_4+17,r25
 10637               	.L464:
 10638               	.LM1032:
 10639 54ba 8091 0000 		lds r24,rele_ports_status_lcd
 10640 54be 87FF      		sbrs r24,7
 10641 54c0 00C0      		rjmp .L465
 10642 54c2 A8E3      		ldi r26,lo8(56)
 10643 54c4 A093 0000 		sts string_4+18,r26
 10644 54c8 00C0      		rjmp .L466
 10645               	.L465:
 10646               	.LM1033:
 10647 54ca BDE2      		ldi r27,lo8(45)
 10648 54cc B093 0000 		sts string_4+18,r27
 10649               	.L466:
 10650               	.LM1034:
 10651 54d0 8CB7      		in r24,92-32
 10652 54d2 8823      		tst r24
 10653 54d4 01F0      		breq .L467
 10654 54d6 E3E4      		ldi r30,lo8(67)
 10655 54d8 E093 0000 		sts string_4+19,r30
 10656 54dc 00C0      		rjmp .L468
 10657               	.L467:
 10658               	.LM1035:
 10659 54de FDE2      		ldi r31,lo8(45)
 10660 54e0 F093 0000 		sts string_4+19,r31
 10661               	.L468:
 10662               	.LM1036:
 10663 54e4 8091 0000 		lds r24,FlagsFastCount
 10664 54e8 9091 0000 		lds r25,(FlagsFastCount)+1
 10665 54ec 9B7F      		andi r25,hi8(-1025)
 10666 54ee 9093 0000 		sts (FlagsFastCount)+1,r25
 10667 54f2 8093 0000 		sts FlagsFastCount,r24
 10668               	.L293:
 10669               	.LM1037:
 10670 54f6 8091 0000 		lds r24,FlagsFastCount
 10671 54fa 9091 0000 		lds r25,(FlagsFastCount)+1
 10672 54fe 94FF      		sbrs r25,4
 10673 5500 00C0      		rjmp .L469
 10674               	.LM1038:
 10675 5502 DB9A      		sbi 59-32,3
 10676               	.LBB305:
 10677               	.LBB306:
 10678               	.LBB307:
 10679               	.LBB308:
 10680               	.LBB309:
 10681               	.LBB310:
 10682               	.LM1039:
 10683 5504 84E1      		ldi r24,lo8(276)
 10684 5506 91E0      		ldi r25,hi8(276)
 10685               	.LVL156:
 10686               	/* #APP */
 10687               	 ;  105 "c:/winavr-20100110/lib/gcc/../../avr/include/util/delay_basic.h" 1
 10688 5508 0197      		1: sbiw r24,1
 10689 550a 01F4      		brne 1b
 10690               	 ;  0 "" 2
 10691               	/* #NOAPP */
 10692               	.LBE310:
 10693               	.LBE309:
 10694               	.LBE308:
 10695               	.LBE307:
 10696               	.LBE306:
 10697               	.LBE305:
 10698               	.LM1040:
 10699 550c DB98      		cbi 59-32,3
 10700               	.LM1041:
 10701 550e 8091 0000 		lds r24,FlagsFastCount
 10702 5512 9091 0000 		lds r25,(FlagsFastCount)+1
 10703               	.LVL157:
 10704 5516 9F7E      		andi r25,hi8(-4097)
 10705 5518 9093 0000 		sts (FlagsFastCount)+1,r25
 10706 551c 8093 0000 		sts FlagsFastCount,r24
 10707               	.L469:
 10708               	.LM1042:
 10709 5520 8091 0000 		lds r24,FlagsFastCount
 10710 5524 9091 0000 		lds r25,(FlagsFastCount)+1
 10711 5528 95FF      		sbrs r25,5
 10712 552a 00C0      		rjmp .L470
 10713               	.LM1043:
 10714 552c 8091 0000 		lds r24,TRANSMIT
 10715 5530 8823      		tst r24
 10716 5532 01F0      		breq .+2
 10717 5534 00C0      		rjmp .L471
 10718               	.LM1044:
 10719 5536 81E0      		ldi r24,lo8(1)
 10720 5538 8093 0000 		sts TRANSMIT,r24
 10721               	.LM1045:
 10722 553c 83E4      		ldi r24,lo8(67)
 10723 553e 90E0      		ldi r25,hi8(67)
 10724 5540 9093 0000 		sts (usart_data_in_num)+1,r25
 10725 5544 8093 0000 		sts usart_data_in_num,r24
 10726               	.LM1046:
 10727 5548 6091 0000 		lds r22,cooler_data
 10728 554c 7091 0000 		lds r23,(cooler_data)+1
 10729 5550 8091 0000 		lds r24,(cooler_data)+2
 10730 5554 9091 0000 		lds r25,(cooler_data)+3
 10731 5558 23E3      		ldi r18,lo8(0x40233333)
 10732 555a 33E3      		ldi r19,hi8(0x40233333)
 10733 555c 43E2      		ldi r20,hlo8(0x40233333)
 10734 555e 50E4      		ldi r21,hhi8(0x40233333)
 10735 5560 0E94 0000 		call __divsf3
 10736 5564 0E94 0000 		call __fixunssfsi
 10737 5568 5B01      		movw r10,r22
 10738 556a 6C01      		movw r12,r24
 10739 556c 7093 0000 		sts (cooler_hand_power)+1,r23
 10740 5570 6093 0000 		sts cooler_hand_power,r22
 10741               	.LM1047:
 10742 5574 8BE3      		ldi r24,lo8(59)
 10743 5576 8093 0000 		sts buffer,r24
 10744               	.LM1048:
 10745 557a 81EA      		ldi r24,lo8(-95)
 10746 557c 8093 0000 		sts buffer+1,r24
 10747               	.LM1049:
 10748 5580 8091 0000 		lds r24,string_1
 10749 5584 8093 0000 		sts buffer+2,r24
 10750               	.LM1050:
 10751 5588 8091 0000 		lds r24,string_1+1
 10752 558c 8093 0000 		sts buffer+3,r24
 10753               	.LM1051:
 10754 5590 8091 0000 		lds r24,string_1+3
 10755 5594 8093 0000 		sts buffer+4,r24
 10756               	.LM1052:
 10757 5598 8091 0000 		lds r24,string_1+4
 10758 559c 8093 0000 		sts buffer+5,r24
 10759               	.LM1053:
 10760 55a0 8091 0000 		lds r24,string_1+6
 10761 55a4 8093 0000 		sts buffer+6,r24
 10762               	.LM1054:
 10763 55a8 8091 0000 		lds r24,string_1+7
 10764 55ac 8093 0000 		sts buffer+7,r24
 10765               	.LM1055:
 10766 55b0 8091 0000 		lds r24,string_2+5
 10767 55b4 8093 0000 		sts buffer+8,r24
 10768               	.LM1056:
 10769 55b8 8091 0000 		lds r24,string_2+6
 10770 55bc 8093 0000 		sts buffer+9,r24
 10771               	.LM1057:
 10772 55c0 8091 0000 		lds r24,string_2+8
 10773 55c4 8093 0000 		sts buffer+10,r24
 10774               	.LM1058:
 10775 55c8 8091 0000 		lds r24,string_3+5
 10776 55cc 8093 0000 		sts buffer+11,r24
 10777               	.LM1059:
 10778 55d0 8091 0000 		lds r24,string_3+6
 10779 55d4 8093 0000 		sts buffer+12,r24
 10780               	.LM1060:
 10781 55d8 8091 0000 		lds r24,string_3+8
 10782 55dc 8093 0000 		sts buffer+13,r24
 10783               	.LM1061:
 10784 55e0 8091 0000 		lds r24,string_4+5
 10785 55e4 8093 0000 		sts buffer+14,r24
 10786               	.LM1062:
 10787 55e8 8091 0000 		lds r24,string_4+6
 10788 55ec 8093 0000 		sts buffer+15,r24
 10789               	.LM1063:
 10790 55f0 8091 0000 		lds r24,string_4+8
 10791 55f4 8093 0000 		sts buffer+16,r24
 10792               	.LM1064:
 10793 55f8 8091 0000 		lds r24,string_2+15
 10794 55fc 8093 0000 		sts buffer+17,r24
 10795               	.LM1065:
 10796 5600 8091 0000 		lds r24,string_2+16
 10797 5604 8093 0000 		sts buffer+18,r24
 10798               	.LM1066:
 10799 5608 8091 0000 		lds r24,string_2+18
 10800 560c 8093 0000 		sts buffer+19,r24
 10801               	.LM1067:
 10802 5610 8091 0000 		lds r24,string_2+19
 10803 5614 8093 0000 		sts buffer+20,r24
 10804               	.LM1068:
 10805 5618 8091 0000 		lds r24,string_3+15
 10806 561c 8093 0000 		sts buffer+21,r24
 10807               	.LM1069:
 10808 5620 8091 0000 		lds r24,string_3+17
 10809 5624 8093 0000 		sts buffer+22,r24
 10810               	.LM1070:
 10811 5628 8091 0000 		lds r24,string_3+18
 10812 562c 8093 0000 		sts buffer+23,r24
 10813               	.LM1071:
 10814 5630 8091 0000 		lds r24,string_3+19
 10815 5634 8093 0000 		sts buffer+24,r24
 10816               	.LM1072:
 10817 5638 8091 0000 		lds r24,rele_ports_status
 10818 563c 8093 0000 		sts buffer+25,r24
 10819               	.LM1073:
 10820 5640 8091 0000 		lds r24,rele_hand_status
 10821 5644 8093 0000 		sts buffer+26,r24
 10822               	.LM1074:
 10823 5648 8091 0000 		lds r24,cooler_chanel_status
 10824 564c 8093 0000 		sts buffer+27,r24
 10825               	.LM1075:
 10826 5650 E090 0000 		lds r14,k1
 10827 5654 F090 0000 		lds r15,(k1)+1
 10828 5658 0091 0000 		lds r16,(k1)+2
 10829 565c 1091 0000 		lds r17,(k1)+3
 10830 5660 C801      		movw r24,r16
 10831 5662 B701      		movw r22,r14
 10832 5664 28EE      		ldi r18,lo8(1000)
 10833 5666 33E0      		ldi r19,hi8(1000)
 10834 5668 40E0      		ldi r20,hlo8(1000)
 10835 566a 50E0      		ldi r21,hhi8(1000)
 10836 566c 0E94 0000 		call __divmodsi4
 10837 5670 205D      		subi r18,lo8(-(48))
 10838 5672 2093 0000 		sts buffer+28,r18
 10839               	.LM1076:
 10840 5676 C801      		movw r24,r16
 10841 5678 B701      		movw r22,r14
 10842 567a 28EE      		ldi r18,lo8(1000)
 10843 567c 33E0      		ldi r19,hi8(1000)
 10844 567e 40E0      		ldi r20,hlo8(1000)
 10845 5680 50E0      		ldi r21,hhi8(1000)
 10846 5682 0E94 0000 		call __divmodsi4
 10847 5686 7B01      		movw r14,r22
 10848 5688 8C01      		movw r16,r24
 10849 568a 24E6      		ldi r18,lo8(100)
 10850 568c 30E0      		ldi r19,hi8(100)
 10851 568e 40E0      		ldi r20,hlo8(100)
 10852 5690 50E0      		ldi r21,hhi8(100)
 10853 5692 0E94 0000 		call __divmodsi4
 10854 5696 205D      		subi r18,lo8(-(48))
 10855 5698 2093 0000 		sts buffer+29,r18
 10856               	.LM1077:
 10857 569c C801      		movw r24,r16
 10858 569e B701      		movw r22,r14
 10859 56a0 24E6      		ldi r18,lo8(100)
 10860 56a2 30E0      		ldi r19,hi8(100)
 10861 56a4 40E0      		ldi r20,hlo8(100)
 10862 56a6 50E0      		ldi r21,hhi8(100)
 10863 56a8 0E94 0000 		call __divmodsi4
 10864 56ac 7B01      		movw r14,r22
 10865 56ae 8C01      		movw r16,r24
 10866 56b0 2AE0      		ldi r18,lo8(10)
 10867 56b2 30E0      		ldi r19,hi8(10)
 10868 56b4 40E0      		ldi r20,hlo8(10)
 10869 56b6 50E0      		ldi r21,hhi8(10)
 10870 56b8 0E94 0000 		call __divmodsi4
 10871 56bc 205D      		subi r18,lo8(-(48))
 10872 56be 2093 0000 		sts buffer+30,r18
 10873               	.LM1078:
 10874 56c2 C801      		movw r24,r16
 10875 56c4 B701      		movw r22,r14
 10876 56c6 2AE0      		ldi r18,lo8(10)
 10877 56c8 30E0      		ldi r19,hi8(10)
 10878 56ca 40E0      		ldi r20,hlo8(10)
 10879 56cc 50E0      		ldi r21,hhi8(10)
 10880 56ce 0E94 0000 		call __divmodsi4
 10881 56d2 605D      		subi r22,lo8(-(48))
 10882 56d4 6093 0000 		sts buffer+31,r22
 10883               	.LM1079:
 10884 56d8 E090 0000 		lds r14,k2
 10885 56dc F090 0000 		lds r15,(k2)+1
 10886 56e0 0091 0000 		lds r16,(k2)+2
 10887 56e4 1091 0000 		lds r17,(k2)+3
 10888 56e8 C801      		movw r24,r16
 10889 56ea B701      		movw r22,r14
 10890 56ec 20EA      		ldi r18,lo8(100000)
 10891 56ee 36E8      		ldi r19,hi8(100000)
 10892 56f0 41E0      		ldi r20,hlo8(100000)
 10893 56f2 50E0      		ldi r21,hhi8(100000)
 10894 56f4 0E94 0000 		call __divmodsi4
 10895 56f8 205D      		subi r18,lo8(-(48))
 10896 56fa 2093 0000 		sts buffer+32,r18
 10897               	.LM1080:
 10898 56fe C801      		movw r24,r16
 10899 5700 B701      		movw r22,r14
 10900 5702 28EE      		ldi r18,lo8(1000)
 10901 5704 33E0      		ldi r19,hi8(1000)
 10902 5706 40E0      		ldi r20,hlo8(1000)
 10903 5708 50E0      		ldi r21,hhi8(1000)
 10904 570a 0E94 0000 		call __divmodsi4
 10905 570e CA01      		movw r24,r20
 10906 5710 B901      		movw r22,r18
 10907 5712 24E6      		ldi r18,lo8(100)
 10908 5714 30E0      		ldi r19,hi8(100)
 10909 5716 40E0      		ldi r20,hlo8(100)
 10910 5718 50E0      		ldi r21,hhi8(100)
 10911 571a 0E94 0000 		call __divmodsi4
 10912 571e 7B01      		movw r14,r22
 10913 5720 8C01      		movw r16,r24
 10914 5722 2AE0      		ldi r18,lo8(10)
 10915 5724 30E0      		ldi r19,hi8(10)
 10916 5726 40E0      		ldi r20,hlo8(10)
 10917 5728 50E0      		ldi r21,hhi8(10)
 10918 572a 0E94 0000 		call __divmodsi4
 10919 572e 205D      		subi r18,lo8(-(48))
 10920 5730 2093 0000 		sts buffer+33,r18
 10921               	.LM1081:
 10922 5734 C801      		movw r24,r16
 10923 5736 B701      		movw r22,r14
 10924 5738 2AE0      		ldi r18,lo8(10)
 10925 573a 30E0      		ldi r19,hi8(10)
 10926 573c 40E0      		ldi r20,hlo8(10)
 10927 573e 50E0      		ldi r21,hhi8(10)
 10928 5740 0E94 0000 		call __divmodsi4
 10929 5744 605D      		subi r22,lo8(-(48))
 10930 5746 6093 0000 		sts buffer+34,r22
 10931               	.LM1082:
 10932 574a E090 0000 		lds r14,k
 10933 574e F090 0000 		lds r15,(k)+1
 10934 5752 0091 0000 		lds r16,(k)+2
 10935 5756 1091 0000 		lds r17,(k)+3
 10936 575a C801      		movw r24,r16
 10937 575c B701      		movw r22,r14
 10938 575e 28EE      		ldi r18,lo8(1000)
 10939 5760 33E0      		ldi r19,hi8(1000)
 10940 5762 40E0      		ldi r20,hlo8(1000)
 10941 5764 50E0      		ldi r21,hhi8(1000)
 10942 5766 0E94 0000 		call __divmodsi4
 10943 576a 205D      		subi r18,lo8(-(48))
 10944 576c 2093 0000 		sts buffer+35,r18
 10945               	.LM1083:
 10946 5770 C801      		movw r24,r16
 10947 5772 B701      		movw r22,r14
 10948 5774 28EE      		ldi r18,lo8(1000)
 10949 5776 33E0      		ldi r19,hi8(1000)
 10950 5778 40E0      		ldi r20,hlo8(1000)
 10951 577a 50E0      		ldi r21,hhi8(1000)
 10952 577c 0E94 0000 		call __divmodsi4
 10953 5780 7B01      		movw r14,r22
 10954 5782 8C01      		movw r16,r24
 10955 5784 24E6      		ldi r18,lo8(100)
 10956 5786 30E0      		ldi r19,hi8(100)
 10957 5788 40E0      		ldi r20,hlo8(100)
 10958 578a 50E0      		ldi r21,hhi8(100)
 10959 578c 0E94 0000 		call __divmodsi4
 10960 5790 205D      		subi r18,lo8(-(48))
 10961 5792 2093 0000 		sts buffer+36,r18
 10962               	.LM1084:
 10963 5796 C801      		movw r24,r16
 10964 5798 B701      		movw r22,r14
 10965 579a 24E6      		ldi r18,lo8(100)
 10966 579c 30E0      		ldi r19,hi8(100)
 10967 579e 40E0      		ldi r20,hlo8(100)
 10968 57a0 50E0      		ldi r21,hhi8(100)
 10969 57a2 0E94 0000 		call __divmodsi4
 10970 57a6 7B01      		movw r14,r22
 10971 57a8 8C01      		movw r16,r24
 10972 57aa 2AE0      		ldi r18,lo8(10)
 10973 57ac 30E0      		ldi r19,hi8(10)
 10974 57ae 40E0      		ldi r20,hlo8(10)
 10975 57b0 50E0      		ldi r21,hhi8(10)
 10976 57b2 0E94 0000 		call __divmodsi4
 10977 57b6 205D      		subi r18,lo8(-(48))
 10978 57b8 2093 0000 		sts buffer+37,r18
 10979               	.LM1085:
 10980 57bc C801      		movw r24,r16
 10981 57be B701      		movw r22,r14
 10982 57c0 2AE0      		ldi r18,lo8(10)
 10983 57c2 30E0      		ldi r19,hi8(10)
 10984 57c4 40E0      		ldi r20,hlo8(10)
 10985 57c6 50E0      		ldi r21,hhi8(10)
 10986 57c8 0E94 0000 		call __divmodsi4
 10987 57cc 605D      		subi r22,lo8(-(48))
 10988 57ce 6093 0000 		sts buffer+38,r22
 10989               	.LM1086:
 10990 57d2 8091 0000 		lds r24,mode_status
 10991 57d6 8093 0000 		sts buffer+39,r24
 10992               	.LM1087:
 10993 57da 2091 0000 		lds r18,doliv_porog1
 10994 57de 3091 0000 		lds r19,(doliv_porog1)+1
 10995 57e2 C901      		movw r24,r18
 10996 57e4 68EE      		ldi r22,lo8(1000)
 10997 57e6 73E0      		ldi r23,hi8(1000)
 10998 57e8 0E94 0000 		call __divmodhi4
 10999 57ec 605D      		subi r22,lo8(-(48))
 11000 57ee 6093 0000 		sts buffer+40,r22
 11001               	.LM1088:
 11002 57f2 C901      		movw r24,r18
 11003 57f4 68EE      		ldi r22,lo8(1000)
 11004 57f6 73E0      		ldi r23,hi8(1000)
 11005 57f8 0E94 0000 		call __divmodhi4
 11006 57fc 9C01      		movw r18,r24
 11007 57fe 64E6      		ldi r22,lo8(100)
 11008 5800 70E0      		ldi r23,hi8(100)
 11009 5802 0E94 0000 		call __divmodhi4
 11010 5806 605D      		subi r22,lo8(-(48))
 11011 5808 6093 0000 		sts buffer+41,r22
 11012               	.LM1089:
 11013 580c C901      		movw r24,r18
 11014 580e 64E6      		ldi r22,lo8(100)
 11015 5810 70E0      		ldi r23,hi8(100)
 11016 5812 0E94 0000 		call __divmodhi4
 11017 5816 9C01      		movw r18,r24
 11018 5818 6AE0      		ldi r22,lo8(10)
 11019 581a 70E0      		ldi r23,hi8(10)
 11020 581c 0E94 0000 		call __divmodhi4
 11021 5820 605D      		subi r22,lo8(-(48))
 11022 5822 6093 0000 		sts buffer+42,r22
 11023               	.LM1090:
 11024 5826 C901      		movw r24,r18
 11025 5828 6AE0      		ldi r22,lo8(10)
 11026 582a 70E0      		ldi r23,hi8(10)
 11027 582c 0E94 0000 		call __divmodhi4
 11028 5830 805D      		subi r24,lo8(-(48))
 11029 5832 8093 0000 		sts buffer+43,r24
 11030               	.LM1091:
 11031 5836 2091 0000 		lds r18,doliv_porog2
 11032 583a 3091 0000 		lds r19,(doliv_porog2)+1
 11033 583e C901      		movw r24,r18
 11034 5840 68EE      		ldi r22,lo8(1000)
 11035 5842 73E0      		ldi r23,hi8(1000)
 11036 5844 0E94 0000 		call __divmodhi4
 11037 5848 605D      		subi r22,lo8(-(48))
 11038 584a 6093 0000 		sts buffer+44,r22
 11039               	.LM1092:
 11040 584e C901      		movw r24,r18
 11041 5850 68EE      		ldi r22,lo8(1000)
 11042 5852 73E0      		ldi r23,hi8(1000)
 11043 5854 0E94 0000 		call __divmodhi4
 11044 5858 9C01      		movw r18,r24
 11045 585a 64E6      		ldi r22,lo8(100)
 11046 585c 70E0      		ldi r23,hi8(100)
 11047 585e 0E94 0000 		call __divmodhi4
 11048 5862 605D      		subi r22,lo8(-(48))
 11049 5864 6093 0000 		sts buffer+45,r22
 11050               	.LM1093:
 11051 5868 C901      		movw r24,r18
 11052 586a 64E6      		ldi r22,lo8(100)
 11053 586c 70E0      		ldi r23,hi8(100)
 11054 586e 0E94 0000 		call __divmodhi4
 11055 5872 9C01      		movw r18,r24
 11056 5874 6AE0      		ldi r22,lo8(10)
 11057 5876 70E0      		ldi r23,hi8(10)
 11058 5878 0E94 0000 		call __divmodhi4
 11059 587c 605D      		subi r22,lo8(-(48))
 11060 587e 6093 0000 		sts buffer+46,r22
 11061               	.LM1094:
 11062 5882 C901      		movw r24,r18
 11063 5884 6AE0      		ldi r22,lo8(10)
 11064 5886 70E0      		ldi r23,hi8(10)
 11065 5888 0E94 0000 		call __divmodhi4
 11066 588c 805D      		subi r24,lo8(-(48))
 11067 588e 8093 0000 		sts buffer+47,r24
 11068               	.LM1095:
 11069 5892 2091 0000 		lds r18,water_lvl
 11070 5896 3091 0000 		lds r19,(water_lvl)+1
 11071 589a C901      		movw r24,r18
 11072 589c 68EE      		ldi r22,lo8(1000)
 11073 589e 73E0      		ldi r23,hi8(1000)
 11074 58a0 0E94 0000 		call __divmodhi4
 11075 58a4 605D      		subi r22,lo8(-(48))
 11076 58a6 6093 0000 		sts buffer+48,r22
 11077               	.LM1096:
 11078 58aa C901      		movw r24,r18
 11079 58ac 68EE      		ldi r22,lo8(1000)
 11080 58ae 73E0      		ldi r23,hi8(1000)
 11081 58b0 0E94 0000 		call __divmodhi4
 11082 58b4 9C01      		movw r18,r24
 11083 58b6 64E6      		ldi r22,lo8(100)
 11084 58b8 70E0      		ldi r23,hi8(100)
 11085 58ba 0E94 0000 		call __divmodhi4
 11086 58be 605D      		subi r22,lo8(-(48))
 11087 58c0 6093 0000 		sts buffer+49,r22
 11088               	.LM1097:
 11089 58c4 C901      		movw r24,r18
 11090 58c6 64E6      		ldi r22,lo8(100)
 11091 58c8 70E0      		ldi r23,hi8(100)
 11092 58ca 0E94 0000 		call __divmodhi4
 11093 58ce 9C01      		movw r18,r24
 11094 58d0 6AE0      		ldi r22,lo8(10)
 11095 58d2 70E0      		ldi r23,hi8(10)
 11096 58d4 0E94 0000 		call __divmodhi4
 11097 58d8 605D      		subi r22,lo8(-(48))
 11098 58da 6093 0000 		sts buffer+50,r22
 11099               	.LM1098:
 11100 58de C901      		movw r24,r18
 11101 58e0 6AE0      		ldi r22,lo8(10)
 11102 58e2 70E0      		ldi r23,hi8(10)
 11103 58e4 0E94 0000 		call __divmodhi4
 11104 58e8 805D      		subi r24,lo8(-(48))
 11105 58ea 8093 0000 		sts buffer+51,r24
 11106               	.LM1099:
 11107 58ee 8091 0000 		lds r24,water_lvl_status
 11108 58f2 8093 0000 		sts buffer+52,r24
 11109               	.LM1100:
 11110 58f6 6091 0000 		lds r22,lcd_led_stop
 11111 58fa 7091 0000 		lds r23,(lcd_led_stop)+1
 11112 58fe 8091 0000 		lds r24,(lcd_led_stop)+2
 11113 5902 9091 0000 		lds r25,(lcd_led_stop)+3
 11114 5906 20EA      		ldi r18,lo8(100000)
 11115 5908 36E8      		ldi r19,hi8(100000)
 11116 590a 41E0      		ldi r20,hlo8(100000)
 11117 590c 50E0      		ldi r21,hhi8(100000)
 11118 590e 0E94 0000 		call __udivmodsi4
 11119 5912 205D      		subi r18,lo8(-(48))
 11120 5914 2093 0000 		sts buffer+53,r18
 11121               	.LM1101:
 11122 5918 6091 0000 		lds r22,lcd_led_stop
 11123 591c 7091 0000 		lds r23,(lcd_led_stop)+1
 11124 5920 8091 0000 		lds r24,(lcd_led_stop)+2
 11125 5924 9091 0000 		lds r25,(lcd_led_stop)+3
 11126 5928 20EA      		ldi r18,lo8(100000)
 11127 592a 36E8      		ldi r19,hi8(100000)
 11128 592c 41E0      		ldi r20,hlo8(100000)
 11129 592e 50E0      		ldi r21,hhi8(100000)
 11130 5930 0E94 0000 		call __udivmodsi4
 11131 5934 20E1      		ldi r18,lo8(10000)
 11132 5936 37E2      		ldi r19,hi8(10000)
 11133 5938 40E0      		ldi r20,hlo8(10000)
 11134 593a 50E0      		ldi r21,hhi8(10000)
 11135 593c 0E94 0000 		call __udivmodsi4
 11136 5940 205D      		subi r18,lo8(-(48))
 11137 5942 2093 0000 		sts buffer+54,r18
 11138               	.LM1102:
 11139 5946 6091 0000 		lds r22,lcd_led_start
 11140 594a 7091 0000 		lds r23,(lcd_led_start)+1
 11141 594e 8091 0000 		lds r24,(lcd_led_start)+2
 11142 5952 9091 0000 		lds r25,(lcd_led_start)+3
 11143 5956 20EA      		ldi r18,lo8(100000)
 11144 5958 36E8      		ldi r19,hi8(100000)
 11145 595a 41E0      		ldi r20,hlo8(100000)
 11146 595c 50E0      		ldi r21,hhi8(100000)
 11147 595e 0E94 0000 		call __udivmodsi4
 11148 5962 205D      		subi r18,lo8(-(48))
 11149 5964 2093 0000 		sts buffer+55,r18
 11150               	.LM1103:
 11151 5968 6091 0000 		lds r22,lcd_led_start
 11152 596c 7091 0000 		lds r23,(lcd_led_start)+1
 11153 5970 8091 0000 		lds r24,(lcd_led_start)+2
 11154 5974 9091 0000 		lds r25,(lcd_led_start)+3
 11155 5978 20EA      		ldi r18,lo8(100000)
 11156 597a 36E8      		ldi r19,hi8(100000)
 11157 597c 41E0      		ldi r20,hlo8(100000)
 11158 597e 50E0      		ldi r21,hhi8(100000)
 11159 5980 0E94 0000 		call __udivmodsi4
 11160 5984 20E1      		ldi r18,lo8(10000)
 11161 5986 37E2      		ldi r19,hi8(10000)
 11162 5988 40E0      		ldi r20,hlo8(10000)
 11163 598a 50E0      		ldi r21,hhi8(10000)
 11164 598c 0E94 0000 		call __udivmodsi4
 11165 5990 205D      		subi r18,lo8(-(48))
 11166 5992 2093 0000 		sts buffer+56,r18
 11167               	.LM1104:
 11168 5996 6091 0000 		lds r22,cooler_stop
 11169 599a 7091 0000 		lds r23,(cooler_stop)+1
 11170 599e 8091 0000 		lds r24,(cooler_stop)+2
 11171 59a2 9091 0000 		lds r25,(cooler_stop)+3
 11172 59a6 20EA      		ldi r18,lo8(100000)
 11173 59a8 36E8      		ldi r19,hi8(100000)
 11174 59aa 41E0      		ldi r20,hlo8(100000)
 11175 59ac 50E0      		ldi r21,hhi8(100000)
 11176 59ae 0E94 0000 		call __udivmodsi4
 11177 59b2 205D      		subi r18,lo8(-(48))
 11178 59b4 2093 0000 		sts buffer+57,r18
 11179               	.LM1105:
 11180 59b8 6091 0000 		lds r22,cooler_stop
 11181 59bc 7091 0000 		lds r23,(cooler_stop)+1
 11182 59c0 8091 0000 		lds r24,(cooler_stop)+2
 11183 59c4 9091 0000 		lds r25,(cooler_stop)+3
 11184 59c8 20EA      		ldi r18,lo8(100000)
 11185 59ca 36E8      		ldi r19,hi8(100000)
 11186 59cc 41E0      		ldi r20,hlo8(100000)
 11187 59ce 50E0      		ldi r21,hhi8(100000)
 11188 59d0 0E94 0000 		call __udivmodsi4
 11189 59d4 20E1      		ldi r18,lo8(10000)
 11190 59d6 37E2      		ldi r19,hi8(10000)
 11191 59d8 40E0      		ldi r20,hlo8(10000)
 11192 59da 50E0      		ldi r21,hhi8(10000)
 11193 59dc 0E94 0000 		call __udivmodsi4
 11194 59e0 205D      		subi r18,lo8(-(48))
 11195 59e2 2093 0000 		sts buffer+58,r18
 11196               	.LM1106:
 11197 59e6 6091 0000 		lds r22,cooler_start
 11198 59ea 7091 0000 		lds r23,(cooler_start)+1
 11199 59ee 8091 0000 		lds r24,(cooler_start)+2
 11200 59f2 9091 0000 		lds r25,(cooler_start)+3
 11201 59f6 20EA      		ldi r18,lo8(100000)
 11202 59f8 36E8      		ldi r19,hi8(100000)
 11203 59fa 41E0      		ldi r20,hlo8(100000)
 11204 59fc 50E0      		ldi r21,hhi8(100000)
 11205 59fe 0E94 0000 		call __udivmodsi4
 11206 5a02 205D      		subi r18,lo8(-(48))
 11207 5a04 2093 0000 		sts buffer+59,r18
 11208               	.LM1107:
 11209 5a08 6091 0000 		lds r22,cooler_start
 11210 5a0c 7091 0000 		lds r23,(cooler_start)+1
 11211 5a10 8091 0000 		lds r24,(cooler_start)+2
 11212 5a14 9091 0000 		lds r25,(cooler_start)+3
 11213 5a18 20EA      		ldi r18,lo8(100000)
 11214 5a1a 36E8      		ldi r19,hi8(100000)
 11215 5a1c 41E0      		ldi r20,hlo8(100000)
 11216 5a1e 50E0      		ldi r21,hhi8(100000)
 11217 5a20 0E94 0000 		call __udivmodsi4
 11218 5a24 20E1      		ldi r18,lo8(10000)
 11219 5a26 37E2      		ldi r19,hi8(10000)
 11220 5a28 40E0      		ldi r20,hlo8(10000)
 11221 5a2a 50E0      		ldi r21,hhi8(10000)
 11222 5a2c 0E94 0000 		call __udivmodsi4
 11223 5a30 205D      		subi r18,lo8(-(48))
 11224 5a32 2093 0000 		sts buffer+60,r18
 11225               	.LM1108:
 11226 5a36 C501      		movw r24,r10
 11227 5a38 64E6      		ldi r22,lo8(100)
 11228 5a3a 70E0      		ldi r23,hi8(100)
 11229 5a3c 0E94 0000 		call __udivmodhi4
 11230 5a40 605D      		subi r22,lo8(-(48))
 11231 5a42 6093 0000 		sts buffer+61,r22
 11232               	.LM1109:
 11233 5a46 C501      		movw r24,r10
 11234 5a48 64E6      		ldi r22,lo8(100)
 11235 5a4a 70E0      		ldi r23,hi8(100)
 11236 5a4c 0E94 0000 		call __udivmodhi4
 11237 5a50 9C01      		movw r18,r24
 11238 5a52 6AE0      		ldi r22,lo8(10)
 11239 5a54 70E0      		ldi r23,hi8(10)
 11240 5a56 0E94 0000 		call __udivmodhi4
 11241 5a5a 605D      		subi r22,lo8(-(48))
 11242 5a5c 6093 0000 		sts buffer+62,r22
 11243               	.LM1110:
 11244 5a60 C901      		movw r24,r18
 11245 5a62 6AE0      		ldi r22,lo8(10)
 11246 5a64 70E0      		ldi r23,hi8(10)
 11247 5a66 0E94 0000 		call __udivmodhi4
 11248 5a6a 805D      		subi r24,lo8(-(48))
 11249 5a6c 8093 0000 		sts buffer+63,r24
 11250               	.LM1111:
 11251 5a70 8091 0000 		lds r24,co2_status
 11252 5a74 8093 0000 		sts buffer+64,r24
 11253               	.LM1112:
 11254 5a78 8091 0000 		lds r24,heater_chanel_status
 11255 5a7c 8093 0000 		sts buffer+65,r24
 11256               	.LM1113:
 11257 5a80 83EB      		ldi r24,lo8(-77)
 11258 5a82 8093 0000 		sts buffer+66,r24
 11259               	.LM1114:
 11260 5a86 0E94 0000 		call buffer_start
 11261               	.L471:
 11262               	.LM1115:
 11263 5a8a 8091 0000 		lds r24,FlagsFastCount
 11264 5a8e 9091 0000 		lds r25,(FlagsFastCount)+1
 11265 5a92 9F7D      		andi r25,hi8(-8193)
 11266 5a94 9093 0000 		sts (FlagsFastCount)+1,r25
 11267 5a98 8093 0000 		sts FlagsFastCount,r24
 11268               	.L470:
 11269               	.LM1116:
 11270 5a9c 8091 0000 		lds r24,FlagsFastCount
 11271 5aa0 9091 0000 		lds r25,(FlagsFastCount)+1
 11272 5aa4 97FD      		sbrc r25,7
 11273 5aa6 00C0      		rjmp .+4
 11274 5aa8 0C94 0000 		jmp .L482
 11275               	.LM1117:
 11276 5aac 8091 0000 		lds r24,pompa
 11277 5ab0 8823      		tst r24
 11278 5ab2 01F0      		breq .L473
 11279               	.LM1118:
 11280 5ab4 8091 0000 		lds r24,pompa_time_count
 11281 5ab8 8F5F      		subi r24,lo8(-(1))
 11282 5aba 8093 0000 		sts pompa_time_count,r24
 11283               	.LM1119:
 11284 5abe 8230      		cpi r24,lo8(2)
 11285 5ac0 01F4      		brne .L473
 11286               	.LM1120:
 11287 5ac2 1092 0000 		sts pompa_time_count,__zero_reg__
 11288               	.LM1121:
 11289 5ac6 2091 0000 		lds r18,water_lvl_pompa
 11290 5aca 3091 0000 		lds r19,(water_lvl_pompa)+1
 11291 5ace 8091 0000 		lds r24,water_lvl
 11292 5ad2 9091 0000 		lds r25,(water_lvl)+1
 11293 5ad6 2817      		cp r18,r24
 11294 5ad8 3907      		cpc r19,r25
 11295 5ada 01F4      		brne .L473
 11296 5adc 81E0      		ldi r24,lo8(1)
 11297 5ade 8093 0000 		sts WATER_ERROR_POMPA,r24
 11298               	.L473:
 11299               	.LM1122:
 11300 5ae2 8091 0000 		lds r24,water_lvl
 11301 5ae6 9091 0000 		lds r25,(water_lvl)+1
 11302 5aea 9093 0000 		sts (water_lvl_pompa)+1,r25
 11303 5aee 8093 0000 		sts water_lvl_pompa,r24
 11304               	.LM1123:
 11305 5af2 8091 0000 		lds r24,FlagsFastCount
 11306 5af6 9091 0000 		lds r25,(FlagsFastCount)+1
 11307 5afa 9F77      		andi r25,hi8(32767)
 11308 5afc 9093 0000 		sts (FlagsFastCount)+1,r25
 11309 5b00 8093 0000 		sts FlagsFastCount,r24
 11310 5b04 0C94 0000 		jmp .L482
 11311               	.LFE50:
 11313               	.global	temp_control
 11314               	.global	temp_control
 11315               		.section .bss
 11318               	temp_control:
 11319 0000 00        		.skip 1,0
 11320               	.global	produv
 11321               	.global	produv
 11324               	produv:
 11325 0001 00        		.skip 1,0
 11326               	.global	set_temp
 11327               		.data
 11330               	set_temp:
 11331 0000 0401      		.word	260
 11332               	.global	cooler_set
 11335               	cooler_set:
 11336 0002 4000      		.word	64
 11337               	.global	set_temp_dec
 11340               	set_temp_dec:
 11341 0004 03        		.byte	3
 11342               	.global	temp_now
 11343               	.global	temp_now
 11344               		.section .bss
 11347               	temp_now:
 11348 0002 0000      		.skip 2,0
 11349               	.global	heater
 11350               	.global	heater
 11353               	heater:
 11354 0004 00        		.skip 1,0
 11355               	.global	cooler
 11356               	.global	cooler
 11359               	cooler:
 11360 0005 00        		.skip 1,0
 11361               	.global	co2
 11362               	.global	co2
 11365               	co2:
 11366 0006 00        		.skip 1,0
 11367               	.global	co2_set
 11368               	.global	co2_set
 11371               	co2_set:
 11372 0007 00        		.skip 1,0
 11373               	.global	rele_set
 11374               	.global	rele_set
 11377               	rele_set:
 11378 0008 0000 0000 		.skip 8,0
 11378      0000 0000 
 11379               	.global	hand_mode_set
 11380               	.global	hand_mode_set
 11383               	hand_mode_set:
 11384 0010 00        		.skip 1,0
 11385               	.global	time_one_sec
 11386               	.global	time_one_sec
 11389               	time_one_sec:
 11390 0011 00        		.skip 1,0
 11391               	.global	doliv
 11392               	.global	doliv
 11395               	doliv:
 11396 0012 00        		.skip 1,0
 11397               	.global	pompa
 11398               	.global	pompa
 11401               	pompa:
 11402 0013 00        		.skip 1,0
 11403               	.global	doliv_porog1
 11404               	.global	doliv_porog1
 11407               	doliv_porog1:
 11408 0014 0000      		.skip 2,0
 11409               	.global	doliv_porog2
 11410               	.global	doliv_porog2
 11413               	doliv_porog2:
 11414 0016 0000      		.skip 2,0
 11415               	.global	WATER_ERROR
 11416               	.global	WATER_ERROR
 11419               	WATER_ERROR:
 11420 0018 00        		.skip 1,0
 11421               	.global	WATER_ERROR_POMPA
 11422               	.global	WATER_ERROR_POMPA
 11425               	WATER_ERROR_POMPA:
 11426 0019 00        		.skip 1,0
 11427               	.global	pompa_time_count
 11428               	.global	pompa_time_count
 11431               	pompa_time_count:
 11432 001a 00        		.skip 1,0
 11433               	.global	water_lvl_status
 11434               	.global	water_lvl_status
 11437               	water_lvl_status:
 11438 001b 00        		.skip 1,0
 11439               	.global	co2_status
 11440               	.global	co2_status
 11443               	co2_status:
 11444 001c 00        		.skip 1,0
 11445               	.global	cooler_hand_start
 11446               	.global	cooler_hand_start
 11449               	cooler_hand_start:
 11450 001d 00        		.skip 1,0
 11451               	.global	cooler_hand_power
 11452               	.global	cooler_hand_power
 11455               	cooler_hand_power:
 11456 001e 0000      		.skip 2,0
 11457               	.global	data_i2c_h
 11458               	.global	data_i2c_h
 11461               	data_i2c_h:
 11462 0020 00        		.skip 1,0
 11463               	.global	data_i2c_l
 11464               	.global	data_i2c_l
 11467               	data_i2c_l:
 11468 0021 00        		.skip 1,0
 11469               	.global	buffer
 11470               		.data
 11473               	buffer:
 11474 0005 00        		.string	""
 11475 0006 0000 0000 		.skip 511,0
 11475      0000 0000 
 11475      0000 0000 
 11475      0000 0000 
 11475      0000 0000 
 11476               	.global	buffer_index
 11477               	.global	buffer_index
 11478               		.section .bss
 11481               	buffer_index:
 11482 0022 0000      		.skip 2,0
 11483               	.global	usart_data_in
 11484               		.data
 11487               	usart_data_in:
 11488 0205 00        		.string	""
 11489 0206 0000 0000 		.skip 511,0
 11489      0000 0000 
 11489      0000 0000 
 11489      0000 0000 
 11489      0000 0000 
 11490               	.global	TRANSMIT
 11491               	.global	TRANSMIT
 11492               		.section .bss
 11495               	TRANSMIT:
 11496 0024 00        		.skip 1,0
 11497               	.global	usart_count
 11498               	.global	usart_count
 11501               	usart_count:
 11502 0025 0000      		.skip 2,0
 11503               	.global	usart_data_in_num
 11504               	.global	usart_data_in_num
 11507               	usart_data_in_num:
 11508 0027 0000      		.skip 2,0
 11509               	.global	FlagsFastCount
 11510               	.global	FlagsFastCount
 11513               	FlagsFastCount:
 11514 0029 0000      		.skip 2,0
 11515               	.global	temp_req
 11516               	.global	temp_req
 11519               	temp_req:
 11520 002b 00        		.skip 1,0
 11521               	.global	adc_data
 11522               	.global	adc_data
 11525               	adc_data:
 11526 002c 0000 0000 		.skip 4,0
 11527               	.global	ph
 11528               	.global	ph
 11531               	ph:
 11532 0030 0000 0000 		.skip 4,0
 11533               	.global	redox
 11534               	.global	redox
 11537               	redox:
 11538 0034 0000 0000 		.skip 4,0
 11539               	.global	water_lvl
 11540               	.global	water_lvl
 11543               	water_lvl:
 11544 0038 0000      		.skip 2,0
 11545               	.global	water_lvl_last
 11546               	.global	water_lvl_last
 11549               	water_lvl_last:
 11550 003a 0000      		.skip 2,0
 11551               	.global	water_lvl_pompa
 11552               	.global	water_lvl_pompa
 11555               	water_lvl_pompa:
 11556 003c 0000      		.skip 2,0
 11557               	.global	water_lvl_ovf_time
 11558               	.global	water_lvl_ovf_time
 11561               	water_lvl_ovf_time:
 11562 003e 00        		.skip 1,0
 11563               	.global	k1
 11564               		.data
 11567               	k1:
 11568 0405 E8        		.byte	-24
 11569 0406 03        		.byte	3
 11570 0407 00        		.byte	0
 11571 0408 00        		.byte	0
 11572               	.global	k2
 11575               	k2:
 11576 0409 E8        		.byte	-24
 11577 040a 03        		.byte	3
 11578 040b 00        		.byte	0
 11579 040c 00        		.byte	0
 11580               	.global	k
 11583               	k:
 11584 040d E8        		.byte	-24
 11585 040e 03        		.byte	3
 11586 040f 00        		.byte	0
 11587 0410 00        		.byte	0
 11588               	.global	adc_ph_1
 11589               	.global	adc_ph_1
 11590               		.section .bss
 11593               	adc_ph_1:
 11594 003f 0000      		.skip 2,0
 11595               	.global	adc_ph_2
 11596               	.global	adc_ph_2
 11599               	adc_ph_2:
 11600 0041 0000      		.skip 2,0
 11601               	.global	adc_redox
 11602               	.global	adc_redox
 11605               	adc_redox:
 11606 0043 0000      		.skip 2,0
 11607               	.global	ph_high
 11608               		.data
 11611               	ph_high:
 11612 0411 BC02      		.word	700
 11613               	.global	ph_low
 11616               	ph_low:
 11617 0413 F401      		.word	500
 11618               	.global	adc_ph_1_calibr
 11619               	.global	adc_ph_1_calibr
 11620               		.section .bss
 11623               	adc_ph_1_calibr:
 11624 0045 0000 0000 		.skip 4,0
 11625               	.global	adc_ph_2_calibr
 11626               	.global	adc_ph_2_calibr
 11629               	adc_ph_2_calibr:
 11630 0049 0000 0000 		.skip 4,0
 11631               	.global	adc_redox_calibr
 11632               	.global	adc_redox_calibr
 11635               	adc_redox_calibr:
 11636 004d 0000 0000 		.skip 4,0
 11637               	.global	adc_count
 11638               	.global	adc_count
 11641               	adc_count:
 11642 0051 00        		.skip 1,0
 11643               	.global	cooler_data
 11644               	.global	cooler_data
 11647               	cooler_data:
 11648 0052 0000 0000 		.skip 16,0
 11648      0000 0000 
 11648      0000 0000 
 11648      0000 0000 
 11649               	.global	cooler_min
 11650               		.data
 11653               	cooler_min:
 11654 0415 00        		.byte	0
 11655 0416 00        		.byte	0
 11656 0417 80        		.byte	-128
 11657 0418 42        		.byte	66
 11658               	.global	cooler_start_pulse
 11659               	.global	cooler_start_pulse
 11660               		.section .bss
 11663               	cooler_start_pulse:
 11664 0062 0000 0000 		.skip 4,0
 11665               	.global	temp_start_pulse
 11666               	.global	temp_start_pulse
 11669               	temp_start_pulse:
 11670 0066 00        		.skip 1,0
 11671               	.global	timer1_start
 11672               	.global	timer1_start
 11675               	timer1_start:
 11676 0067 0000 0000 		.skip 36,0
 11676      0000 0000 
 11676      0000 0000 
 11676      0000 0000 
 11676      0000 0000 
 11677               	.global	timer1_stop
 11678               	.global	timer1_stop
 11681               	timer1_stop:
 11682 008b 0000 0000 		.skip 36,0
 11682      0000 0000 
 11682      0000 0000 
 11682      0000 0000 
 11682      0000 0000 
 11683               	.global	timer2_start
 11684               	.global	timer2_start
 11687               	timer2_start:
 11688 00af 0000 0000 		.skip 36,0
 11688      0000 0000 
 11688      0000 0000 
 11688      0000 0000 
 11688      0000 0000 
 11689               	.global	timer2_stop
 11690               	.global	timer2_stop
 11693               	timer2_stop:
 11694 00d3 0000 0000 		.skip 36,0
 11694      0000 0000 
 11694      0000 0000 
 11694      0000 0000 
 11694      0000 0000 
 11695               	.global	timer3_start
 11696               	.global	timer3_start
 11699               	timer3_start:
 11700 00f7 0000 0000 		.skip 36,0
 11700      0000 0000 
 11700      0000 0000 
 11700      0000 0000 
 11700      0000 0000 
 11701               	.global	timer3_stop
 11702               	.global	timer3_stop
 11705               	timer3_stop:
 11706 011b 0000 0000 		.skip 36,0
 11706      0000 0000 
 11706      0000 0000 
 11706      0000 0000 
 11706      0000 0000 
 11707               	.global	time_min_and_sec
 11708               	.global	time_min_and_sec
 11711               	time_min_and_sec:
 11712 013f 0000 0000 		.skip 4,0
 11713               	.global	timer_produv_time
 11714               		.data
 11717               	timer_produv_time:
 11718 0419 F4        		.byte	-12
 11719 041a 01        		.byte	1
 11720 041b 00        		.byte	0
 11721 041c 00        		.byte	0
 11722               	.global	timer_produv_period
 11725               	timer_produv_period:
 11726 041d 01        		.byte	1
 11727               	.global	timer_produv_period_count
 11728               	.global	timer_produv_period_count
 11729               		.section .bss
 11732               	timer_produv_period_count:
 11733 0143 00        		.skip 1,0
 11734               	.global	time_now
 11735               	.global	time_now
 11738               	time_now:
 11739 0144 0000 0000 		.skip 4,0
 11740               	.global	lcd_led_start
 11741               		.data
 11744               	lcd_led_start:
 11745 041e 70        		.byte	112
 11746 041f 11        		.byte	17
 11747 0420 01        		.byte	1
 11748 0421 00        		.byte	0
 11749               	.global	lcd_led_stop
 11752               	lcd_led_stop:
 11753 0422 70        		.byte	112
 11754 0423 82        		.byte	-126
 11755 0424 03        		.byte	3
 11756 0425 00        		.byte	0
 11757               	.global	cooler_start
 11760               	cooler_start:
 11761 0426 70        		.byte	112
 11762 0427 11        		.byte	17
 11763 0428 01        		.byte	1
 11764 0429 00        		.byte	0
 11765               	.global	cooler_stop
 11768               	cooler_stop:
 11769 042a 70        		.byte	112
 11770 042b 82        		.byte	-126
 11771 042c 03        		.byte	3
 11772 042d 00        		.byte	0
 11773               	.global	co2_start
 11776               	co2_start:
 11777 042e 70        		.byte	112
 11778 042f 11        		.byte	17
 11779 0430 01        		.byte	1
 11780 0431 00        		.byte	0
 11781               	.global	co2_stop
 11784               	co2_stop:
 11785 0432 70        		.byte	112
 11786 0433 82        		.byte	-126
 11787 0434 03        		.byte	3
 11788 0435 00        		.byte	0
 11789               	.global	data_ph
 11790               	.global	data_ph
 11791               		.section .bss
 11794               	data_ph:
 11795 0148 0000 0000 		.skip 4,0
 11796               	.global	data_redox
 11797               	.global	data_redox
 11800               	data_redox:
 11801 014c 0000 0000 		.skip 4,0
 11802               	.global	rele_ports_status
 11803               	.global	rele_ports_status
 11806               	rele_ports_status:
 11807 0150 00        		.skip 1,0
 11808               	.global	rele_ports_status_lcd
 11809               	.global	rele_ports_status_lcd
 11812               	rele_ports_status_lcd:
 11813 0151 00        		.skip 1,0
 11814               	.global	heater_timer_status
 11815               	.global	heater_timer_status
 11818               	heater_timer_status:
 11819 0152 00        		.skip 1,0
 11820               	.global	co2_timer_status
 11821               	.global	co2_timer_status
 11824               	co2_timer_status:
 11825 0153 00        		.skip 1,0
 11826               	.global	doliv_timer_status
 11827               	.global	doliv_timer_status
 11830               	doliv_timer_status:
 11831 0154 00        		.skip 1,0
 11832               	.global	string_to_print
 11833               	.global	string_to_print
 11836               	string_to_print:
 11837 0155 00        		.skip 1,0
 11838               	.global	set_temp_sensor
 11839               		.data
 11842               	set_temp_sensor:
 11843 0436 01        		.byte	1
 11844               	.global	rele_hand_status
 11845               	.global	rele_hand_status
 11846               		.section .bss
 11849               	rele_hand_status:
 11850 0156 00        		.skip 1,0
 11851               	.global	cooler_chanel_status
 11852               	.global	cooler_chanel_status
 11855               	cooler_chanel_status:
 11856 0157 00        		.skip 1,0
 11857               	.global	heater_chanel_status
 11858               	.global	heater_chanel_status
 11861               	heater_chanel_status:
 11862 0158 00        		.skip 1,0
 11863               	.global	mode_status
 11864               	.global	mode_status
 11867               	mode_status:
 11868 0159 00        		.skip 1,0
 11869               	.global	eeprom_count
 11870               	.global	eeprom_count
 11873               	eeprom_count:
 11874 015a 00        		.skip 1,0
 11875               	.global	EEPROM_WRITE
 11876               	.global	EEPROM_WRITE
 11879               	EEPROM_WRITE:
 11880 015b 00        		.skip 1,0
 11881               	.global	string_1
 11882               		.data
 11885               	string_1:
 11886 0437 2020 2020 		.ascii	"                    "
 11886      2020 2020 
 11886      2020 2020 
 11886      2020 2020 
 11886      2020 2020 
 11887               	.global	string_2
 11890               	string_2:
 11891 044b 3C54 313E 		.ascii	"<T1> 00.0  PH       "
 11891      2030 302E 
 11891      3020 2050 
 11891      4820 2020 
 11891      2020 2020 
 11892               	.global	string_3
 11895               	string_3:
 11896 045f 3C54 323E 		.ascii	"<T2> 00.0  Rdx      "
 11896      2030 302E 
 11896      3020 2052 
 11896      6478 2020 
 11896      2020 2020 
 11897               	.global	string_4
 11900               	string_4:
 11901 0473 3C54 333E 		.ascii	"<T3> 00.0  ---------"
 11901      2030 302E 
 11901      3020 202D 
 11901      2D2D 2D2D 
 11901      2D2D 2D2D 
 11902               		.lcomm FastCount.2340,2
 11903               		.lcomm PrevState.2339,2
 11904               		.comm cur_p,1,1
 11905               		.comm cur_c,1,1
 11906               		.comm mask,1,1
 11907               		.comm buffer_ds,3,1
 11908               		.comm buffer_time,3,1
 11909               		.comm dh,1,1
 11910               		.comm dl,1,1
 12303               	.Letext0:
DEFINED SYMBOLS
                            *ABS*:00000000 main.c
C:\users\stan\Temp/ccMTAfv9.s:2      *ABS*:0000003f __SREG__
C:\users\stan\Temp/ccMTAfv9.s:3      *ABS*:0000003e __SP_H__
C:\users\stan\Temp/ccMTAfv9.s:4      *ABS*:0000003d __SP_L__
C:\users\stan\Temp/ccMTAfv9.s:5      *ABS*:00000034 __CCP__
C:\users\stan\Temp/ccMTAfv9.s:6      *ABS*:00000000 __tmp_reg__
C:\users\stan\Temp/ccMTAfv9.s:7      *ABS*:00000001 __zero_reg__
C:\users\stan\Temp/ccMTAfv9.s:18     .text:00000000 crc8
C:\users\stan\Temp/ccMTAfv9.s:87     .text:00000040 OW_GET_IN_B
                            *COM*:00000001 cur_p
                            *COM*:00000001 cur_c
C:\users\stan\Temp/ccMTAfv9.s:132    .text:00000076 OW_OUT_LOW_B
C:\users\stan\Temp/ccMTAfv9.s:194    .text:000000da OW_DIR_OUT_B
C:\users\stan\Temp/ccMTAfv9.s:253    .text:00000138 OW_DIR_IN_B
                            *COM*:00000001 mask
C:\users\stan\Temp/ccMTAfv9.s:291    .text:0000016c OW_OUT_HIGH_B
C:\users\stan\Temp/ccMTAfv9.s:348    .text:000001c6 ow_bit_io_b
C:\users\stan\Temp/ccMTAfv9.s:379    .text:000001de L_Exit_299
C:\users\stan\Temp/ccMTAfv9.s:376    .text:000001da L_LOOP_299
C:\users\stan\Temp/ccMTAfv9.s:405    .text:000001f4 L_Exit_315
C:\users\stan\Temp/ccMTAfv9.s:402    .text:000001f0 L_LOOP_315
C:\users\stan\Temp/ccMTAfv9.s:432    .text:0000020c L_Exit_331
C:\users\stan\Temp/ccMTAfv9.s:429    .text:00000208 L_LOOP_331
C:\users\stan\Temp/ccMTAfv9.s:457    .text:00000218 ow_byte_wr_b
C:\users\stan\Temp/ccMTAfv9.s:495    .text:0000023a ow_byte_rd_b
C:\users\stan\Temp/ccMTAfv9.s:510    .text:00000242 ow_reset_b
C:\users\stan\Temp/ccMTAfv9.s:535    .text:0000025c L_Exit_407
C:\users\stan\Temp/ccMTAfv9.s:532    .text:00000258 L_LOOP_407
C:\users\stan\Temp/ccMTAfv9.s:567    .text:00000272 L_Exit_419
C:\users\stan\Temp/ccMTAfv9.s:564    .text:0000026e L_LOOP_419
C:\users\stan\Temp/ccMTAfv9.s:592    .text:00000286 L_Exit_430
C:\users\stan\Temp/ccMTAfv9.s:589    .text:00000282 L_LOOP_430
C:\users\stan\Temp/ccMTAfv9.s:625    .text:0000029c ow_command_simple_b
C:\users\stan\Temp/ccMTAfv9.s:651    .text:000002b4 ow_parasite_enable_b
C:\users\stan\Temp/ccMTAfv9.s:667    .text:000002be cur_set
C:\users\stan\Temp/ccMTAfv9.s:695    .text:000002dc DS18B20_read_meas_single
C:\users\stan\Temp/ccMTAfv9.s:803    .text:00000386 DS18B20_start_meas
C:\users\stan\Temp/ccMTAfv9.s:861    .text:000003ca i2c_init
C:\users\stan\Temp/ccMTAfv9.s:881    .text:000003d4 i2c_busy
C:\users\stan\Temp/ccMTAfv9.s:898    .text:000003dc i2c_start
C:\users\stan\Temp/ccMTAfv9.s:922    .text:000003f0 L_Exit_689
C:\users\stan\Temp/ccMTAfv9.s:919    .text:000003ec L_LOOP_689
C:\users\stan\Temp/ccMTAfv9.s:943    .text:000003fe L_Exit_700
C:\users\stan\Temp/ccMTAfv9.s:940    .text:000003fa L_LOOP_700
C:\users\stan\Temp/ccMTAfv9.s:962    .text:0000040a L_Exit_708
C:\users\stan\Temp/ccMTAfv9.s:959    .text:00000406 L_LOOP_708
C:\users\stan\Temp/ccMTAfv9.s:976    .text:0000040c i2c_stop
C:\users\stan\Temp/ccMTAfv9.s:1000   .text:00000420 L_Exit_731
C:\users\stan\Temp/ccMTAfv9.s:997    .text:0000041c L_LOOP_731
C:\users\stan\Temp/ccMTAfv9.s:1019   .text:0000042c L_Exit_739
C:\users\stan\Temp/ccMTAfv9.s:1016   .text:00000428 L_LOOP_739
C:\users\stan\Temp/ccMTAfv9.s:1033   .text:0000042e i2c_sendbyte
C:\users\stan\Temp/ccMTAfv9.s:1076   .text:0000044e L_Exit_782
C:\users\stan\Temp/ccMTAfv9.s:1073   .text:0000044a L_LOOP_782
C:\users\stan\Temp/ccMTAfv9.s:1097   .text:0000045c L_Exit_793
C:\users\stan\Temp/ccMTAfv9.s:1094   .text:00000458 L_LOOP_793
C:\users\stan\Temp/ccMTAfv9.s:1118   .text:0000046a L_Exit_804
C:\users\stan\Temp/ccMTAfv9.s:1115   .text:00000466 L_LOOP_804
C:\users\stan\Temp/ccMTAfv9.s:1149   .text:00000482 L_Exit_828
C:\users\stan\Temp/ccMTAfv9.s:1146   .text:0000047e L_LOOP_828
C:\users\stan\Temp/ccMTAfv9.s:1173   .text:00000492 L_Exit_841
C:\users\stan\Temp/ccMTAfv9.s:1170   .text:0000048e L_LOOP_841
C:\users\stan\Temp/ccMTAfv9.s:1190   .text:0000049c i2c_readbyte
C:\users\stan\Temp/ccMTAfv9.s:1229   .text:000004b8 L_Exit_884
C:\users\stan\Temp/ccMTAfv9.s:1226   .text:000004b4 L_LOOP_884
C:\users\stan\Temp/ccMTAfv9.s:1266   .text:000004d8 L_Exit_905
C:\users\stan\Temp/ccMTAfv9.s:1263   .text:000004d4 L_LOOP_905
C:\users\stan\Temp/ccMTAfv9.s:1296   .text:000004f0 L_Exit_927
C:\users\stan\Temp/ccMTAfv9.s:1293   .text:000004ec L_LOOP_927
C:\users\stan\Temp/ccMTAfv9.s:1313   .text:000004f6 DS_write
C:\users\stan\Temp/ccMTAfv9.s:1348   .text:0000051e DS_read
C:\users\stan\Temp/ccMTAfv9.s:1389   .text:00000552 DS1307_init
C:\users\stan\Temp/ccMTAfv9.s:1433   .text:0000057c DS1307
                            *COM*:00000003 buffer_ds
C:\users\stan\Temp/ccMTAfv9.s:1472   .text:000005ba IntToDec
C:\users\stan\Temp/ccMTAfv9.s:1504   .text:000005e4 DS1307_set_time
                            *COM*:00000003 buffer_time
C:\users\stan\Temp/ccMTAfv9.s:1534   .text:00000616 usart_init
C:\users\stan\Temp/ccMTAfv9.s:1563   .text:0000062c buffer_out
C:\users\stan\Temp/ccMTAfv9.s:11481  .bss:00000022 buffer_index
C:\users\stan\Temp/ccMTAfv9.s:11507  .bss:00000027 usart_data_in_num
C:\users\stan\Temp/ccMTAfv9.s:11495  .bss:00000024 TRANSMIT
C:\users\stan\Temp/ccMTAfv9.s:11473  .data:00000005 buffer
C:\users\stan\Temp/ccMTAfv9.s:1604   .text:00000672 __vector_14
C:\users\stan\Temp/ccMTAfv9.s:1651   .text:000006ba buffer_start
C:\users\stan\Temp/ccMTAfv9.s:1673   .text:000006ce __vector_15
C:\users\stan\Temp/ccMTAfv9.s:1724   .text:0000071e __vector_13
C:\users\stan\Temp/ccMTAfv9.s:11501  .bss:00000025 usart_count
C:\users\stan\Temp/ccMTAfv9.s:11487  .data:00000205 usart_data_in
C:\users\stan\Temp/ccMTAfv9.s:1849   .text:0000080a write
C:\users\stan\Temp/ccMTAfv9.s:1908   .text:0000081e comand_to_LCD
C:\users\stan\Temp/ccMTAfv9.s:1968   .text:00000850 init_LCD
C:\users\stan\Temp/ccMTAfv9.s:2130   .text:000008b4 data_to_LCD
C:\users\stan\Temp/ccMTAfv9.s:2190   .text:000008e6 string_to_LCD
C:\users\stan\Temp/ccMTAfv9.s:2268   .text:0000093e __vector_5
                             .bss:0000015c FastCount.2340
C:\users\stan\Temp/ccMTAfv9.s:11513  .bss:00000029 FlagsFastCount
C:\users\stan\Temp/ccMTAfv9.s:11902  .bss:0000015e PrevState.2339
C:\users\stan\Temp/ccMTAfv9.s:2327   .text:000009ae scale_t
C:\users\stan\Temp/ccMTAfv9.s:2416   .text:00000a1a set_temp_mode_and_produv
C:\users\stan\Temp/ccMTAfv9.s:11318  .bss:00000000 temp_control
C:\users\stan\Temp/ccMTAfv9.s:11842  .data:00000436 set_temp_sensor
C:\users\stan\Temp/ccMTAfv9.s:11890  .data:0000044b string_2
C:\users\stan\Temp/ccMTAfv9.s:11895  .data:0000045f string_3
C:\users\stan\Temp/ccMTAfv9.s:11900  .data:00000473 string_4
C:\users\stan\Temp/ccMTAfv9.s:11347  .bss:00000002 temp_now
C:\users\stan\Temp/ccMTAfv9.s:11330  .data:00000000 set_temp
C:\users\stan\Temp/ccMTAfv9.s:11340  .data:00000004 set_temp_dec
C:\users\stan\Temp/ccMTAfv9.s:11353  .bss:00000004 heater
C:\users\stan\Temp/ccMTAfv9.s:11861  .bss:00000158 heater_chanel_status
C:\users\stan\Temp/ccMTAfv9.s:11359  .bss:00000005 cooler
C:\users\stan\Temp/ccMTAfv9.s:11738  .bss:00000144 time_now
C:\users\stan\Temp/ccMTAfv9.s:11760  .data:00000426 cooler_start
C:\users\stan\Temp/ccMTAfv9.s:11768  .data:0000042a cooler_stop
C:\users\stan\Temp/ccMTAfv9.s:11663  .bss:00000062 cooler_start_pulse
C:\users\stan\Temp/ccMTAfv9.s:11335  .data:00000002 cooler_set
C:\users\stan\Temp/ccMTAfv9.s:11647  .bss:00000052 cooler_data
C:\users\stan\Temp/ccMTAfv9.s:11653  .data:00000415 cooler_min
C:\users\stan\Temp/ccMTAfv9.s:11855  .bss:00000157 cooler_chanel_status
C:\users\stan\Temp/ccMTAfv9.s:11377  .bss:00000008 rele_set
C:\users\stan\Temp/ccMTAfv9.s:11818  .bss:00000152 heater_timer_status
C:\users\stan\Temp/ccMTAfv9.s:11324  .bss:00000001 produv
C:\users\stan\Temp/ccMTAfv9.s:11711  .bss:0000013f time_min_and_sec
C:\users\stan\Temp/ccMTAfv9.s:11732  .bss:00000143 timer_produv_period_count
C:\users\stan\Temp/ccMTAfv9.s:11717  .data:00000419 timer_produv_time
C:\users\stan\Temp/ccMTAfv9.s:11725  .data:0000041d timer_produv_period
C:\users\stan\Temp/ccMTAfv9.s:3039   .text:00000f82 timers_data_to_uart
C:\users\stan\Temp/ccMTAfv9.s:11675  .bss:00000067 timer1_start
C:\users\stan\Temp/ccMTAfv9.s:11687  .bss:000000af timer2_start
C:\users\stan\Temp/ccMTAfv9.s:11699  .bss:000000f7 timer3_start
C:\users\stan\Temp/ccMTAfv9.s:11681  .bss:0000008b timer1_stop
C:\users\stan\Temp/ccMTAfv9.s:11693  .bss:000000d3 timer2_stop
C:\users\stan\Temp/ccMTAfv9.s:11705  .bss:0000011b timer3_stop
C:\users\stan\Temp/ccMTAfv9.s:4132   .text:00001894 events_data_to_uart
C:\users\stan\Temp/ccMTAfv9.s:11611  .data:00000411 ph_high
C:\users\stan\Temp/ccMTAfv9.s:11616  .data:00000413 ph_low
C:\users\stan\Temp/ccMTAfv9.s:11784  .data:00000432 co2_stop
C:\users\stan\Temp/ccMTAfv9.s:11776  .data:0000042e co2_start
C:\users\stan\Temp/ccMTAfv9.s:4459   .text:00001bb6 water_doliv
C:\users\stan\Temp/ccMTAfv9.s:11395  .bss:00000012 doliv
C:\users\stan\Temp/ccMTAfv9.s:11543  .bss:00000038 water_lvl
C:\users\stan\Temp/ccMTAfv9.s:11413  .bss:00000016 doliv_porog2
C:\users\stan\Temp/ccMTAfv9.s:11407  .bss:00000014 doliv_porog1
C:\users\stan\Temp/ccMTAfv9.s:11549  .bss:0000003a water_lvl_last
C:\users\stan\Temp/ccMTAfv9.s:11425  .bss:00000019 WATER_ERROR_POMPA
C:\users\stan\Temp/ccMTAfv9.s:11561  .bss:0000003e water_lvl_ovf_time
C:\users\stan\Temp/ccMTAfv9.s:11419  .bss:00000018 WATER_ERROR
C:\users\stan\Temp/ccMTAfv9.s:11437  .bss:0000001b water_lvl_status
C:\users\stan\Temp/ccMTAfv9.s:11401  .bss:00000013 pompa
C:\users\stan\Temp/ccMTAfv9.s:11830  .bss:00000154 doliv_timer_status
C:\users\stan\Temp/ccMTAfv9.s:4622   .text:00001cda load_option_eeprom
C:\users\stan\Temp/ccMTAfv9.s:11567  .data:00000405 k1
C:\users\stan\Temp/ccMTAfv9.s:11575  .data:00000409 k2
C:\users\stan\Temp/ccMTAfv9.s:11583  .data:0000040d k
C:\users\stan\Temp/ccMTAfv9.s:11752  .data:00000422 lcd_led_stop
C:\users\stan\Temp/ccMTAfv9.s:11744  .data:0000041e lcd_led_start
C:\users\stan\Temp/ccMTAfv9.s:11365  .bss:00000006 co2
C:\users\stan\Temp/ccMTAfv9.s:11824  .bss:00000153 co2_timer_status
C:\users\stan\Temp/ccMTAfv9.s:11371  .bss:00000007 co2_set
C:\users\stan\Temp/ccMTAfv9.s:11443  .bss:0000001c co2_status
C:\users\stan\Temp/ccMTAfv9.s:5074   .text:0000211a save_option_eeprom
C:\users\stan\Temp/ccMTAfv9.s:11873  .bss:0000015a eeprom_count
C:\users\stan\Temp/ccMTAfv9.s:11879  .bss:0000015b EEPROM_WRITE
C:\users\stan\Temp/ccMTAfv9.s:5923   .text:000029f4 main
C:\users\stan\Temp/ccMTAfv9.s:11519  .bss:0000002b temp_req
C:\users\stan\Temp/ccMTAfv9.s:11449  .bss:0000001d cooler_hand_start
C:\users\stan\Temp/ccMTAfv9.s:11836  .bss:00000155 string_to_print
C:\users\stan\Temp/ccMTAfv9.s:11885  .data:00000437 string_1
C:\users\stan\Temp/ccMTAfv9.s:11669  .bss:00000066 temp_start_pulse
C:\users\stan\Temp/ccMTAfv9.s:11641  .bss:00000051 adc_count
                            *COM*:00000001 dl
                            *COM*:00000001 dh
C:\users\stan\Temp/ccMTAfv9.s:11525  .bss:0000002c adc_data
C:\users\stan\Temp/ccMTAfv9.s:11531  .bss:00000030 ph
C:\users\stan\Temp/ccMTAfv9.s:11537  .bss:00000034 redox
C:\users\stan\Temp/ccMTAfv9.s:11794  .bss:00000148 data_ph
C:\users\stan\Temp/ccMTAfv9.s:11800  .bss:0000014c data_redox
C:\users\stan\Temp/ccMTAfv9.s:11593  .bss:0000003f adc_ph_1
C:\users\stan\Temp/ccMTAfv9.s:11623  .bss:00000045 adc_ph_1_calibr
C:\users\stan\Temp/ccMTAfv9.s:11629  .bss:00000049 adc_ph_2_calibr
C:\users\stan\Temp/ccMTAfv9.s:11599  .bss:00000041 adc_ph_2
C:\users\stan\Temp/ccMTAfv9.s:11605  .bss:00000043 adc_redox
C:\users\stan\Temp/ccMTAfv9.s:11635  .bss:0000004d adc_redox_calibr
C:\users\stan\Temp/ccMTAfv9.s:11389  .bss:00000011 time_one_sec
C:\users\stan\Temp/ccMTAfv9.s:11806  .bss:00000150 rele_ports_status
C:\users\stan\Temp/ccMTAfv9.s:11812  .bss:00000151 rele_ports_status_lcd
C:\users\stan\Temp/ccMTAfv9.s:11849  .bss:00000156 rele_hand_status
C:\users\stan\Temp/ccMTAfv9.s:11867  .bss:00000159 mode_status
C:\users\stan\Temp/ccMTAfv9.s:11383  .bss:00000010 hand_mode_set
C:\users\stan\Temp/ccMTAfv9.s:11455  .bss:0000001e cooler_hand_power
C:\users\stan\Temp/ccMTAfv9.s:11431  .bss:0000001a pompa_time_count
C:\users\stan\Temp/ccMTAfv9.s:11555  .bss:0000003c water_lvl_pompa
C:\users\stan\Temp/ccMTAfv9.s:11461  .bss:00000020 data_i2c_h
C:\users\stan\Temp/ccMTAfv9.s:11467  .bss:00000021 data_i2c_l

UNDEFINED SYMBOLS
__udivmodqi4
__floatunsisf
__ltsf2
__fixunssfsi
__udivmodsi4
__divmodhi4
__udivmodhi4
__divsf3
__addsf3
__eerd_dword_m32
__eerd_byte_m32
__eerd_word_m32
__eewr_word_m32
__eewr_dword_m32
__eewr_byte_m32
__mulsi3
__floatsisf
__mulsf3
__divmodsi4
__do_copy_data
__do_clear_bss
