
main.elf:     file format elf32-avr

Sections:
Idx Name          Size      VMA       LMA       File off  Algn
  0 .text         0000618e  00000000  00000000  00000094  2**1
                  CONTENTS, ALLOC, LOAD, READONLY, CODE
  1 .data         00000488  00800060  0000618e  00006222  2**0
                  CONTENTS, ALLOC, LOAD, DATA
  2 .bss          0000016b  008004e8  008004e8  000066aa  2**0
                  ALLOC
  3 .debug_aranges 00000020  00000000  00000000  000066aa  2**0
                  CONTENTS, READONLY, DEBUGGING
  4 .debug_pubnames 00000966  00000000  00000000  000066ca  2**0
                  CONTENTS, READONLY, DEBUGGING
  5 .debug_info   000017b6  00000000  00000000  00007030  2**0
                  CONTENTS, READONLY, DEBUGGING
  6 .debug_abbrev 00000316  00000000  00000000  000087e6  2**0
                  CONTENTS, READONLY, DEBUGGING
  7 .debug_line   0000254c  00000000  00000000  00008afc  2**0
                  CONTENTS, READONLY, DEBUGGING
  8 .debug_frame  00000300  00000000  00000000  0000b048  2**2
                  CONTENTS, READONLY, DEBUGGING
  9 .debug_str    0000083e  00000000  00000000  0000b348  2**0
                  CONTENTS, READONLY, DEBUGGING
 10 .debug_loc    0000072a  00000000  00000000  0000bb86  2**0
                  CONTENTS, READONLY, DEBUGGING
 11 .debug_ranges 00000030  00000000  00000000  0000c2b0  2**0
                  CONTENTS, READONLY, DEBUGGING

Disassembly of section .text:

00000000 <__vectors>:
       0:	0c 94 43 00 	jmp	0x86	; 0x86 <__ctors_end>
       4:	0c 94 60 00 	jmp	0xc0	; 0xc0 <__bad_interrupt>
       8:	0c 94 60 00 	jmp	0xc0	; 0xc0 <__bad_interrupt>
       c:	0c 94 60 00 	jmp	0xc0	; 0xc0 <__bad_interrupt>
      10:	0c 94 60 00 	jmp	0xc0	; 0xc0 <__bad_interrupt>
      14:	0c 94 01 05 	jmp	0xa02	; 0xa02 <__vector_5>
      18:	0c 94 60 00 	jmp	0xc0	; 0xc0 <__bad_interrupt>
      1c:	0c 94 60 00 	jmp	0xc0	; 0xc0 <__bad_interrupt>
      20:	0c 94 60 00 	jmp	0xc0	; 0xc0 <__bad_interrupt>
      24:	0c 94 60 00 	jmp	0xc0	; 0xc0 <__bad_interrupt>
      28:	0c 94 60 00 	jmp	0xc0	; 0xc0 <__bad_interrupt>
      2c:	0c 94 60 00 	jmp	0xc0	; 0xc0 <__bad_interrupt>
      30:	0c 94 60 00 	jmp	0xc0	; 0xc0 <__bad_interrupt>
      34:	0c 94 f1 03 	jmp	0x7e2	; 0x7e2 <__vector_13>
      38:	0c 94 9b 03 	jmp	0x736	; 0x736 <__vector_14>
      3c:	0c 94 c9 03 	jmp	0x792	; 0x792 <__vector_15>
      40:	0c 94 60 00 	jmp	0xc0	; 0xc0 <__bad_interrupt>
      44:	0c 94 60 00 	jmp	0xc0	; 0xc0 <__bad_interrupt>
      48:	0c 94 60 00 	jmp	0xc0	; 0xc0 <__bad_interrupt>
      4c:	0c 94 60 00 	jmp	0xc0	; 0xc0 <__bad_interrupt>
      50:	0c 94 60 00 	jmp	0xc0	; 0xc0 <__bad_interrupt>
      54:	d0 18       	sub	r13, r0
      56:	41 1a       	sub	r4, r17
      58:	73 1a       	sub	r7, r19
      5a:	c1 1a       	sub	r12, r17
      5c:	fb 1b       	sub	r31, r27
      5e:	cb 1a       	sub	r12, r27
      60:	42 1b       	sub	r20, r18
      62:	b8 1e       	adc	r11, r24
      64:	4f 1f       	adc	r20, r31
      66:	f5 1f       	adc	r31, r21
      68:	f5 1f       	adc	r31, r21
      6a:	f5 1f       	adc	r31, r21
      6c:	f5 1f       	adc	r31, r21
      6e:	f5 1f       	adc	r31, r21
      70:	f5 1f       	adc	r31, r21
      72:	b0 1f       	adc	r27, r16
      74:	48 1b       	sub	r20, r24
      76:	c9 1b       	sub	r28, r25
      78:	6d 1a       	sub	r6, r29
      7a:	ae 1e       	adc	r10, r30
      7c:	d2 1b       	sub	r29, r18
      7e:	e0 1b       	sub	r30, r16
      80:	e6 1b       	sub	r30, r22
      82:	ef 1b       	sub	r30, r31
      84:	f8 1b       	sub	r31, r24

00000086 <__ctors_end>:
      86:	11 24       	eor	r1, r1
      88:	1f be       	out	0x3f, r1	; 63
      8a:	cf e5       	ldi	r28, 0x5F	; 95
      8c:	d8 e0       	ldi	r29, 0x08	; 8
      8e:	de bf       	out	0x3e, r29	; 62
      90:	cd bf       	out	0x3d, r28	; 61

00000092 <__do_copy_data>:
      92:	14 e0       	ldi	r17, 0x04	; 4
      94:	a0 e6       	ldi	r26, 0x60	; 96
      96:	b0 e0       	ldi	r27, 0x00	; 0
      98:	ee e8       	ldi	r30, 0x8E	; 142
      9a:	f1 e6       	ldi	r31, 0x61	; 97
      9c:	02 c0       	rjmp	.+4      	; 0xa2 <.do_copy_data_start>

0000009e <.do_copy_data_loop>:
      9e:	05 90       	lpm	r0, Z+
      a0:	0d 92       	st	X+, r0

000000a2 <.do_copy_data_start>:
      a2:	a8 3e       	cpi	r26, 0xE8	; 232
      a4:	b1 07       	cpc	r27, r17
      a6:	d9 f7       	brne	.-10     	; 0x9e <.do_copy_data_loop>

000000a8 <__do_clear_bss>:
      a8:	16 e0       	ldi	r17, 0x06	; 6
      aa:	a8 ee       	ldi	r26, 0xE8	; 232
      ac:	b4 e0       	ldi	r27, 0x04	; 4
      ae:	01 c0       	rjmp	.+2      	; 0xb2 <.do_clear_bss_start>

000000b0 <.do_clear_bss_loop>:
      b0:	1d 92       	st	X+, r1

000000b2 <.do_clear_bss_start>:
      b2:	a3 35       	cpi	r26, 0x53	; 83
      b4:	b1 07       	cpc	r27, r17
      b6:	e1 f7       	brne	.-8      	; 0xb0 <.do_clear_bss_loop>
      b8:	0e 94 5c 15 	call	0x2ab8	; 0x2ab8 <main>
      bc:	0c 94 c5 30 	jmp	0x618a	; 0x618a <_exit>

000000c0 <__bad_interrupt>:
      c0:	0c 94 00 00 	jmp	0	; 0x0 <__vectors>

000000c4 <crc8>:
#define CRC8POLY	0x18              //0X18 = X^8+X^5+X^4+X^0

uint8_t	crc8 (uint8_t* data_in, uint16_t number_of_bytes_to_read);

uint8_t	crc8 ( uint8_t *data_in, uint16_t number_of_bytes_to_read )
{
      c4:	dc 01       	movw	r26, r24
      c6:	20 e0       	ldi	r18, 0x00	; 0
      c8:	40 e0       	ldi	r20, 0x00	; 0
      ca:	50 e0       	ldi	r21, 0x00	; 0
		bit_counter = 8;
		do {
			feedback_bit = (crc ^ data) & 0x01;
	
			if ( feedback_bit == 0x01 ) {
				crc = crc ^ CRC8POLY;
      cc:	98 e1       	ldi	r25, 0x18	; 24
      ce:	15 c0       	rjmp	.+42     	; 0xfa <crc8+0x36>
	
	crc = CRC8INIT;

	for (loop_count = 0; loop_count != number_of_bytes_to_read; loop_count++)
	{
		data = data_in[loop_count];
      d0:	fd 01       	movw	r30, r26
      d2:	e4 0f       	add	r30, r20
      d4:	f5 1f       	adc	r31, r21
      d6:	e0 81       	ld	r30, Z
      d8:	38 e0       	ldi	r19, 0x08	; 8
		
		bit_counter = 8;
		do {
			feedback_bit = (crc ^ data) & 0x01;
      da:	8e 2f       	mov	r24, r30
      dc:	82 27       	eor	r24, r18
	
			if ( feedback_bit == 0x01 ) {
      de:	f8 2f       	mov	r31, r24
      e0:	f1 70       	andi	r31, 0x01	; 1
      e2:	80 fd       	sbrc	r24, 0
				crc = crc ^ CRC8POLY;
      e4:	29 27       	eor	r18, r25
			}
			crc = (crc >> 1) & 0x7F;
      e6:	26 95       	lsr	r18
			if ( feedback_bit == 0x01 ) {
      e8:	f1 30       	cpi	r31, 0x01	; 1
      ea:	09 f4       	brne	.+2      	; 0xee <crc8+0x2a>
				crc = crc | 0x80;
      ec:	20 68       	ori	r18, 0x80	; 128
			}
		
			data = data >> 1;
			bit_counter--;
      ee:	31 50       	subi	r19, 0x01	; 1
		
		} while (bit_counter > 0);
      f0:	11 f0       	breq	.+4      	; 0xf6 <crc8+0x32>
			crc = (crc >> 1) & 0x7F;
			if ( feedback_bit == 0x01 ) {
				crc = crc | 0x80;
			}
		
			data = data >> 1;
      f2:	e6 95       	lsr	r30
      f4:	f2 cf       	rjmp	.-28     	; 0xda <crc8+0x16>
	uint8_t  data;
	uint8_t  feedback_bit;
	
	crc = CRC8INIT;

	for (loop_count = 0; loop_count != number_of_bytes_to_read; loop_count++)
      f6:	4f 5f       	subi	r20, 0xFF	; 255
      f8:	5f 4f       	sbci	r21, 0xFF	; 255
      fa:	46 17       	cp	r20, r22
      fc:	57 07       	cpc	r21, r23
      fe:	41 f7       	brne	.-48     	; 0xd0 <crc8+0xc>
		
		} while (bit_counter > 0);
	}
	
	return crc;
}
     100:	82 2f       	mov	r24, r18
     102:	08 95       	ret

00000104 <OW_GET_IN_B>:
volatile uint8_t mask;

//------------------------------------------------------------------------
uint8_t OW_GET_IN_B(void)
{	
	switch (cur_p)
     104:	80 91 49 06 	lds	r24, 0x0649
     108:	83 36       	cpi	r24, 0x63	; 99
     10a:	41 f0       	breq	.+16     	; 0x11c <OW_GET_IN_B+0x18>
     10c:	84 36       	cpi	r24, 0x64	; 100
     10e:	41 f0       	breq	.+16     	; 0x120 <OW_GET_IN_B+0x1c>
     110:	82 36       	cpi	r24, 0x62	; 98
     112:	11 f0       	breq	.+4      	; 0x118 <OW_GET_IN_B+0x14>
     114:	30 e0       	ldi	r19, 0x00	; 0
     116:	0f c0       	rjmp	.+30     	; 0x136 <OW_GET_IN_B+0x32>
	{
		case 'b': return ( PINB & (1 << cur_c)); break;
     118:	36 b3       	in	r19, 0x16	; 22
     11a:	03 c0       	rjmp	.+6      	; 0x122 <OW_GET_IN_B+0x1e>
		case 'c': return ( PINC & (1 << cur_c)); break;
     11c:	33 b3       	in	r19, 0x13	; 19
     11e:	01 c0       	rjmp	.+2      	; 0x122 <OW_GET_IN_B+0x1e>
		case 'd': return ( PIND & (1 << cur_c)); break;
     120:	30 b3       	in	r19, 0x10	; 16
     122:	20 91 4b 06 	lds	r18, 0x064B
     126:	81 e0       	ldi	r24, 0x01	; 1
     128:	90 e0       	ldi	r25, 0x00	; 0
     12a:	02 c0       	rjmp	.+4      	; 0x130 <OW_GET_IN_B+0x2c>
     12c:	88 0f       	add	r24, r24
     12e:	99 1f       	adc	r25, r25
     130:	2a 95       	dec	r18
     132:	e2 f7       	brpl	.-8      	; 0x12c <OW_GET_IN_B+0x28>
     134:	38 23       	and	r19, r24
		default: return 0;
	};
}
     136:	83 2f       	mov	r24, r19
     138:	08 95       	ret

0000013a <OW_OUT_LOW_B>:

//------------------------------------------------------------------------
void OW_OUT_LOW_B(void) 	
{ 
	switch (cur_p)
     13a:	80 91 49 06 	lds	r24, 0x0649
     13e:	83 36       	cpi	r24, 0x63	; 99
     140:	91 f0       	breq	.+36     	; 0x166 <OW_OUT_LOW_B+0x2c>
     142:	84 36       	cpi	r24, 0x64	; 100
     144:	f1 f0       	breq	.+60     	; 0x182 <OW_OUT_LOW_B+0x48>
     146:	82 36       	cpi	r24, 0x62	; 98
     148:	49 f5       	brne	.+82     	; 0x19c <OW_OUT_LOW_B+0x62>
	{
		case 'b': PORTB &= (~(1 << cur_c)); break;
     14a:	38 b3       	in	r19, 0x18	; 24
     14c:	20 91 4b 06 	lds	r18, 0x064B
     150:	81 e0       	ldi	r24, 0x01	; 1
     152:	90 e0       	ldi	r25, 0x00	; 0
     154:	02 c0       	rjmp	.+4      	; 0x15a <OW_OUT_LOW_B+0x20>
     156:	88 0f       	add	r24, r24
     158:	99 1f       	adc	r25, r25
     15a:	2a 95       	dec	r18
     15c:	e2 f7       	brpl	.-8      	; 0x156 <OW_OUT_LOW_B+0x1c>
     15e:	80 95       	com	r24
     160:	83 23       	and	r24, r19
     162:	88 bb       	out	0x18, r24	; 24
     164:	08 95       	ret
		case 'c': PORTC &= (~(1 << cur_c)); break;
     166:	35 b3       	in	r19, 0x15	; 21
     168:	20 91 4b 06 	lds	r18, 0x064B
     16c:	81 e0       	ldi	r24, 0x01	; 1
     16e:	90 e0       	ldi	r25, 0x00	; 0
     170:	02 c0       	rjmp	.+4      	; 0x176 <OW_OUT_LOW_B+0x3c>
     172:	88 0f       	add	r24, r24
     174:	99 1f       	adc	r25, r25
     176:	2a 95       	dec	r18
     178:	e2 f7       	brpl	.-8      	; 0x172 <OW_OUT_LOW_B+0x38>
     17a:	80 95       	com	r24
     17c:	83 23       	and	r24, r19
     17e:	85 bb       	out	0x15, r24	; 21
     180:	08 95       	ret
		case 'd': PORTD &= (~(1 << cur_c)); break;
     182:	32 b3       	in	r19, 0x12	; 18
     184:	20 91 4b 06 	lds	r18, 0x064B
     188:	81 e0       	ldi	r24, 0x01	; 1
     18a:	90 e0       	ldi	r25, 0x00	; 0
     18c:	02 c0       	rjmp	.+4      	; 0x192 <OW_OUT_LOW_B+0x58>
     18e:	88 0f       	add	r24, r24
     190:	99 1f       	adc	r25, r25
     192:	2a 95       	dec	r18
     194:	e2 f7       	brpl	.-8      	; 0x18e <OW_OUT_LOW_B+0x54>
     196:	80 95       	com	r24
     198:	83 23       	and	r24, r19
     19a:	82 bb       	out	0x12, r24	; 18
     19c:	08 95       	ret

0000019e <OW_DIR_OUT_B>:
}

//------------------------------------------------------------------------
void OW_DIR_OUT_B(void)
{	
	switch (cur_p)
     19e:	80 91 49 06 	lds	r24, 0x0649
     1a2:	83 36       	cpi	r24, 0x63	; 99
     1a4:	89 f0       	breq	.+34     	; 0x1c8 <OW_DIR_OUT_B+0x2a>
     1a6:	84 36       	cpi	r24, 0x64	; 100
     1a8:	e1 f0       	breq	.+56     	; 0x1e2 <OW_DIR_OUT_B+0x44>
     1aa:	82 36       	cpi	r24, 0x62	; 98
     1ac:	31 f5       	brne	.+76     	; 0x1fa <OW_DIR_OUT_B+0x5c>
	{
		case 'b': DDRB |= (1 << cur_c); break;
     1ae:	87 b3       	in	r24, 0x17	; 23
     1b0:	90 91 4b 06 	lds	r25, 0x064B
     1b4:	21 e0       	ldi	r18, 0x01	; 1
     1b6:	30 e0       	ldi	r19, 0x00	; 0
     1b8:	02 c0       	rjmp	.+4      	; 0x1be <OW_DIR_OUT_B+0x20>
     1ba:	22 0f       	add	r18, r18
     1bc:	33 1f       	adc	r19, r19
     1be:	9a 95       	dec	r25
     1c0:	e2 f7       	brpl	.-8      	; 0x1ba <OW_DIR_OUT_B+0x1c>
     1c2:	82 2b       	or	r24, r18
     1c4:	87 bb       	out	0x17, r24	; 23
     1c6:	08 95       	ret
		case 'c': DDRC |= (1 << cur_c); break;
     1c8:	84 b3       	in	r24, 0x14	; 20
     1ca:	90 91 4b 06 	lds	r25, 0x064B
     1ce:	21 e0       	ldi	r18, 0x01	; 1
     1d0:	30 e0       	ldi	r19, 0x00	; 0
     1d2:	02 c0       	rjmp	.+4      	; 0x1d8 <OW_DIR_OUT_B+0x3a>
     1d4:	22 0f       	add	r18, r18
     1d6:	33 1f       	adc	r19, r19
     1d8:	9a 95       	dec	r25
     1da:	e2 f7       	brpl	.-8      	; 0x1d4 <OW_DIR_OUT_B+0x36>
     1dc:	82 2b       	or	r24, r18
     1de:	84 bb       	out	0x14, r24	; 20
     1e0:	08 95       	ret
		case 'd': DDRD |= (1 << cur_c); break;
     1e2:	81 b3       	in	r24, 0x11	; 17
     1e4:	90 91 4b 06 	lds	r25, 0x064B
     1e8:	21 e0       	ldi	r18, 0x01	; 1
     1ea:	30 e0       	ldi	r19, 0x00	; 0
     1ec:	02 c0       	rjmp	.+4      	; 0x1f2 <OW_DIR_OUT_B+0x54>
     1ee:	22 0f       	add	r18, r18
     1f0:	33 1f       	adc	r19, r19
     1f2:	9a 95       	dec	r25
     1f4:	e2 f7       	brpl	.-8      	; 0x1ee <OW_DIR_OUT_B+0x50>
     1f6:	82 2b       	or	r24, r18
     1f8:	81 bb       	out	0x11, r24	; 17
     1fa:	08 95       	ret

000001fc <OW_DIR_IN_B>:
}

//------------------------------------------------------------------------
void OW_DIR_IN_B(void)
{   
	switch (cur_p)
     1fc:	80 91 49 06 	lds	r24, 0x0649
     200:	83 36       	cpi	r24, 0x63	; 99
     202:	51 f0       	breq	.+20     	; 0x218 <OW_DIR_IN_B+0x1c>
     204:	84 36       	cpi	r24, 0x64	; 100
     206:	71 f0       	breq	.+28     	; 0x224 <OW_DIR_IN_B+0x28>
     208:	82 36       	cpi	r24, 0x62	; 98
     20a:	89 f4       	brne	.+34     	; 0x22e <OW_DIR_IN_B+0x32>
	{
		case 'b': DDRB &= mask; break;
     20c:	97 b3       	in	r25, 0x17	; 23
     20e:	80 91 4a 06 	lds	r24, 0x064A
     212:	89 23       	and	r24, r25
     214:	87 bb       	out	0x17, r24	; 23
     216:	08 95       	ret
		case 'c': DDRC &= mask; break;
     218:	94 b3       	in	r25, 0x14	; 20
     21a:	80 91 4a 06 	lds	r24, 0x064A
     21e:	89 23       	and	r24, r25
     220:	84 bb       	out	0x14, r24	; 20
     222:	08 95       	ret
		case 'd': DDRD &= mask; break;
     224:	91 b3       	in	r25, 0x11	; 17
     226:	80 91 4a 06 	lds	r24, 0x064A
     22a:	89 23       	and	r24, r25
     22c:	81 bb       	out	0x11, r24	; 17
     22e:	08 95       	ret

00000230 <OW_OUT_HIGH_B>:
}

//------------------------------------------------------------------------
void OW_OUT_HIGH_B(void)
{
	switch (cur_p)
     230:	80 91 49 06 	lds	r24, 0x0649
     234:	83 36       	cpi	r24, 0x63	; 99
     236:	81 f0       	breq	.+32     	; 0x258 <OW_OUT_HIGH_B+0x28>
     238:	84 36       	cpi	r24, 0x64	; 100
     23a:	d1 f0       	breq	.+52     	; 0x270 <OW_OUT_HIGH_B+0x40>
     23c:	82 36       	cpi	r24, 0x62	; 98
     23e:	21 f5       	brne	.+72     	; 0x288 <OW_OUT_HIGH_B+0x58>
	{
	 	case 'b': PORTB |= (1 << cur_c);
     240:	88 b3       	in	r24, 0x18	; 24
     242:	90 91 4b 06 	lds	r25, 0x064B
     246:	21 e0       	ldi	r18, 0x01	; 1
     248:	30 e0       	ldi	r19, 0x00	; 0
     24a:	02 c0       	rjmp	.+4      	; 0x250 <OW_OUT_HIGH_B+0x20>
     24c:	22 0f       	add	r18, r18
     24e:	33 1f       	adc	r19, r19
     250:	9a 95       	dec	r25
     252:	e2 f7       	brpl	.-8      	; 0x24c <OW_OUT_HIGH_B+0x1c>
     254:	82 2b       	or	r24, r18
     256:	88 bb       	out	0x18, r24	; 24
		case 'c': PORTC |= (1 << cur_c);
     258:	85 b3       	in	r24, 0x15	; 21
     25a:	90 91 4b 06 	lds	r25, 0x064B
     25e:	21 e0       	ldi	r18, 0x01	; 1
     260:	30 e0       	ldi	r19, 0x00	; 0
     262:	02 c0       	rjmp	.+4      	; 0x268 <OW_OUT_HIGH_B+0x38>
     264:	22 0f       	add	r18, r18
     266:	33 1f       	adc	r19, r19
     268:	9a 95       	dec	r25
     26a:	e2 f7       	brpl	.-8      	; 0x264 <OW_OUT_HIGH_B+0x34>
     26c:	82 2b       	or	r24, r18
     26e:	85 bb       	out	0x15, r24	; 21
		case 'd': PORTD |= (1 << cur_c);
     270:	82 b3       	in	r24, 0x12	; 18
     272:	90 91 4b 06 	lds	r25, 0x064B
     276:	21 e0       	ldi	r18, 0x01	; 1
     278:	30 e0       	ldi	r19, 0x00	; 0
     27a:	02 c0       	rjmp	.+4      	; 0x280 <OW_OUT_HIGH_B+0x50>
     27c:	22 0f       	add	r18, r18
     27e:	33 1f       	adc	r19, r19
     280:	9a 95       	dec	r25
     282:	e2 f7       	brpl	.-8      	; 0x27c <OW_OUT_HIGH_B+0x4c>
     284:	82 2b       	or	r24, r18
     286:	82 bb       	out	0x12, r24	; 18
     288:	08 95       	ret

0000028a <ow_bit_io_b>:
	};
}

//------------------------------------------------------------------------
uint8_t ow_bit_io_b( uint8_t b )
{
     28a:	1f 93       	push	r17
     28c:	18 2f       	mov	r17, r24
	cli();
     28e:	f8 94       	cli
	
	OW_DIR_OUT_B(); // drive bus low
     290:	0e 94 cf 00 	call	0x19e	; 0x19e <OW_DIR_OUT_B>
/* delay function for microsec
   4 cpu cycles per loop + 1 cycles(?) overhead 
   when a constant is passed. */
static inline void delayloop16(uint16_t count)
{
	asm volatile (  "cp  %A0,__zero_reg__ \n\t"  \
     294:	82 e0       	ldi	r24, 0x02	; 2
     296:	90 e0       	ldi	r25, 0x00	; 0
     298:	81 15       	cp	r24, r1
     29a:	91 05       	cpc	r25, r1
     29c:	11 f0       	breq	.+4      	; 0x2a2 <L_Exit_299>

0000029e <L_LOOP_299>:
     29e:	01 97       	sbiw	r24, 0x01	; 1
     2a0:	f1 f7       	brne	.-4      	; 0x29e <L_LOOP_299>

000002a2 <L_Exit_299>:
	
	delay_us(1); // Recovery-Time wuffwuff was 1
	if ( b ) OW_DIR_IN_B(); // if bit is 1 set bus high (by ext. pull-up)
     2a2:	11 23       	and	r17, r17
     2a4:	11 f0       	breq	.+4      	; 0x2aa <L_Exit_299+0x8>
     2a6:	0e 94 fe 00 	call	0x1fc	; 0x1fc <OW_DIR_IN_B>
     2aa:	83 e2       	ldi	r24, 0x23	; 35
     2ac:	90 e0       	ldi	r25, 0x00	; 0
     2ae:	81 15       	cp	r24, r1
     2b0:	91 05       	cpc	r25, r1
     2b2:	11 f0       	breq	.+4      	; 0x2b8 <L_Exit_315>

000002b4 <L_LOOP_315>:
     2b4:	01 97       	sbiw	r24, 0x01	; 1
     2b6:	f1 f7       	brne	.-4      	; 0x2b4 <L_LOOP_315>

000002b8 <L_Exit_315>:

	delay_us(15-1-OW_CONF_DELAYOFFSET);
		
	if( OW_GET_IN_B() == 0 ) b = 0;  // sample at end of read-timeslot
     2b8:	0e 94 82 00 	call	0x104	; 0x104 <OW_GET_IN_B>
     2bc:	88 23       	and	r24, r24
     2be:	09 f4       	brne	.+2      	; 0x2c2 <L_Exit_315+0xa>
     2c0:	10 e0       	ldi	r17, 0x00	; 0
     2c2:	8c e7       	ldi	r24, 0x7C	; 124
     2c4:	90 e0       	ldi	r25, 0x00	; 0
     2c6:	81 15       	cp	r24, r1
     2c8:	91 05       	cpc	r25, r1
     2ca:	11 f0       	breq	.+4      	; 0x2d0 <L_Exit_331>

000002cc <L_LOOP_331>:
     2cc:	01 97       	sbiw	r24, 0x01	; 1
     2ce:	f1 f7       	brne	.-4      	; 0x2cc <L_LOOP_331>

000002d0 <L_Exit_331>:
	
	delay_us(60-15);
	OW_DIR_IN_B();
     2d0:	0e 94 fe 00 	call	0x1fc	; 0x1fc <OW_DIR_IN_B>
	
	sei();
     2d4:	78 94       	sei
	
	return b;
}
     2d6:	81 2f       	mov	r24, r17
     2d8:	1f 91       	pop	r17
     2da:	08 95       	ret

000002dc <ow_byte_wr_b>:

//------------------------------------------------------------------------
uint8_t ow_byte_wr_b( uint8_t b )
{
     2dc:	0f 93       	push	r16
     2de:	1f 93       	push	r17
     2e0:	18 2f       	mov	r17, r24
     2e2:	08 e0       	ldi	r16, 0x08	; 8
	uint8_t i = 8, j;
	
	do {
		j = ow_bit_io_b( b & 1 );
     2e4:	81 2f       	mov	r24, r17
     2e6:	81 70       	andi	r24, 0x01	; 1
     2e8:	0e 94 45 01 	call	0x28a	; 0x28a <ow_bit_io_b>
		b >>= 1;
     2ec:	16 95       	lsr	r17
		if( j ) b |= 0x80;
     2ee:	81 11       	cpse	r24, r1
     2f0:	10 68       	ori	r17, 0x80	; 128
	} while( --i );
     2f2:	01 50       	subi	r16, 0x01	; 1
     2f4:	b9 f7       	brne	.-18     	; 0x2e4 <ow_byte_wr_b+0x8>
	
	return b;
}
     2f6:	81 2f       	mov	r24, r17
     2f8:	1f 91       	pop	r17
     2fa:	0f 91       	pop	r16
     2fc:	08 95       	ret

000002fe <ow_byte_rd_b>:

uint8_t ow_byte_rd_b( void )
{
  // read by sending 0xff
  return ow_byte_wr_b( 0xFF ); 
     2fe:	8f ef       	ldi	r24, 0xFF	; 255
     300:	0e 94 6e 01 	call	0x2dc	; 0x2dc <ow_byte_wr_b>
}
     304:	08 95       	ret

00000306 <ow_reset_b>:
	ow_byte_wr_b( command );
}

//------------------------------------------------------------------------
uint8_t ow_reset_b(void)
{
     306:	0f 93       	push	r16
     308:	1f 93       	push	r17
	uint8_t err;
	uint8_t sreg;
	
	OW_OUT_LOW_B(); // disable internal pull-up (maybe on from parasite)
     30a:	0e 94 9d 00 	call	0x13a	; 0x13a <OW_OUT_LOW_B>
	OW_DIR_OUT_B(); // pull OW-Pin low for 480us
     30e:	0e 94 cf 00 	call	0x19e	; 0x19e <OW_DIR_OUT_B>
     312:	85 e3       	ldi	r24, 0x35	; 53
     314:	95 e0       	ldi	r25, 0x05	; 5
     316:	81 15       	cp	r24, r1
     318:	91 05       	cpc	r25, r1
     31a:	11 f0       	breq	.+4      	; 0x320 <L_Exit_407>

0000031c <L_LOOP_407>:
     31c:	01 97       	sbiw	r24, 0x01	; 1
     31e:	f1 f7       	brne	.-4      	; 0x31c <L_LOOP_407>

00000320 <L_Exit_407>:
	
	delay_us(480);
	
	sreg=SREG;
     320:	0f b7       	in	r16, 0x3f	; 63
	cli();
     322:	f8 94       	cli
	
	// set Pin as input - wait for clients to pull low
	OW_DIR_IN_B(); // input
     324:	0e 94 fe 00 	call	0x1fc	; 0x1fc <OW_DIR_IN_B>
     328:	87 eb       	ldi	r24, 0xB7	; 183
     32a:	90 e0       	ldi	r25, 0x00	; 0
     32c:	81 15       	cp	r24, r1
     32e:	91 05       	cpc	r25, r1
     330:	11 f0       	breq	.+4      	; 0x336 <L_Exit_419>

00000332 <L_LOOP_419>:
     332:	01 97       	sbiw	r24, 0x01	; 1
     334:	f1 f7       	brne	.-4      	; 0x332 <L_LOOP_419>

00000336 <L_Exit_419>:
	delay_us(66);
	err = OW_GET_IN_B();		// no presence detect
     336:	0e 94 82 00 	call	0x104	; 0x104 <OW_GET_IN_B>
     33a:	18 2f       	mov	r17, r24
     33c:	8d e7       	ldi	r24, 0x7D	; 125
     33e:	94 e0       	ldi	r25, 0x04	; 4
     340:	81 15       	cp	r24, r1
     342:	91 05       	cpc	r25, r1
     344:	11 f0       	breq	.+4      	; 0x34a <L_Exit_430>

00000346 <L_LOOP_430>:
     346:	01 97       	sbiw	r24, 0x01	; 1
     348:	f1 f7       	brne	.-4      	; 0x346 <L_LOOP_430>

0000034a <L_Exit_430>:
	// nobody pulled to low, still high
	
	// after a delay the clients should release the line
	// and input-pin gets back to high due to pull-up-resistor
	delay_us(480-66);
	if( OW_GET_IN_B() == 0 )		// short circuit
     34a:	0e 94 82 00 	call	0x104	; 0x104 <OW_GET_IN_B>
     34e:	88 23       	and	r24, r24
     350:	09 f4       	brne	.+2      	; 0x354 <L_Exit_430+0xa>
     352:	11 e0       	ldi	r17, 0x01	; 1
		err = 1;
	SREG=sreg;
     354:	0f bf       	out	0x3f, r16	; 63
	sei();
     356:	78 94       	sei
	return err;
}
     358:	81 2f       	mov	r24, r17
     35a:	1f 91       	pop	r17
     35c:	0f 91       	pop	r16
     35e:	08 95       	ret

00000360 <ow_command_simple_b>:
  // read by sending 0xff
  return ow_byte_wr_b( 0xFF ); 
}

void ow_command_simple_b( uint8_t command )
{
     360:	1f 93       	push	r17
     362:	18 2f       	mov	r17, r24
	ow_reset_b();
     364:	0e 94 83 01 	call	0x306	; 0x306 <ow_reset_b>
	ow_byte_wr_b( OW_SKIP_ROM );			// to all devices
     368:	8c ec       	ldi	r24, 0xCC	; 204
     36a:	0e 94 6e 01 	call	0x2dc	; 0x2dc <ow_byte_wr_b>
	ow_byte_wr_b( command );
     36e:	81 2f       	mov	r24, r17
     370:	0e 94 6e 01 	call	0x2dc	; 0x2dc <ow_byte_wr_b>
}
     374:	1f 91       	pop	r17
     376:	08 95       	ret

00000378 <ow_parasite_enable_b>:
}

//------------------------------------------------------------------------
void ow_parasite_enable_b(void)
{
    OW_OUT_HIGH_B();
     378:	0e 94 18 01 	call	0x230	; 0x230 <OW_OUT_HIGH_B>
	OW_DIR_OUT_B();
     37c:	0e 94 cf 00 	call	0x19e	; 0x19e <OW_DIR_OUT_B>
}
     380:	08 95       	ret

00000382 <cur_set>:

//------------------------------------------------------------------------
void cur_set(uint8_t p, uint8_t c)
{
		cur_p = p;
     382:	80 93 49 06 	sts	0x0649, r24
		cur_c = c;
     386:	60 93 4b 06 	sts	0x064B, r22

		mask = (~(1 << c ));
     38a:	81 e0       	ldi	r24, 0x01	; 1
     38c:	90 e0       	ldi	r25, 0x00	; 0
     38e:	02 c0       	rjmp	.+4      	; 0x394 <cur_set+0x12>
     390:	88 0f       	add	r24, r24
     392:	99 1f       	adc	r25, r25
     394:	6a 95       	dec	r22
     396:	e2 f7       	brpl	.-8      	; 0x390 <cur_set+0xe>
     398:	80 95       	com	r24
     39a:	80 93 4a 06 	sts	0x064A, r24
}
     39e:	08 95       	ret

000003a0 <DS18B20_read_meas_single>:

//------------------------------------------------------------------------
uint8_t DS18B20_read_meas_single(uint16_t *meas, uint8_t p, uint8_t c)
{
     3a0:	cf 92       	push	r12
     3a2:	df 92       	push	r13
     3a4:	ef 92       	push	r14
     3a6:	ff 92       	push	r15
     3a8:	0f 93       	push	r16
     3aa:	1f 93       	push	r17
     3ac:	df 93       	push	r29
     3ae:	cf 93       	push	r28
     3b0:	cd b7       	in	r28, 0x3d	; 61
     3b2:	de b7       	in	r29, 0x3e	; 62
     3b4:	29 97       	sbiw	r28, 0x09	; 9
     3b6:	0f b6       	in	r0, 0x3f	; 63
     3b8:	f8 94       	cli
     3ba:	de bf       	out	0x3e, r29	; 62
     3bc:	0f be       	out	0x3f, r0	; 63
     3be:	cd bf       	out	0x3d, r28	; 61
     3c0:	6c 01       	movw	r12, r24
}

//------------------------------------------------------------------------
void cur_set(uint8_t p, uint8_t c)
{
		cur_p = p;
     3c2:	60 93 49 06 	sts	0x0649, r22
		cur_c = c;
     3c6:	40 93 4b 06 	sts	0x064B, r20

		mask = (~(1 << c ));
     3ca:	81 e0       	ldi	r24, 0x01	; 1
     3cc:	90 e0       	ldi	r25, 0x00	; 0
     3ce:	02 c0       	rjmp	.+4      	; 0x3d4 <DS18B20_read_meas_single+0x34>
     3d0:	88 0f       	add	r24, r24
     3d2:	99 1f       	adc	r25, r25
     3d4:	4a 95       	dec	r20
     3d6:	e2 f7       	brpl	.-8      	; 0x3d0 <DS18B20_read_meas_single+0x30>
     3d8:	80 95       	com	r24
     3da:	80 93 4a 06 	sts	0x064A, r24
	uint8_t i;
	uint8_t sp[DS18X20_SP_SIZE];
	
	cur_set(p, c);	

	ow_command_simple_b(DS18X20_READ);
     3de:	8e eb       	ldi	r24, 0xBE	; 190
     3e0:	0e 94 b0 01 	call	0x360	; 0x360 <ow_command_simple_b>
     3e4:	8e 01       	movw	r16, r28
     3e6:	0f 5f       	subi	r16, 0xFF	; 255
     3e8:	1f 4f       	sbci	r17, 0xFF	; 255
	for ( i=0 ; i< DS18X20_SP_SIZE; i++ ) sp[i]=ow_byte_rd_b();
     3ea:	8a e0       	ldi	r24, 0x0A	; 10
     3ec:	e8 2e       	mov	r14, r24
     3ee:	f1 2c       	mov	r15, r1
     3f0:	ec 0e       	add	r14, r28
     3f2:	fd 1e       	adc	r15, r29
     3f4:	0e 94 7f 01 	call	0x2fe	; 0x2fe <ow_byte_rd_b>
     3f8:	f8 01       	movw	r30, r16
     3fa:	81 93       	st	Z+, r24
     3fc:	8f 01       	movw	r16, r30
     3fe:	ee 15       	cp	r30, r14
     400:	ff 05       	cpc	r31, r15
     402:	c1 f7       	brne	.-16     	; 0x3f4 <DS18B20_read_meas_single+0x54>
	if ( crc8( &sp[0], DS18X20_SP_SIZE ) ) 
     404:	ce 01       	movw	r24, r28
     406:	01 96       	adiw	r24, 0x01	; 1
     408:	69 e0       	ldi	r22, 0x09	; 9
     40a:	70 e0       	ldi	r23, 0x00	; 0
     40c:	0e 94 62 00 	call	0xc4	; 0xc4 <crc8>
     410:	88 23       	and	r24, r24
     412:	11 f0       	breq	.+4      	; 0x418 <DS18B20_read_meas_single+0x78>
     414:	83 e0       	ldi	r24, 0x03	; 3
     416:	0a c0       	rjmp	.+20     	; 0x42c <DS18B20_read_meas_single+0x8c>
	{
		return DS18X20_ERROR_CRC;
	}
	else
	{
		*meas = sp[0] | (sp[1]<<8);
     418:	9a 81       	ldd	r25, Y+2	; 0x02
     41a:	80 e0       	ldi	r24, 0x00	; 0
     41c:	29 81       	ldd	r18, Y+1	; 0x01
     41e:	30 e0       	ldi	r19, 0x00	; 0
     420:	82 2b       	or	r24, r18
     422:	93 2b       	or	r25, r19
     424:	f6 01       	movw	r30, r12
     426:	91 83       	std	Z+1, r25	; 0x01
     428:	80 83       	st	Z, r24
     42a:	80 e0       	ldi	r24, 0x00	; 0
		return DS18X20_OK;
	};
}
     42c:	29 96       	adiw	r28, 0x09	; 9
     42e:	0f b6       	in	r0, 0x3f	; 63
     430:	f8 94       	cli
     432:	de bf       	out	0x3e, r29	; 62
     434:	0f be       	out	0x3f, r0	; 63
     436:	cd bf       	out	0x3d, r28	; 61
     438:	cf 91       	pop	r28
     43a:	df 91       	pop	r29
     43c:	1f 91       	pop	r17
     43e:	0f 91       	pop	r16
     440:	ff 90       	pop	r15
     442:	ef 90       	pop	r14
     444:	df 90       	pop	r13
     446:	cf 90       	pop	r12
     448:	08 95       	ret

0000044a <DS18B20_start_meas>:

//------------------------------------------------------------------------
uint8_t DS18B20_start_meas(uint8_t with_power_extern, uint8_t p, uint8_t c)
{
     44a:	1f 93       	push	r17
     44c:	18 2f       	mov	r17, r24
}

//------------------------------------------------------------------------
void cur_set(uint8_t p, uint8_t c)
{
		cur_p = p;
     44e:	60 93 49 06 	sts	0x0649, r22
		cur_c = c;
     452:	40 93 4b 06 	sts	0x064B, r20

		mask = (~(1 << c ));
     456:	81 e0       	ldi	r24, 0x01	; 1
     458:	90 e0       	ldi	r25, 0x00	; 0
     45a:	02 c0       	rjmp	.+4      	; 0x460 <DS18B20_start_meas+0x16>
     45c:	88 0f       	add	r24, r24
     45e:	99 1f       	adc	r25, r25
     460:	4a 95       	dec	r20
     462:	e2 f7       	brpl	.-8      	; 0x45c <DS18B20_start_meas+0x12>
     464:	80 95       	com	r24
     466:	80 93 4a 06 	sts	0x064A, r24
//------------------------------------------------------------------------
uint8_t DS18B20_start_meas(uint8_t with_power_extern, uint8_t p, uint8_t c)
{
	cur_set(p, c);
	
	ow_reset_b(); //
     46a:	0e 94 83 01 	call	0x306	; 0x306 <ow_reset_b>
	if(OW_GET_IN_B()) { // only send if bus is "idle" = high
     46e:	0e 94 82 00 	call	0x104	; 0x104 <OW_GET_IN_B>
     472:	88 23       	and	r24, r24
     474:	11 f4       	brne	.+4      	; 0x47a <DS18B20_start_meas+0x30>
     476:	82 e0       	ldi	r24, 0x02	; 2
     478:	08 c0       	rjmp	.+16     	; 0x48a <DS18B20_start_meas+0x40>
		
		ow_command_simple_b( DS18X20_CONVERT_T);
     47a:	84 e4       	ldi	r24, 0x44	; 68
     47c:	0e 94 b0 01 	call	0x360	; 0x360 <ow_command_simple_b>
		
		if (with_power_extern != DS18X20_POWER_EXTERN)
     480:	11 30       	cpi	r17, 0x01	; 1
     482:	11 f0       	breq	.+4      	; 0x488 <DS18B20_start_meas+0x3e>
			ow_parasite_enable_b();
     484:	0e 94 bc 01 	call	0x378	; 0x378 <ow_parasite_enable_b>
     488:	80 e0       	ldi	r24, 0x00	; 0
		return DS18X20_OK;
	} 
	else { return DS18X20_START_FAIL; };
}
     48a:	1f 91       	pop	r17
     48c:	08 95       	ret

0000048e <i2c_init>:
unsigned char data_i2c_l=0;

void i2c_init(void) // функция инициализации
{
	// настройка выводов
	SETSDA(); 
     48e:	8a 98       	cbi	0x11, 2	; 17
	SETSCL();
     490:	8b 98       	cbi	0x11, 3	; 17
	I2C_PORT&=~SDA;
     492:	92 98       	cbi	0x12, 2	; 18
	I2C_PORT&=~SCL;
     494:	93 98       	cbi	0x12, 3	; 18
}
     496:	08 95       	ret

00000498 <i2c_busy>:

void i2c_busy(void) // функция, проверяющая занятость шины
{
	while(I2C_DDR&(SDA|SCL)); // ожидание 
     498:	81 b3       	in	r24, 0x11	; 17
     49a:	8c 70       	andi	r24, 0x0C	; 12
     49c:	e9 f7       	brne	.-6      	; 0x498 <i2c_busy>
}
     49e:	08 95       	ret

000004a0 <i2c_start>:

void i2c_start(void) // функция формирования сигнала начала передачи данных
{
	SETSDA();		// установка сигнала SDA
     4a0:	8a 98       	cbi	0x11, 2	; 17
	SETSCL();		// установка сигнала SCL
     4a2:	8b 98       	cbi	0x11, 3	; 17
     4a4:	85 e0       	ldi	r24, 0x05	; 5
     4a6:	90 e0       	ldi	r25, 0x00	; 0
     4a8:	fc 01       	movw	r30, r24
     4aa:	e1 15       	cp	r30, r1
     4ac:	f1 05       	cpc	r31, r1
     4ae:	11 f0       	breq	.+4      	; 0x4b4 <L_Exit_689>

000004b0 <L_LOOP_689>:
     4b0:	31 97       	sbiw	r30, 0x01	; 1
     4b2:	f1 f7       	brne	.-4      	; 0x4b0 <L_LOOP_689>

000004b4 <L_Exit_689>:
	delay_us(2);	// задержка
	RSTSDA();		// сброс сигнала SDA
     4b4:	8a 9a       	sbi	0x11, 2	; 17
     4b6:	fc 01       	movw	r30, r24
     4b8:	e1 15       	cp	r30, r1
     4ba:	f1 05       	cpc	r31, r1
     4bc:	11 f0       	breq	.+4      	; 0x4c2 <L_Exit_700>

000004be <L_LOOP_700>:
     4be:	31 97       	sbiw	r30, 0x01	; 1
     4c0:	f1 f7       	brne	.-4      	; 0x4be <L_LOOP_700>

000004c2 <L_Exit_700>:
	delay_us(2);	// задержка
	RSTSCL();		// сброс сигнала SCL
     4c2:	8b 9a       	sbi	0x11, 3	; 17
     4c4:	81 15       	cp	r24, r1
     4c6:	91 05       	cpc	r25, r1
     4c8:	11 f0       	breq	.+4      	; 0x4ce <L_Exit_708>

000004ca <L_LOOP_708>:
     4ca:	01 97       	sbiw	r24, 0x01	; 1
     4cc:	f1 f7       	brne	.-4      	; 0x4ca <L_LOOP_708>

000004ce <L_Exit_708>:
	delay_us(2);	// задержка
}
     4ce:	08 95       	ret

000004d0 <i2c_stop>:

void i2c_stop(void) // функция формирования сигнала завершения обмена данными
{
	RSTSDA();		// сброс сигнала SDA
     4d0:	8a 9a       	sbi	0x11, 2	; 17
	SETSCL();		// установка сигнала SCL
     4d2:	8b 98       	cbi	0x11, 3	; 17
     4d4:	85 e0       	ldi	r24, 0x05	; 5
     4d6:	90 e0       	ldi	r25, 0x00	; 0
     4d8:	fc 01       	movw	r30, r24
     4da:	e1 15       	cp	r30, r1
     4dc:	f1 05       	cpc	r31, r1
     4de:	11 f0       	breq	.+4      	; 0x4e4 <L_Exit_731>

000004e0 <L_LOOP_731>:
     4e0:	31 97       	sbiw	r30, 0x01	; 1
     4e2:	f1 f7       	brne	.-4      	; 0x4e0 <L_LOOP_731>

000004e4 <L_Exit_731>:
	delay_us(2); 	// задержка
	SETSDA();		// установка сигнала SDA
     4e4:	8a 98       	cbi	0x11, 2	; 17
     4e6:	81 15       	cp	r24, r1
     4e8:	91 05       	cpc	r25, r1
     4ea:	11 f0       	breq	.+4      	; 0x4f0 <L_Exit_739>

000004ec <L_LOOP_739>:
     4ec:	01 97       	sbiw	r24, 0x01	; 1
     4ee:	f1 f7       	brne	.-4      	; 0x4ec <L_LOOP_739>

000004f0 <L_Exit_739>:
	delay_us(2); 	// задержка
}
     4f0:	08 95       	ret

000004f2 <i2c_sendbyte>:

unsigned char i2c_sendbyte(char data) // функция посылки 1 байта; параметр – передаваемый байт
{
     4f2:	98 e0       	ldi	r25, 0x08	; 8
     4f4:	25 e0       	ldi	r18, 0x05	; 5
     4f6:	30 e0       	ldi	r19, 0x00	; 0
	unsigned char i=8;	// счетчик бит
	unsigned char acknowledge=0; // подтверждение
	do 
	{	
		// в цикле выполняется посылка 8 бит
		if((data&0x80)!=0) // если старший бит 1
     4f8:	87 ff       	sbrs	r24, 7
     4fa:	02 c0       	rjmp	.+4      	; 0x500 <i2c_sendbyte+0xe>
		{
			SETSDA();	// установка сигнала SDA если старший бит равен 1
     4fc:	8a 98       	cbi	0x11, 2	; 17
     4fe:	01 c0       	rjmp	.+2      	; 0x502 <i2c_sendbyte+0x10>
		}
		else RSTSDA();	// иначе сброс сигнала SDA
     500:	8a 9a       	sbi	0x11, 2	; 17
     502:	45 e0       	ldi	r20, 0x05	; 5
     504:	50 e0       	ldi	r21, 0x00	; 0
     506:	f9 01       	movw	r30, r18
     508:	e1 15       	cp	r30, r1
     50a:	f1 05       	cpc	r31, r1
     50c:	11 f0       	breq	.+4      	; 0x512 <L_Exit_782>

0000050e <L_LOOP_782>:
     50e:	31 97       	sbiw	r30, 0x01	; 1
     510:	f1 f7       	brne	.-4      	; 0x50e <L_LOOP_782>

00000512 <L_Exit_782>:
		data=data << 1;	// сдвиг передаваемого байта на 1 разряд влево
		delay_us(2);	// формирование задержки
		// формирование тактового импульса
		SETSCL(); 		// установка сигнала SCL
     512:	8b 98       	cbi	0x11, 3	; 17
     514:	f9 01       	movw	r30, r18
     516:	e1 15       	cp	r30, r1
     518:	f1 05       	cpc	r31, r1
     51a:	11 f0       	breq	.+4      	; 0x520 <L_Exit_793>

0000051c <L_LOOP_793>:
     51c:	31 97       	sbiw	r30, 0x01	; 1
     51e:	f1 f7       	brne	.-4      	; 0x51c <L_LOOP_793>

00000520 <L_Exit_793>:
		delay_us(2);	// задержка
		RSTSCL();		// сброс сигнала SCL
     520:	8b 9a       	sbi	0x11, 3	; 17
     522:	f9 01       	movw	r30, r18
     524:	e1 15       	cp	r30, r1
     526:	f1 05       	cpc	r31, r1
     528:	11 f0       	breq	.+4      	; 0x52e <L_Exit_804>

0000052a <L_LOOP_804>:
     52a:	31 97       	sbiw	r30, 0x01	; 1
     52c:	f1 f7       	brne	.-4      	; 0x52a <L_LOOP_804>

0000052e <L_Exit_804>:
		delay_us(2);	// задержка 
	}
	while (--i);		// цикл выполняется 8 раз
     52e:	91 50       	subi	r25, 0x01	; 1
     530:	11 f0       	breq	.+4      	; 0x536 <L_Exit_804+0x8>
		if((data&0x80)!=0) // если старший бит 1
		{
			SETSDA();	// установка сигнала SDA если старший бит равен 1
		}
		else RSTSDA();	// иначе сброс сигнала SDA
		data=data << 1;	// сдвиг передаваемого байта на 1 разряд влево
     532:	88 0f       	add	r24, r24
     534:	e1 cf       	rjmp	.-62     	; 0x4f8 <i2c_sendbyte+0x6>
		RSTSCL();		// сброс сигнала SCL
		delay_us(2);	// задержка 
	}
	while (--i);		// цикл выполняется 8 раз
	// формирование тактового импульса для бита подтверждения
	RSTSDA();			// сброс сигала SDA
     536:	8a 9a       	sbi	0x11, 2	; 17
	SETSCL();			// установка сигнала SCL
     538:	8b 98       	cbi	0x11, 3	; 17
     53a:	ca 01       	movw	r24, r20
     53c:	81 15       	cp	r24, r1
     53e:	91 05       	cpc	r25, r1
     540:	11 f0       	breq	.+4      	; 0x546 <L_Exit_828>

00000542 <L_LOOP_828>:
     542:	01 97       	sbiw	r24, 0x01	; 1
     544:	f1 f7       	brne	.-4      	; 0x542 <L_LOOP_828>

00000546 <L_Exit_828>:
	delay_us(2);		// задержка
	// проверка бита подтверждения 
	if((I2C_PIN&SDA)==0) acknowledge=1; // если на линии SDA низкий уровень, бит подтверждения принят
     546:	80 b3       	in	r24, 0x10	; 16
	RSTSCL(); 			// сброс сигнала SCL
     548:	8b 9a       	sbi	0x11, 3	; 17
     54a:	fa 01       	movw	r30, r20
     54c:	e1 15       	cp	r30, r1
     54e:	f1 05       	cpc	r31, r1
     550:	11 f0       	breq	.+4      	; 0x556 <L_Exit_841>

00000552 <L_LOOP_841>:
     552:	31 97       	sbiw	r30, 0x01	; 1
     554:	f1 f7       	brne	.-4      	; 0x552 <L_LOOP_841>

00000556 <L_Exit_841>:
     556:	86 95       	lsr	r24
     558:	86 95       	lsr	r24
     55a:	80 95       	com	r24
	delay_us(2);		// задержка
	return acknowledge; // если бит подтверждения принят, возвр.1
}
     55c:	81 70       	andi	r24, 0x01	; 1
     55e:	08 95       	ret

00000560 <i2c_readbyte>:

unsigned char i2c_readbyte(unsigned char acknowledge) // функция чтения одного байта
{
     560:	68 2f       	mov	r22, r24
	unsigned char i=8; // счетчик
	unsigned char i2c_data=0;	// данные шины
	char data; // состояние порта
	I2C_DDR&=~SDA;			// перевод линии SDA в третье состояние
     562:	8a 98       	cbi	0x11, 2	; 17
     564:	38 e0       	ldi	r19, 0x08	; 8
     566:	20 e0       	ldi	r18, 0x00	; 0
     568:	45 e0       	ldi	r20, 0x05	; 5
     56a:	50 e0       	ldi	r21, 0x00	; 0
	do 
	{
		i2c_data<<=1;		// сдвиг на 1 разряд влево
     56c:	22 0f       	add	r18, r18
		SETSCL(); 			// установка сигнала SCL
     56e:	8b 98       	cbi	0x11, 3	; 17
     570:	ca 01       	movw	r24, r20
     572:	81 15       	cp	r24, r1
     574:	91 05       	cpc	r25, r1
     576:	11 f0       	breq	.+4      	; 0x57c <L_Exit_884>

00000578 <L_LOOP_884>:
     578:	01 97       	sbiw	r24, 0x01	; 1
     57a:	f1 f7       	brne	.-4      	; 0x578 <L_LOOP_884>

0000057c <L_Exit_884>:
		delay_us(2);		// задержка
		data=I2C_PIN;		// считывание состояния порта 
     57c:	80 b3       	in	r24, 0x10	; 16
		data=(data&SDA)>>SDA_N;// выделение 0 бита
     57e:	90 e0       	ldi	r25, 0x00	; 0
     580:	84 70       	andi	r24, 0x04	; 4
     582:	90 70       	andi	r25, 0x00	; 0
     584:	95 95       	asr	r25
     586:	87 95       	ror	r24
     588:	95 95       	asr	r25
     58a:	87 95       	ror	r24
		i2c_data|=data;		// копирование 0 бита в переменную
     58c:	28 2b       	or	r18, r24
		RSTSCL();			// сброс сигнала SCL
     58e:	8b 9a       	sbi	0x11, 3	; 17
     590:	ca 01       	movw	r24, r20
     592:	81 15       	cp	r24, r1
     594:	91 05       	cpc	r25, r1
     596:	11 f0       	breq	.+4      	; 0x59c <L_Exit_905>

00000598 <L_LOOP_905>:
     598:	01 97       	sbiw	r24, 0x01	; 1
     59a:	f1 f7       	brne	.-4      	; 0x598 <L_LOOP_905>

0000059c <L_Exit_905>:
		delay_us(2);		// задержка
	}
	while (--i);			// цикл выполняется 8 раз
     59c:	31 50       	subi	r19, 0x01	; 1
     59e:	31 f7       	brne	.-52     	; 0x56c <i2c_readbyte+0xc>
	if (acknowledge)		// если необходим бит подтверждения
     5a0:	61 11       	cpse	r22, r1
	{
		RSTSDA();			// сброс сигнала SDA
     5a2:	8a 9a       	sbi	0x11, 2	; 17
	}
	// формирование тактового импульса
	SETSCL();			// установка сигнала SCL
     5a4:	8b 98       	cbi	0x11, 3	; 17
     5a6:	85 e0       	ldi	r24, 0x05	; 5
     5a8:	90 e0       	ldi	r25, 0x00	; 0
     5aa:	81 15       	cp	r24, r1
     5ac:	91 05       	cpc	r25, r1
     5ae:	11 f0       	breq	.+4      	; 0x5b4 <L_Exit_927>

000005b0 <L_LOOP_927>:
     5b0:	01 97       	sbiw	r24, 0x01	; 1
     5b2:	f1 f7       	brne	.-4      	; 0x5b0 <L_LOOP_927>

000005b4 <L_Exit_927>:
	delay_us(2); 		// задержка
	RSTSCL();			// сброс сигнала SCL
     5b4:	8b 9a       	sbi	0x11, 3	; 17
	return i2c_data;	// функция возвращает принятый байт
}
     5b6:	82 2f       	mov	r24, r18
     5b8:	08 95       	ret

000005ba <DS_write>:

// ----- функции работы с часами DS1307N ----- //
// функция записи данных
void DS_write(unsigned char addr, unsigned char data)
{
     5ba:	0f 93       	push	r16
     5bc:	1f 93       	push	r17
     5be:	18 2f       	mov	r17, r24
     5c0:	06 2f       	mov	r16, r22
	i2c_start(); // начало передачи
     5c2:	0e 94 50 02 	call	0x4a0	; 0x4a0 <i2c_start>
	i2c_sendbyte(0xD0); // команда
     5c6:	80 ed       	ldi	r24, 0xD0	; 208
     5c8:	0e 94 79 02 	call	0x4f2	; 0x4f2 <i2c_sendbyte>
	i2c_sendbyte(addr); // адрес
     5cc:	81 2f       	mov	r24, r17
     5ce:	0e 94 79 02 	call	0x4f2	; 0x4f2 <i2c_sendbyte>
	i2c_sendbyte(data); // данные
     5d2:	80 2f       	mov	r24, r16
     5d4:	0e 94 79 02 	call	0x4f2	; 0x4f2 <i2c_sendbyte>
	i2c_stop(); // конец передачи
     5d8:	0e 94 68 02 	call	0x4d0	; 0x4d0 <i2c_stop>
}
     5dc:	1f 91       	pop	r17
     5de:	0f 91       	pop	r16
     5e0:	08 95       	ret

000005e2 <DS_read>:

// функция чтения данных
unsigned char DS_read(unsigned char addr)
{
     5e2:	1f 93       	push	r17
     5e4:	18 2f       	mov	r17, r24
	unsigned char temp;
	i2c_start(); // начало передачи 
     5e6:	0e 94 50 02 	call	0x4a0	; 0x4a0 <i2c_start>
	i2c_sendbyte(0xD0); // команда
     5ea:	80 ed       	ldi	r24, 0xD0	; 208
     5ec:	0e 94 79 02 	call	0x4f2	; 0x4f2 <i2c_sendbyte>
	i2c_sendbyte(addr); // адрес
     5f0:	81 2f       	mov	r24, r17
     5f2:	0e 94 79 02 	call	0x4f2	; 0x4f2 <i2c_sendbyte>
	i2c_stop(); // конец передачи
     5f6:	0e 94 68 02 	call	0x4d0	; 0x4d0 <i2c_stop>
	i2c_start(); // начало передачи
     5fa:	0e 94 50 02 	call	0x4a0	; 0x4a0 <i2c_start>
	i2c_sendbyte(0xD1); // команда
     5fe:	81 ed       	ldi	r24, 0xD1	; 209
     600:	0e 94 79 02 	call	0x4f2	; 0x4f2 <i2c_sendbyte>
	temp=i2c_readbyte(0); // данные
     604:	80 e0       	ldi	r24, 0x00	; 0
     606:	0e 94 b0 02 	call	0x560	; 0x560 <i2c_readbyte>
     60a:	18 2f       	mov	r17, r24
	i2c_stop(); // конец передачи
     60c:	0e 94 68 02 	call	0x4d0	; 0x4d0 <i2c_stop>
	return temp; // вернуть значение
}
     610:	81 2f       	mov	r24, r17
     612:	1f 91       	pop	r17
     614:	08 95       	ret

00000616 <DS1307_init>:

void DS1307_init(void) // инициализация DS1307N
{
	unsigned char i=0;
	i=DS_read(0x02);
     616:	82 e0       	ldi	r24, 0x02	; 2
     618:	0e 94 f1 02 	call	0x5e2	; 0x5e2 <DS_read>
     61c:	68 2f       	mov	r22, r24
	if((i&0x40)!=0)
     61e:	86 ff       	sbrs	r24, 6
     620:	04 c0       	rjmp	.+8      	; 0x62a <DS1307_init+0x14>
	{
		DS_write(0x02,i&~0x40);
     622:	6f 7b       	andi	r22, 0xBF	; 191
     624:	82 e0       	ldi	r24, 0x02	; 2
     626:	0e 94 dd 02 	call	0x5ba	; 0x5ba <DS_write>
	}
	i=DS_read(0x00);
     62a:	80 e0       	ldi	r24, 0x00	; 0
     62c:	0e 94 f1 02 	call	0x5e2	; 0x5e2 <DS_read>
     630:	68 2f       	mov	r22, r24
	if((i&0x80)!=0)
     632:	87 ff       	sbrs	r24, 7
     634:	04 c0       	rjmp	.+8      	; 0x63e <DS1307_init+0x28>
	{
		DS_write(0x00,i&~0x80);
     636:	6f 77       	andi	r22, 0x7F	; 127
     638:	80 e0       	ldi	r24, 0x00	; 0
     63a:	0e 94 dd 02 	call	0x5ba	; 0x5ba <DS_write>
     63e:	08 95       	ret

00000640 <DS1307>:
	}
}

void DS1307(void) // функция опроса
{
	i2c_start();
     640:	0e 94 50 02 	call	0x4a0	; 0x4a0 <i2c_start>
	i2c_sendbyte(0xD0);
     644:	80 ed       	ldi	r24, 0xD0	; 208
     646:	0e 94 79 02 	call	0x4f2	; 0x4f2 <i2c_sendbyte>
	i2c_sendbyte(0x00);
     64a:	80 e0       	ldi	r24, 0x00	; 0
     64c:	0e 94 79 02 	call	0x4f2	; 0x4f2 <i2c_sendbyte>
	i2c_start();
     650:	0e 94 50 02 	call	0x4a0	; 0x4a0 <i2c_start>
	i2c_sendbyte(0xD1);
     654:	81 ed       	ldi	r24, 0xD1	; 209
     656:	0e 94 79 02 	call	0x4f2	; 0x4f2 <i2c_sendbyte>
	buffer_ds[0]=i2c_readbyte(1);
     65a:	81 e0       	ldi	r24, 0x01	; 1
     65c:	0e 94 b0 02 	call	0x560	; 0x560 <i2c_readbyte>
     660:	80 93 50 06 	sts	0x0650, r24
	buffer_ds[1]=i2c_readbyte(1);
     664:	81 e0       	ldi	r24, 0x01	; 1
     666:	0e 94 b0 02 	call	0x560	; 0x560 <i2c_readbyte>
     66a:	80 93 51 06 	sts	0x0651, r24
	buffer_ds[2]=i2c_readbyte(0);
     66e:	80 e0       	ldi	r24, 0x00	; 0
     670:	0e 94 b0 02 	call	0x560	; 0x560 <i2c_readbyte>
     674:	80 93 52 06 	sts	0x0652, r24
	i2c_stop();
     678:	0e 94 68 02 	call	0x4d0	; 0x4d0 <i2c_stop>
}
     67c:	08 95       	ret

0000067e <IntToDec>:

unsigned char IntToDec(unsigned char data) // преобразование в десятичное число
{
	data=data%100;
     67e:	64 e6       	ldi	r22, 0x64	; 100
     680:	0e 94 17 30 	call	0x602e	; 0x602e <__udivmodqi4>
     684:	49 2f       	mov	r20, r25
     686:	89 2f       	mov	r24, r25
     688:	6a e0       	ldi	r22, 0x0A	; 10
     68a:	0e 94 17 30 	call	0x602e	; 0x602e <__udivmodqi4>
     68e:	28 2f       	mov	r18, r24
     690:	30 e0       	ldi	r19, 0x00	; 0
     692:	e4 e0       	ldi	r30, 0x04	; 4
     694:	22 0f       	add	r18, r18
     696:	33 1f       	adc	r19, r19
     698:	ea 95       	dec	r30
     69a:	e1 f7       	brne	.-8      	; 0x694 <IntToDec+0x16>
     69c:	84 2f       	mov	r24, r20
     69e:	0e 94 17 30 	call	0x602e	; 0x602e <__udivmodqi4>
	return data/10*16+data%10;
}
     6a2:	89 2f       	mov	r24, r25
     6a4:	82 0f       	add	r24, r18
     6a6:	08 95       	ret

000006a8 <DS1307_set_time>:

void DS1307_set_time(void) // функция опроса
{
	DS_write(0x02,IntToDec(buffer_time[0])); // часы
     6a8:	80 91 4d 06 	lds	r24, 0x064D
     6ac:	0e 94 3f 03 	call	0x67e	; 0x67e <IntToDec>
     6b0:	68 2f       	mov	r22, r24
     6b2:	82 e0       	ldi	r24, 0x02	; 2
     6b4:	0e 94 dd 02 	call	0x5ba	; 0x5ba <DS_write>
	DS_write(0x01,IntToDec(buffer_time[1])); // минуты
     6b8:	80 91 4e 06 	lds	r24, 0x064E
     6bc:	0e 94 3f 03 	call	0x67e	; 0x67e <IntToDec>
     6c0:	68 2f       	mov	r22, r24
     6c2:	81 e0       	ldi	r24, 0x01	; 1
     6c4:	0e 94 dd 02 	call	0x5ba	; 0x5ba <DS_write>
	DS_write(0x00,IntToDec(buffer_time[2])); // секунды
     6c8:	80 91 4f 06 	lds	r24, 0x064F
     6cc:	0e 94 3f 03 	call	0x67e	; 0x67e <IntToDec>
     6d0:	68 2f       	mov	r22, r24
     6d2:	80 e0       	ldi	r24, 0x00	; 0
     6d4:	0e 94 dd 02 	call	0x5ba	; 0x5ba <DS_write>
}
     6d8:	08 95       	ret

000006da <usart_init>:
}
// инициализация USART
void usart_init(void)
{
	// инициализация выводов
	USART_DDR&=~RX;
     6da:	88 98       	cbi	0x11, 0	; 17
	USART_DDR|=TX;
     6dc:	89 9a       	sbi	0x11, 1	; 17
	// запись значения скорости передачи
	UBRRL = LO(bauddivider);
     6de:	87 e4       	ldi	r24, 0x47	; 71
     6e0:	89 b9       	out	0x09, r24	; 9
	UBRRH = HI(bauddivider);
     6e2:	10 bc       	out	0x20, r1	; 32
	// инициализация регистров управления
	UCSRA = 0;
     6e4:	1b b8       	out	0x0b, r1	; 11
	UCSRB = 1<<RXEN| // включить прием
     6e6:	88 ed       	ldi	r24, 0xD8	; 216
     6e8:	8a b9       	out	0x0a, r24	; 10
			1<<TXEN| // включить передачу
			1<<RXCIE| // включить прерывание по приему
			1<<TXCIE; // включить прерывание по передаче
	UCSRC = 1<<URSEL| // запись в регистр UCSRC
     6ea:	86 e8       	ldi	r24, 0x86	; 134
     6ec:	80 bd       	out	0x20, r24	; 32
			1<<UCSZ0| // размер данных 8 бит
			1<<UCSZ1;
}
     6ee:	08 95       	ret

000006f0 <buffer_out>:
// функция вывода буффера
void buffer_out(void)
{
	buffer_index++;	// увеличение индекса
     6f0:	80 91 0a 05 	lds	r24, 0x050A
     6f4:	90 91 0b 05 	lds	r25, 0x050B
     6f8:	01 96       	adiw	r24, 0x01	; 1
     6fa:	90 93 0b 05 	sts	0x050B, r25
     6fe:	80 93 0a 05 	sts	0x050A, r24
	if(buffer_index==usart_data_in_num) // если вывели весь буффер
     702:	20 91 0a 05 	lds	r18, 0x050A
     706:	30 91 0b 05 	lds	r19, 0x050B
     70a:	80 91 0f 05 	lds	r24, 0x050F
     70e:	90 91 10 05 	lds	r25, 0x0510
     712:	28 17       	cp	r18, r24
     714:	39 07       	cpc	r19, r25
     716:	31 f4       	brne	.+12     	; 0x724 <buffer_out+0x34>
	{
		TRANSMIT=0x00;
     718:	10 92 0c 05 	sts	0x050C, r1
		UCSRB &=~(1<<TXEN); // выключить передачу
     71c:	53 98       	cbi	0x0a, 3	; 10
		UCSRB &=~(1<<UDRIE); // запрещаем прерывание по опустошению - передача закончена
     71e:	55 98       	cbi	0x0a, 5	; 10
		UCSRA &=~(1<<TXC);	 // вручную сбрасываем флаг TXC - переход на прерывание по завершению передачи
     720:	5e 98       	cbi	0x0b, 6	; 11
     722:	08 95       	ret
	}
	else // продолжаем выводить буффер
	{
		UDR = buffer[buffer_index];	// берем данные из буффера. 
     724:	e0 91 0a 05 	lds	r30, 0x050A
     728:	f0 91 0b 05 	lds	r31, 0x050B
     72c:	eb 59       	subi	r30, 0x9B	; 155
     72e:	ff 4f       	sbci	r31, 0xFF	; 255
     730:	80 81       	ld	r24, Z
     732:	8c b9       	out	0x0c, r24	; 12
     734:	08 95       	ret

00000736 <__vector_14>:
void buffer_out(void);
void buffer_start(void);

// прерывание по опустошению буффера
ISR (USART_UDRE_vect)		
{
     736:	1f 92       	push	r1
     738:	0f 92       	push	r0
     73a:	0f b6       	in	r0, 0x3f	; 63
     73c:	0f 92       	push	r0
     73e:	11 24       	eor	r1, r1
     740:	2f 93       	push	r18
     742:	3f 93       	push	r19
     744:	4f 93       	push	r20
     746:	5f 93       	push	r21
     748:	6f 93       	push	r22
     74a:	7f 93       	push	r23
     74c:	8f 93       	push	r24
     74e:	9f 93       	push	r25
     750:	af 93       	push	r26
     752:	bf 93       	push	r27
     754:	ef 93       	push	r30
     756:	ff 93       	push	r31
	buffer_out();
     758:	0e 94 78 03 	call	0x6f0	; 0x6f0 <buffer_out>
}
     75c:	ff 91       	pop	r31
     75e:	ef 91       	pop	r30
     760:	bf 91       	pop	r27
     762:	af 91       	pop	r26
     764:	9f 91       	pop	r25
     766:	8f 91       	pop	r24
     768:	7f 91       	pop	r23
     76a:	6f 91       	pop	r22
     76c:	5f 91       	pop	r21
     76e:	4f 91       	pop	r20
     770:	3f 91       	pop	r19
     772:	2f 91       	pop	r18
     774:	0f 90       	pop	r0
     776:	0f be       	out	0x3f, r0	; 63
     778:	0f 90       	pop	r0
     77a:	1f 90       	pop	r1
     77c:	18 95       	reti

0000077e <buffer_start>:
	}
}
// функция начала передачи буффера
void buffer_start(void)
{
	buffer_index=0;	   // сбрасываем индекс
     77e:	10 92 0b 05 	sts	0x050B, r1
     782:	10 92 0a 05 	sts	0x050A, r1
	UCSRB|=(1<<TXEN); // включить передачу
     786:	53 9a       	sbi	0x0a, 3	; 10
	UDR = buffer[0];   // отправляем первый байт
     788:	80 91 65 00 	lds	r24, 0x0065
     78c:	8c b9       	out	0x0c, r24	; 12
	UCSRB|=(1<<UDRIE); // разрешаем прерывание UDRE	
     78e:	55 9a       	sbi	0x0a, 5	; 10
     790:	08 95       	ret

00000792 <__vector_15>:
	usart_count++;
}

// прерывание по завершению передачи
ISR (USART_TXC_vect)
{
     792:	1f 92       	push	r1
     794:	0f 92       	push	r0
     796:	0f b6       	in	r0, 0x3f	; 63
     798:	0f 92       	push	r0
     79a:	11 24       	eor	r1, r1
     79c:	2f 93       	push	r18
     79e:	3f 93       	push	r19
     7a0:	4f 93       	push	r20
     7a2:	5f 93       	push	r21
     7a4:	6f 93       	push	r22
     7a6:	7f 93       	push	r23
     7a8:	8f 93       	push	r24
     7aa:	9f 93       	push	r25
     7ac:	af 93       	push	r26
     7ae:	bf 93       	push	r27
     7b0:	ef 93       	push	r30
     7b2:	ff 93       	push	r31
    if(TRANSMIT) buffer_start(); // начало передачи
     7b4:	80 91 0c 05 	lds	r24, 0x050C
     7b8:	88 23       	and	r24, r24
     7ba:	11 f0       	breq	.+4      	; 0x7c0 <__vector_15+0x2e>
     7bc:	0e 94 bf 03 	call	0x77e	; 0x77e <buffer_start>
}
     7c0:	ff 91       	pop	r31
     7c2:	ef 91       	pop	r30
     7c4:	bf 91       	pop	r27
     7c6:	af 91       	pop	r26
     7c8:	9f 91       	pop	r25
     7ca:	8f 91       	pop	r24
     7cc:	7f 91       	pop	r23
     7ce:	6f 91       	pop	r22
     7d0:	5f 91       	pop	r21
     7d2:	4f 91       	pop	r20
     7d4:	3f 91       	pop	r19
     7d6:	2f 91       	pop	r18
     7d8:	0f 90       	pop	r0
     7da:	0f be       	out	0x3f, r0	; 63
     7dc:	0f 90       	pop	r0
     7de:	1f 90       	pop	r1
     7e0:	18 95       	reti

000007e2 <__vector_13>:
{
	buffer_out();
}
// прерывание по завершению приема
ISR (USART_RXC_vect)		
{
     7e2:	1f 92       	push	r1
     7e4:	0f 92       	push	r0
     7e6:	0f b6       	in	r0, 0x3f	; 63
     7e8:	0f 92       	push	r0
     7ea:	11 24       	eor	r1, r1
     7ec:	2f 93       	push	r18
     7ee:	3f 93       	push	r19
     7f0:	4f 93       	push	r20
     7f2:	5f 93       	push	r21
     7f4:	6f 93       	push	r22
     7f6:	7f 93       	push	r23
     7f8:	8f 93       	push	r24
     7fa:	9f 93       	push	r25
     7fc:	af 93       	push	r26
     7fe:	bf 93       	push	r27
     800:	ef 93       	push	r30
     802:	ff 93       	push	r31
	usart_data_in[usart_count]=UDR;
     804:	e0 91 0d 05 	lds	r30, 0x050D
     808:	f0 91 0e 05 	lds	r31, 0x050E
     80c:	8c b1       	in	r24, 0x0c	; 12
     80e:	eb 59       	subi	r30, 0x9B	; 155
     810:	fd 4f       	sbci	r31, 0xFD	; 253
     812:	80 83       	st	Z, r24
	if(usart_data_in[usart_count]==0x3B) 
     814:	e0 91 0d 05 	lds	r30, 0x050D
     818:	f0 91 0e 05 	lds	r31, 0x050E
     81c:	eb 59       	subi	r30, 0x9B	; 155
     81e:	fd 4f       	sbci	r31, 0xFD	; 253
     820:	80 81       	ld	r24, Z
     822:	8b 33       	cpi	r24, 0x3B	; 59
     824:	59 f4       	brne	.+22     	; 0x83c <__vector_13+0x5a>
	{
		usart_count=0;
     826:	10 92 0e 05 	sts	0x050E, r1
     82a:	10 92 0d 05 	sts	0x050D, r1
		usart_data_in[usart_count]=0x3B;
     82e:	e0 91 0d 05 	lds	r30, 0x050D
     832:	f0 91 0e 05 	lds	r31, 0x050E
     836:	eb 59       	subi	r30, 0x9B	; 155
     838:	fd 4f       	sbci	r31, 0xFD	; 253
     83a:	80 83       	st	Z, r24
	}
	if(usart_data_in[usart_count]==0xB3) 
     83c:	e0 91 0d 05 	lds	r30, 0x050D
     840:	f0 91 0e 05 	lds	r31, 0x050E
     844:	eb 59       	subi	r30, 0x9B	; 155
     846:	fd 4f       	sbci	r31, 0xFD	; 253
     848:	80 81       	ld	r24, Z
     84a:	83 3b       	cpi	r24, 0xB3	; 179
     84c:	31 f5       	brne	.+76     	; 0x89a <__stack+0x3b>
	{
		TRANSMIT=0x01; // разрешение передачи
     84e:	81 e0       	ldi	r24, 0x01	; 1
     850:	80 93 0c 05 	sts	0x050C, r24
     854:	20 e0       	ldi	r18, 0x00	; 0
     856:	30 e0       	ldi	r19, 0x00	; 0
     858:	0a c0       	rjmp	.+20     	; 0x86e <__stack+0xf>
		for(int i=0;i<=usart_count;i++)
		{
			buffer[i]=usart_data_in[i];
     85a:	f9 01       	movw	r30, r18
     85c:	eb 59       	subi	r30, 0x9B	; 155
     85e:	fd 4f       	sbci	r31, 0xFD	; 253
     860:	80 81       	ld	r24, Z
     862:	f9 01       	movw	r30, r18
     864:	eb 59       	subi	r30, 0x9B	; 155
     866:	ff 4f       	sbci	r31, 0xFF	; 255
     868:	80 83       	st	Z, r24
		usart_data_in[usart_count]=0x3B;
	}
	if(usart_data_in[usart_count]==0xB3) 
	{
		TRANSMIT=0x01; // разрешение передачи
		for(int i=0;i<=usart_count;i++)
     86a:	2f 5f       	subi	r18, 0xFF	; 255
     86c:	3f 4f       	sbci	r19, 0xFF	; 255
     86e:	80 91 0d 05 	lds	r24, 0x050D
     872:	90 91 0e 05 	lds	r25, 0x050E
     876:	82 17       	cp	r24, r18
     878:	93 07       	cpc	r25, r19
     87a:	78 f7       	brcc	.-34     	; 0x85a <__vector_13+0x78>
		{
			buffer[i]=usart_data_in[i];
		}
		usart_data_in_num=usart_count+1;
     87c:	80 91 0d 05 	lds	r24, 0x050D
     880:	90 91 0e 05 	lds	r25, 0x050E
     884:	01 96       	adiw	r24, 0x01	; 1
     886:	90 93 10 05 	sts	0x0510, r25
     88a:	80 93 0f 05 	sts	0x050F, r24
		buffer_start();
     88e:	0e 94 bf 03 	call	0x77e	; 0x77e <buffer_start>
		usart_count=0;
     892:	10 92 0e 05 	sts	0x050E, r1
     896:	10 92 0d 05 	sts	0x050D, r1
	}
	usart_count++;
     89a:	80 91 0d 05 	lds	r24, 0x050D
     89e:	90 91 0e 05 	lds	r25, 0x050E
     8a2:	01 96       	adiw	r24, 0x01	; 1
     8a4:	90 93 0e 05 	sts	0x050E, r25
     8a8:	80 93 0d 05 	sts	0x050D, r24
}
     8ac:	ff 91       	pop	r31
     8ae:	ef 91       	pop	r30
     8b0:	bf 91       	pop	r27
     8b2:	af 91       	pop	r26
     8b4:	9f 91       	pop	r25
     8b6:	8f 91       	pop	r24
     8b8:	7f 91       	pop	r23
     8ba:	6f 91       	pop	r22
     8bc:	5f 91       	pop	r21
     8be:	4f 91       	pop	r20
     8c0:	3f 91       	pop	r19
     8c2:	2f 91       	pop	r18
     8c4:	0f 90       	pop	r0
     8c6:	0f be       	out	0x3f, r0	; 63
     8c8:	0f 90       	pop	r0
     8ca:	1f 90       	pop	r1
     8cc:	18 95       	reti

000008ce <write>:
	_delay_ms(40); // задержка
}

void write() // функция записи данных ЖКИ
{
	LCD_E(); // установка строба
     8ce:	ae 9a       	sbi	0x15, 6	; 21
    milliseconds can be achieved.
 */
void
_delay_loop_2(uint16_t __count)
{
	__asm__ volatile (
     8d0:	88 e2       	ldi	r24, 0x28	; 40
     8d2:	92 e0       	ldi	r25, 0x02	; 2
     8d4:	fc 01       	movw	r30, r24
     8d6:	31 97       	sbiw	r30, 0x01	; 1
     8d8:	f1 f7       	brne	.-4      	; 0x8d6 <write+0x8>
	_delay_us(delay); 
	LCD_NE(); // сброс строба
     8da:	ae 98       	cbi	0x15, 6	; 21
     8dc:	01 97       	sbiw	r24, 0x01	; 1
     8de:	f1 f7       	brne	.-4      	; 0x8dc <write+0xe>
	_delay_us(delay);
}
     8e0:	08 95       	ret

000008e2 <comand_to_LCD>:

void comand_to_LCD(unsigned char data_in) // функция отправки команд ЖКИ
{
     8e2:	1f 93       	push	r17
     8e4:	18 2f       	mov	r17, r24
	LCD_NRS(); // сбросить сигнал данные/команда
     8e6:	af 98       	cbi	0x15, 7	; 21
     8e8:	88 e2       	ldi	r24, 0x28	; 40
     8ea:	92 e0       	ldi	r25, 0x02	; 2
     8ec:	01 97       	sbiw	r24, 0x01	; 1
     8ee:	f1 f7       	brne	.-4      	; 0x8ec <comand_to_LCD+0xa>
	_delay_us(delay);
	// отправить старшую тетраду
	LCD_DATA_PORT=(data_in&0xF0)|(LCD_DATA_PIN&DATA_MASK);
     8f0:	89 b3       	in	r24, 0x19	; 25
     8f2:	91 2f       	mov	r25, r17
     8f4:	90 7f       	andi	r25, 0xF0	; 240
     8f6:	8f 70       	andi	r24, 0x0F	; 15
     8f8:	98 2b       	or	r25, r24
     8fa:	9b bb       	out	0x1b, r25	; 27
	write(); 
     8fc:	0e 94 67 04 	call	0x8ce	; 0x8ce <write>
	// отправить младшую тетраду
	LCD_DATA_PORT=(data_in<<4)|(LCD_DATA_PIN&DATA_MASK);
     900:	89 b3       	in	r24, 0x19	; 25
     902:	12 95       	swap	r17
     904:	10 7f       	andi	r17, 0xF0	; 240
     906:	8f 70       	andi	r24, 0x0F	; 15
     908:	81 2b       	or	r24, r17
     90a:	8b bb       	out	0x1b, r24	; 27
	write(); 
     90c:	0e 94 67 04 	call	0x8ce	; 0x8ce <write>
}
     910:	1f 91       	pop	r17
     912:	08 95       	ret

00000914 <init_LCD>:
void data_to_LCD(unsigned char data_in); // отправить данные ЖКИ
void comand_to_LCD(unsigned char data_in); // отправкить команду ЖКИ
void string_to_LCD(unsigned char line, unsigned char pos, char str[]); // вывести строку ЖКИ

void init_LCD() // функция инициализации ЖКИ
{
     914:	1f 93       	push	r17
	// конфигурация выводовд
	LCD_SYGNAL_DDR |= RS; 
     916:	a7 9a       	sbi	0x14, 7	; 20
	LCD_SYGNAL_DDR |= E; 
     918:	a6 9a       	sbi	0x14, 6	; 20
	
	// инициализация ЖКИ
	LCD_NRS();
     91a:	af 98       	cbi	0x15, 7	; 21
     91c:	88 e2       	ldi	r24, 0x28	; 40
     91e:	92 e0       	ldi	r25, 0x02	; 2
     920:	01 97       	sbiw	r24, 0x01	; 1
     922:	f1 f7       	brne	.-4      	; 0x920 <init_LCD+0xc>
	_delay_us(delay);
	LCD_DATA_PORT=0b00100000|(LCD_DATA_PIN&DATA_MASK); // установить значение
     924:	89 b3       	in	r24, 0x19	; 25
     926:	8f 70       	andi	r24, 0x0F	; 15
     928:	80 62       	ori	r24, 0x20	; 32
     92a:	8b bb       	out	0x1b, r24	; 27
	write(); // запись
     92c:	0e 94 67 04 	call	0x8ce	; 0x8ce <write>
	comand_to_LCD(0b00101000); _delay_us(40);
     930:	88 e2       	ldi	r24, 0x28	; 40
     932:	0e 94 71 04 	call	0x8e2	; 0x8e2 <comand_to_LCD>
    can be achieved.
*/
void
_delay_loop_1(uint8_t __count)
{
	__asm__ volatile (
     936:	13 e9       	ldi	r17, 0x93	; 147
     938:	81 2f       	mov	r24, r17
     93a:	8a 95       	dec	r24
     93c:	f1 f7       	brne	.-4      	; 0x93a <init_LCD+0x26>
	comand_to_LCD(0b00001100); _delay_us(40);
     93e:	8c e0       	ldi	r24, 0x0C	; 12
     940:	0e 94 71 04 	call	0x8e2	; 0x8e2 <comand_to_LCD>
     944:	81 2f       	mov	r24, r17
     946:	8a 95       	dec	r24
     948:	f1 f7       	brne	.-4      	; 0x946 <init_LCD+0x32>
	comand_to_LCD(0b00000001); _delay_ms(2);
     94a:	81 e0       	ldi	r24, 0x01	; 1
     94c:	0e 94 71 04 	call	0x8e2	; 0x8e2 <comand_to_LCD>
    milliseconds can be achieved.
 */
void
_delay_loop_2(uint16_t __count)
{
	__asm__ volatile (
     950:	89 e9       	ldi	r24, 0x99	; 153
     952:	95 e1       	ldi	r25, 0x15	; 21
     954:	01 97       	sbiw	r24, 0x01	; 1
     956:	f1 f7       	brne	.-4      	; 0x954 <init_LCD+0x40>
	comand_to_LCD(0b00000110); _delay_us(40); 	
     958:	86 e0       	ldi	r24, 0x06	; 6
     95a:	0e 94 71 04 	call	0x8e2	; 0x8e2 <comand_to_LCD>
    can be achieved.
*/
void
_delay_loop_1(uint8_t __count)
{
	__asm__ volatile (
     95e:	1a 95       	dec	r17
     960:	f1 f7       	brne	.-4      	; 0x95e <init_LCD+0x4a>
     962:	80 e9       	ldi	r24, 0x90	; 144
     964:	91 e0       	ldi	r25, 0x01	; 1
    milliseconds can be achieved.
 */
void
_delay_loop_2(uint16_t __count)
{
	__asm__ volatile (
     966:	24 e1       	ldi	r18, 0x14	; 20
     968:	31 e0       	ldi	r19, 0x01	; 1
     96a:	f9 01       	movw	r30, r18
     96c:	31 97       	sbiw	r30, 0x01	; 1
     96e:	f1 f7       	brne	.-4      	; 0x96c <init_LCD+0x58>
		__ticks = (uint16_t) (__ms * 10.0);
		while(__ticks)
		{
			// wait 1/10 ms
			_delay_loop_2(((F_CPU) / 4e3) / 10);
			__ticks --;
     970:	01 97       	sbiw	r24, 0x01	; 1
		__ticks = 1;
	else if (__tmp > 65535)
	{
		//	__ticks = requested delay in 1/10 ms
		__ticks = (uint16_t) (__ms * 10.0);
		while(__ticks)
     972:	d9 f7       	brne	.-10     	; 0x96a <init_LCD+0x56>
	_delay_ms(40); // задержка
}
     974:	1f 91       	pop	r17
     976:	08 95       	ret

00000978 <data_to_LCD>:
	LCD_DATA_PORT=(data_in<<4)|(LCD_DATA_PIN&DATA_MASK);
	write(); 
}

void data_to_LCD(unsigned char data_in) // функция отправки данных ЖКИ
{
     978:	1f 93       	push	r17
     97a:	18 2f       	mov	r17, r24
	LCD_RS(); // установить сигнал данные/команда
     97c:	af 9a       	sbi	0x15, 7	; 21
     97e:	88 e2       	ldi	r24, 0x28	; 40
     980:	92 e0       	ldi	r25, 0x02	; 2
     982:	01 97       	sbiw	r24, 0x01	; 1
     984:	f1 f7       	brne	.-4      	; 0x982 <data_to_LCD+0xa>
	_delay_us(delay);
	// отправить старшую тетраду
	LCD_DATA_PORT=(data_in&0xF0)|(LCD_DATA_PIN&DATA_MASK);
     986:	89 b3       	in	r24, 0x19	; 25
     988:	91 2f       	mov	r25, r17
     98a:	90 7f       	andi	r25, 0xF0	; 240
     98c:	8f 70       	andi	r24, 0x0F	; 15
     98e:	98 2b       	or	r25, r24
     990:	9b bb       	out	0x1b, r25	; 27
	write();
     992:	0e 94 67 04 	call	0x8ce	; 0x8ce <write>
	// отправить младшую тетраду
	LCD_DATA_PORT=(data_in<<4)|(LCD_DATA_PIN&DATA_MASK);
     996:	89 b3       	in	r24, 0x19	; 25
     998:	12 95       	swap	r17
     99a:	10 7f       	andi	r17, 0xF0	; 240
     99c:	8f 70       	andi	r24, 0x0F	; 15
     99e:	81 2b       	or	r24, r17
     9a0:	8b bb       	out	0x1b, r24	; 27
	write(); 
     9a2:	0e 94 67 04 	call	0x8ce	; 0x8ce <write>
}
     9a6:	1f 91       	pop	r17
     9a8:	08 95       	ret

000009aa <string_to_LCD>:

void string_to_LCD(unsigned char line, unsigned char pos, char str[]) // функция вывода строк ЖКИ
{
     9aa:	0f 93       	push	r16
     9ac:	1f 93       	push	r17
     9ae:	cf 93       	push	r28
     9b0:	df 93       	push	r29
     9b2:	8a 01       	movw	r16, r20
	switch(line) // выбор отображаемой строки
     9b4:	82 30       	cpi	r24, 0x02	; 2
     9b6:	61 f0       	breq	.+24     	; 0x9d0 <string_to_LCD+0x26>
     9b8:	83 30       	cpi	r24, 0x03	; 3
     9ba:	18 f4       	brcc	.+6      	; 0x9c2 <string_to_LCD+0x18>
     9bc:	81 30       	cpi	r24, 0x01	; 1
     9be:	69 f4       	brne	.+26     	; 0x9da <string_to_LCD+0x30>
     9c0:	05 c0       	rjmp	.+10     	; 0x9cc <string_to_LCD+0x22>
     9c2:	83 30       	cpi	r24, 0x03	; 3
     9c4:	39 f0       	breq	.+14     	; 0x9d4 <string_to_LCD+0x2a>
     9c6:	84 30       	cpi	r24, 0x04	; 4
     9c8:	41 f4       	brne	.+16     	; 0x9da <string_to_LCD+0x30>
     9ca:	06 c0       	rjmp	.+12     	; 0x9d8 <string_to_LCD+0x2e>
	{
		case 1: pos=pos+0x80; break;
     9cc:	60 58       	subi	r22, 0x80	; 128
     9ce:	05 c0       	rjmp	.+10     	; 0x9da <string_to_LCD+0x30>
		case 2: pos=pos+0xC0; break;
     9d0:	60 54       	subi	r22, 0x40	; 64
     9d2:	03 c0       	rjmp	.+6      	; 0x9da <string_to_LCD+0x30>
		case 3: pos=pos+0x94; break;
     9d4:	6c 56       	subi	r22, 0x6C	; 108
     9d6:	01 c0       	rjmp	.+2      	; 0x9da <string_to_LCD+0x30>
		case 4: pos=pos+0xD4; break;
     9d8:	6c 52       	subi	r22, 0x2C	; 44
		default:; break;
	}
	comand_to_LCD(pos); // установка позиции курсора
     9da:	86 2f       	mov	r24, r22
     9dc:	0e 94 71 04 	call	0x8e2	; 0x8e2 <comand_to_LCD>
     9e0:	c0 e0       	ldi	r28, 0x00	; 0
     9e2:	d0 e0       	ldi	r29, 0x00	; 0

	for(unsigned char t=0;t<char_num;t++) data_to_LCD(str[t]); // вывод данных
     9e4:	f8 01       	movw	r30, r16
     9e6:	ec 0f       	add	r30, r28
     9e8:	fd 1f       	adc	r31, r29
     9ea:	80 81       	ld	r24, Z
     9ec:	0e 94 bc 04 	call	0x978	; 0x978 <data_to_LCD>
     9f0:	21 96       	adiw	r28, 0x01	; 1
     9f2:	c4 31       	cpi	r28, 0x14	; 20
     9f4:	d1 05       	cpc	r29, r1
     9f6:	b1 f7       	brne	.-20     	; 0x9e4 <string_to_LCD+0x3a>
     9f8:	df 91       	pop	r29
     9fa:	cf 91       	pop	r28
     9fc:	1f 91       	pop	r17
     9fe:	0f 91       	pop	r16
     a00:	08 95       	ret

00000a02 <__vector_5>:

#include "hd44780.h" // подключение библиотеки для работы с HD44780

// обработчик прерывания - системный таймер (переполнение)
ISR (TIMER2_OVF_vect)
{
     a02:	1f 92       	push	r1
     a04:	0f 92       	push	r0
     a06:	0f b6       	in	r0, 0x3f	; 63
     a08:	0f 92       	push	r0
     a0a:	11 24       	eor	r1, r1
     a0c:	2f 93       	push	r18
     a0e:	3f 93       	push	r19
     a10:	4f 93       	push	r20
     a12:	5f 93       	push	r21
     a14:	8f 93       	push	r24
     a16:	9f 93       	push	r25
	TCNT2 = 31; // необходимо для получения интервала 1 секунда (0.333...*3=1)
     a18:	8f e1       	ldi	r24, 0x1F	; 31
     a1a:	84 bd       	out	0x24, r24	; 36
    static uint16_t PrevState=0, FastCount=0;
	
	FastCount++;
     a1c:	20 91 44 06 	lds	r18, 0x0644
     a20:	30 91 45 06 	lds	r19, 0x0645
     a24:	2f 5f       	subi	r18, 0xFF	; 255
     a26:	3f 4f       	sbci	r19, 0xFF	; 255
     a28:	30 93 45 06 	sts	0x0645, r19
     a2c:	20 93 44 06 	sts	0x0644, r18
	// определяем переход битов из 0 в 1 в пременной FastCount
	// и устанавливаем флаги в глобальной переменной FlagsFastCount, сбрасывать флаги
	// должен диспетчер, после вызова подпрограмм.
	FlagsFastCount|=~PrevState & FastCount;
     a30:	40 91 11 05 	lds	r20, 0x0511
     a34:	50 91 12 05 	lds	r21, 0x0512
     a38:	80 91 46 06 	lds	r24, 0x0646
     a3c:	90 91 47 06 	lds	r25, 0x0647
     a40:	80 95       	com	r24
     a42:	90 95       	com	r25
     a44:	82 23       	and	r24, r18
     a46:	93 23       	and	r25, r19
     a48:	84 2b       	or	r24, r20
     a4a:	95 2b       	or	r25, r21
     a4c:	90 93 12 05 	sts	0x0512, r25
     a50:	80 93 11 05 	sts	0x0511, r24
	// записываем предыдущее состояние
	PrevState = FastCount;
     a54:	30 93 47 06 	sts	0x0647, r19
     a58:	20 93 46 06 	sts	0x0646, r18
} 
     a5c:	9f 91       	pop	r25
     a5e:	8f 91       	pop	r24
     a60:	5f 91       	pop	r21
     a62:	4f 91       	pop	r20
     a64:	3f 91       	pop	r19
     a66:	2f 91       	pop	r18
     a68:	0f 90       	pop	r0
     a6a:	0f be       	out	0x3f, r0	; 63
     a6c:	0f 90       	pop	r0
     a6e:	1f 90       	pop	r1
     a70:	18 95       	reti

00000a72 <scale_t>:
	sei();
}

// преобразование температуры
void scale_t (uint16_t t, uint16_t *c, uint16_t *d, uint8_t *s)
{
     a72:	cf 93       	push	r28
     a74:	df 93       	push	r29
     a76:	fb 01       	movw	r30, r22
     a78:	da 01       	movw	r26, r20
     a7a:	e9 01       	movw	r28, r18
     a7c:	bc 01       	movw	r22, r24
     a7e:	6f 70       	andi	r22, 0x0F	; 15
     a80:	70 70       	andi	r23, 0x00	; 0
	uint16_t cel=0,dec=0; // переменные целых и десятичных значений числа
	uint8_t sig=0; // переменная знака числа
	
	if(t&0x8000) // отрицательная температура
     a82:	97 ff       	sbrs	r25, 7
     a84:	0f c0       	rjmp	.+30     	; 0xaa4 <scale_t+0x32>
	{
		cel=((t^0xffff)+1)>>4 ;
     a86:	44 27       	eor	r20, r20
     a88:	55 27       	eor	r21, r21
     a8a:	48 1b       	sub	r20, r24
     a8c:	59 0b       	sbc	r21, r25
     a8e:	34 e0       	ldi	r19, 0x04	; 4
     a90:	56 95       	lsr	r21
     a92:	47 95       	ror	r20
     a94:	3a 95       	dec	r19
     a96:	e1 f7       	brne	.-8      	; 0xa90 <scale_t+0x1e>
		dec=16-(t&0xf);
     a98:	20 e1       	ldi	r18, 0x10	; 16
     a9a:	30 e0       	ldi	r19, 0x00	; 0
     a9c:	26 1b       	sub	r18, r22
     a9e:	37 0b       	sbc	r19, r23
     aa0:	6d e2       	ldi	r22, 0x2D	; 45
     aa2:	08 c0       	rjmp	.+16     	; 0xab4 <scale_t+0x42>
		sig='-';
	} 
	else // положительная температура
	{
		cel=t>>4;
     aa4:	ac 01       	movw	r20, r24
     aa6:	24 e0       	ldi	r18, 0x04	; 4
     aa8:	56 95       	lsr	r21
     aaa:	47 95       	ror	r20
     aac:	2a 95       	dec	r18
     aae:	e1 f7       	brne	.-8      	; 0xaa8 <scale_t+0x36>
		dec=t&0xf;
     ab0:	9b 01       	movw	r18, r22
     ab2:	6b e2       	ldi	r22, 0x2B	; 43
		sig='+';
	};

	if(t==0) sig=' '; // 0 значение
     ab4:	89 2b       	or	r24, r25
     ab6:	09 f4       	brne	.+2      	; 0xaba <scale_t+0x48>
     ab8:	60 e2       	ldi	r22, 0x20	; 32
	dec*=625;
	
	*c=cel;	// Целое
     aba:	51 83       	std	Z+1, r21	; 0x01
     abc:	40 83       	st	Z, r20
	*d=dec;	// Десятичное
     abe:	81 e7       	ldi	r24, 0x71	; 113
     ac0:	92 e0       	ldi	r25, 0x02	; 2
     ac2:	ac 01       	movw	r20, r24
     ac4:	24 9f       	mul	r18, r20
     ac6:	c0 01       	movw	r24, r0
     ac8:	25 9f       	mul	r18, r21
     aca:	90 0d       	add	r25, r0
     acc:	34 9f       	mul	r19, r20
     ace:	90 0d       	add	r25, r0
     ad0:	11 24       	eor	r1, r1
     ad2:	8d 93       	st	X+, r24
     ad4:	9c 93       	st	X, r25
	*s=sig;	// Знак
     ad6:	68 83       	st	Y, r22
}
     ad8:	df 91       	pop	r29
     ada:	cf 91       	pop	r28
     adc:	08 95       	ret

00000ade <set_temp_mode_and_produv>:
	return(0);
}

// функция температурного режима и режима продувки крышки
void set_temp_mode_and_produv(void)
{
     ade:	cf 92       	push	r12
     ae0:	df 92       	push	r13
     ae2:	ef 92       	push	r14
     ae4:	ff 92       	push	r15
     ae6:	0f 93       	push	r16
     ae8:	1f 93       	push	r17
     aea:	cf 93       	push	r28
     aec:	df 93       	push	r29
	// температурный режим
	switch(temp_control)
     aee:	80 91 e8 04 	lds	r24, 0x04E8
     af2:	81 30       	cpi	r24, 0x01	; 1
     af4:	21 f0       	breq	.+8      	; 0xafe <set_temp_mode_and_produv+0x20>
     af6:	82 30       	cpi	r24, 0x02	; 2
     af8:	09 f0       	breq	.+2      	; 0xafc <set_temp_mode_and_produv+0x1e>
     afa:	50 c1       	rjmp	.+672    	; 0xd9c <set_temp_mode_and_produv+0x2be>
     afc:	fa c0       	rjmp	.+500    	; 0xcf2 <set_temp_mode_and_produv+0x214>
	{
		case 1: // установить режим
		{
			switch(set_temp_sensor) // выбор температурного датчика
     afe:	80 91 96 04 	lds	r24, 0x0496
     b02:	82 30       	cpi	r24, 0x02	; 2
     b04:	a1 f0       	breq	.+40     	; 0xb2e <set_temp_mode_and_produv+0x50>
     b06:	83 30       	cpi	r24, 0x03	; 3
     b08:	11 f1       	breq	.+68     	; 0xb4e <set_temp_mode_and_produv+0x70>
     b0a:	81 30       	cpi	r24, 0x01	; 1
     b0c:	c9 f5       	brne	.+114    	; 0xb80 <set_temp_mode_and_produv+0xa2>
			{
				case 1: temp_now=(string_2[5]-0x30)*100+(string_2[6]-0x30)*10+(string_2[8]-0x30); break;
     b0e:	80 91 b3 04 	lds	r24, 0x04B3
     b12:	90 e0       	ldi	r25, 0x00	; 0
     b14:	80 5d       	subi	r24, 0xD0	; 208
     b16:	94 41       	sbci	r25, 0x14	; 20
     b18:	20 91 b0 04 	lds	r18, 0x04B0
     b1c:	44 e6       	ldi	r20, 0x64	; 100
     b1e:	24 9f       	mul	r18, r20
     b20:	90 01       	movw	r18, r0
     b22:	11 24       	eor	r1, r1
     b24:	82 0f       	add	r24, r18
     b26:	93 1f       	adc	r25, r19
     b28:	20 91 b1 04 	lds	r18, 0x04B1
     b2c:	1f c0       	rjmp	.+62     	; 0xb6c <set_temp_mode_and_produv+0x8e>
				case 2: temp_now=(string_3[5]-0x30)*100+(string_3[6]-0x30)*10+(string_3[8]-0x30); break;
     b2e:	80 91 c7 04 	lds	r24, 0x04C7
     b32:	90 e0       	ldi	r25, 0x00	; 0
     b34:	80 5d       	subi	r24, 0xD0	; 208
     b36:	94 41       	sbci	r25, 0x14	; 20
     b38:	20 91 c4 04 	lds	r18, 0x04C4
     b3c:	44 e6       	ldi	r20, 0x64	; 100
     b3e:	24 9f       	mul	r18, r20
     b40:	90 01       	movw	r18, r0
     b42:	11 24       	eor	r1, r1
     b44:	82 0f       	add	r24, r18
     b46:	93 1f       	adc	r25, r19
     b48:	20 91 c5 04 	lds	r18, 0x04C5
     b4c:	0f c0       	rjmp	.+30     	; 0xb6c <set_temp_mode_and_produv+0x8e>
				case 3: temp_now=(string_4[5]-0x30)*100+(string_4[6]-0x30)*10+(string_4[8]-0x30); break;
     b4e:	80 91 db 04 	lds	r24, 0x04DB
     b52:	90 e0       	ldi	r25, 0x00	; 0
     b54:	80 5d       	subi	r24, 0xD0	; 208
     b56:	94 41       	sbci	r25, 0x14	; 20
     b58:	20 91 d8 04 	lds	r18, 0x04D8
     b5c:	44 e6       	ldi	r20, 0x64	; 100
     b5e:	24 9f       	mul	r18, r20
     b60:	90 01       	movw	r18, r0
     b62:	11 24       	eor	r1, r1
     b64:	82 0f       	add	r24, r18
     b66:	93 1f       	adc	r25, r19
     b68:	20 91 d9 04 	lds	r18, 0x04D9
     b6c:	4a e0       	ldi	r20, 0x0A	; 10
     b6e:	24 9f       	mul	r18, r20
     b70:	90 01       	movw	r18, r0
     b72:	11 24       	eor	r1, r1
     b74:	82 0f       	add	r24, r18
     b76:	93 1f       	adc	r25, r19
     b78:	90 93 eb 04 	sts	0x04EB, r25
     b7c:	80 93 ea 04 	sts	0x04EA, r24
				default:; break;
			}
			if(temp_now!=0)
     b80:	c0 91 ea 04 	lds	r28, 0x04EA
     b84:	d0 91 eb 04 	lds	r29, 0x04EB
     b88:	20 97       	sbiw	r28, 0x00	; 0
     b8a:	09 f4       	brne	.+2      	; 0xb8e <set_temp_mode_and_produv+0xb0>
     b8c:	07 c1       	rjmp	.+526    	; 0xd9c <set_temp_mode_and_produv+0x2be>
			{
				// если текущая температура меньше установленной на значение порога срабатывания
				if((set_temp-temp_now)>set_temp_dec) heater=1; // флаг - включить нагрев
     b8e:	c0 90 60 00 	lds	r12, 0x0060
     b92:	d0 90 61 00 	lds	r13, 0x0061
     b96:	80 91 64 00 	lds	r24, 0x0064
     b9a:	28 2f       	mov	r18, r24
     b9c:	30 e0       	ldi	r19, 0x00	; 0
     b9e:	c6 01       	movw	r24, r12
     ba0:	8c 1b       	sub	r24, r28
     ba2:	9d 0b       	sbc	r25, r29
     ba4:	28 17       	cp	r18, r24
     ba6:	39 07       	cpc	r19, r25
     ba8:	1c f4       	brge	.+6      	; 0xbb0 <set_temp_mode_and_produv+0xd2>
     baa:	81 e0       	ldi	r24, 0x01	; 1
     bac:	80 93 ec 04 	sts	0x04EC, r24
				if(heater) // если нагрев задан
     bb0:	80 91 ec 04 	lds	r24, 0x04EC
     bb4:	88 23       	and	r24, r24
     bb6:	59 f0       	breq	.+22     	; 0xbce <set_temp_mode_and_produv+0xf0>
				{
					RELE_PORT_2|=RELE_6; // включить нагреватель
     bb8:	a9 9a       	sbi	0x15, 1	; 21
					OCR0=0; // отключить кулера
     bba:	1c be       	out	0x3c, r1	; 60
					if(temp_now>=set_temp) heater=0; // если текущая температура превысила заданную - сбросить флаг 
     bbc:	cc 15       	cp	r28, r12
     bbe:	dd 05       	cpc	r29, r13
     bc0:	14 f0       	brlt	.+4      	; 0xbc6 <set_temp_mode_and_produv+0xe8>
     bc2:	10 92 ec 04 	sts	0x04EC, r1
					heater_chanel_status=0x33; // состояние - температурный режим
     bc6:	83 e3       	ldi	r24, 0x33	; 51
     bc8:	80 93 40 06 	sts	0x0640, r24
     bcc:	01 c0       	rjmp	.+2      	; 0xbd0 <set_temp_mode_and_produv+0xf2>
				}
				else RELE_PORT_2&=~RELE_6; // отключить нагреватель
     bce:	a9 98       	cbi	0x15, 1	; 21
				// если текущая температура выше установленной на значение порога срабатывания
				if((temp_now-set_temp)>set_temp_dec) cooler=1; // флаг - включить кулера
     bd0:	ce 01       	movw	r24, r28
     bd2:	8c 19       	sub	r24, r12
     bd4:	9d 09       	sbc	r25, r13
     bd6:	28 17       	cp	r18, r24
     bd8:	39 07       	cpc	r19, r25
     bda:	1c f4       	brge	.+6      	; 0xbe2 <set_temp_mode_and_produv+0x104>
     bdc:	81 e0       	ldi	r24, 0x01	; 1
     bde:	80 93 ed 04 	sts	0x04ED, r24
				// если задана работа кулеров 
				// и если текущее время находится в промежутке заданного временного интервала работы кулеров
				if(cooler&&((time_now>cooler_start)&&(time_now<cooler_stop)))
     be2:	80 91 ed 04 	lds	r24, 0x04ED
     be6:	88 23       	and	r24, r24
     be8:	09 f4       	brne	.+2      	; 0xbec <set_temp_mode_and_produv+0x10e>
     bea:	7f c0       	rjmp	.+254    	; 0xcea <set_temp_mode_and_produv+0x20c>
     bec:	20 91 2c 06 	lds	r18, 0x062C
     bf0:	30 91 2d 06 	lds	r19, 0x062D
     bf4:	40 91 2e 06 	lds	r20, 0x062E
     bf8:	50 91 2f 06 	lds	r21, 0x062F
     bfc:	80 91 86 04 	lds	r24, 0x0486
     c00:	90 91 87 04 	lds	r25, 0x0487
     c04:	a0 91 88 04 	lds	r26, 0x0488
     c08:	b0 91 89 04 	lds	r27, 0x0489
     c0c:	82 17       	cp	r24, r18
     c0e:	93 07       	cpc	r25, r19
     c10:	a4 07       	cpc	r26, r20
     c12:	b5 07       	cpc	r27, r21
     c14:	08 f0       	brcs	.+2      	; 0xc18 <set_temp_mode_and_produv+0x13a>
     c16:	69 c0       	rjmp	.+210    	; 0xcea <set_temp_mode_and_produv+0x20c>
     c18:	20 91 2c 06 	lds	r18, 0x062C
     c1c:	30 91 2d 06 	lds	r19, 0x062D
     c20:	40 91 2e 06 	lds	r20, 0x062E
     c24:	50 91 2f 06 	lds	r21, 0x062F
     c28:	80 91 8a 04 	lds	r24, 0x048A
     c2c:	90 91 8b 04 	lds	r25, 0x048B
     c30:	a0 91 8c 04 	lds	r26, 0x048C
     c34:	b0 91 8d 04 	lds	r27, 0x048D
     c38:	28 17       	cp	r18, r24
     c3a:	39 07       	cpc	r19, r25
     c3c:	4a 07       	cpc	r20, r26
     c3e:	5b 07       	cpc	r21, r27
     c40:	08 f0       	brcs	.+2      	; 0xc44 <set_temp_mode_and_produv+0x166>
     c42:	53 c0       	rjmp	.+166    	; 0xcea <set_temp_mode_and_produv+0x20c>
				{
					cooler_start_pulse[1]++; // отсчет времени стартового импульса
     c44:	80 91 4b 05 	lds	r24, 0x054B
     c48:	8f 5f       	subi	r24, 0xFF	; 255
     c4a:	80 93 4b 05 	sts	0x054B, r24
					// ~3.33 с - устанавливаем заданную мощность
					if(cooler_start_pulse[1]==10) 
     c4e:	8a 30       	cpi	r24, 0x0A	; 10
     c50:	51 f5       	brne	.+84     	; 0xca6 <set_temp_mode_and_produv+0x1c8>
					{
						cooler_start_pulse[1]=9; // продолжаем выполнять условие
     c52:	89 e0       	ldi	r24, 0x09	; 9
     c54:	80 93 4b 05 	sts	0x054B, r24
						cooler_data[1]=cooler_set; // устанавливаем заданную мощность кулеров
     c58:	60 91 62 00 	lds	r22, 0x0062
     c5c:	70 91 63 00 	lds	r23, 0x0063
     c60:	80 e0       	ldi	r24, 0x00	; 0
     c62:	90 e0       	ldi	r25, 0x00	; 0
     c64:	0e 94 e3 2e 	call	0x5dc6	; 0x5dc6 <__floatunsisf>
     c68:	60 93 3e 05 	sts	0x053E, r22
     c6c:	70 93 3f 05 	sts	0x053F, r23
     c70:	80 93 40 05 	sts	0x0540, r24
     c74:	90 93 41 05 	sts	0x0541, r25
						// если мощности кулеров меньше минимальной
						if(cooler_data[1]<cooler_min) cooler_data[1]=cooler_min;
     c78:	e0 90 75 04 	lds	r14, 0x0475
     c7c:	f0 90 76 04 	lds	r15, 0x0476
     c80:	00 91 77 04 	lds	r16, 0x0477
     c84:	10 91 78 04 	lds	r17, 0x0478
     c88:	a8 01       	movw	r20, r16
     c8a:	97 01       	movw	r18, r14
     c8c:	0e 94 4b 2e 	call	0x5c96	; 0x5c96 <__cmpsf2>
     c90:	88 23       	and	r24, r24
     c92:	ac f4       	brge	.+42     	; 0xcbe <set_temp_mode_and_produv+0x1e0>
     c94:	e0 92 3e 05 	sts	0x053E, r14
     c98:	f0 92 3f 05 	sts	0x053F, r15
     c9c:	00 93 40 05 	sts	0x0540, r16
     ca0:	10 93 41 05 	sts	0x0541, r17
     ca4:	0c c0       	rjmp	.+24     	; 0xcbe <set_temp_mode_and_produv+0x1e0>
					}
					// мощность кулеров на максимум
					else cooler_data[1]=255;
     ca6:	80 e0       	ldi	r24, 0x00	; 0
     ca8:	90 e0       	ldi	r25, 0x00	; 0
     caa:	af e7       	ldi	r26, 0x7F	; 127
     cac:	b3 e4       	ldi	r27, 0x43	; 67
     cae:	80 93 3e 05 	sts	0x053E, r24
     cb2:	90 93 3f 05 	sts	0x053F, r25
     cb6:	a0 93 40 05 	sts	0x0540, r26
     cba:	b0 93 41 05 	sts	0x0541, r27
					OCR0=cooler_data[1];
     cbe:	60 91 3e 05 	lds	r22, 0x053E
     cc2:	70 91 3f 05 	lds	r23, 0x053F
     cc6:	80 91 40 05 	lds	r24, 0x0540
     cca:	90 91 41 05 	lds	r25, 0x0541
     cce:	0e 94 b7 2e 	call	0x5d6e	; 0x5d6e <__fixunssfsi>
     cd2:	6c bf       	out	0x3c, r22	; 60
					// если текущая температура ниже заданной
					if(temp_now<=set_temp) {cooler=0; cooler_start_pulse[1]=0;} // сбросить флаг, сбросить значение стартового импульса
     cd4:	cc 16       	cp	r12, r28
     cd6:	dd 06       	cpc	r13, r29
     cd8:	24 f0       	brlt	.+8      	; 0xce2 <set_temp_mode_and_produv+0x204>
     cda:	10 92 ed 04 	sts	0x04ED, r1
     cde:	10 92 4b 05 	sts	0x054B, r1
					cooler_chanel_status=0x33; // состояние кулеров - температурный режим
     ce2:	83 e3       	ldi	r24, 0x33	; 51
     ce4:	80 93 3f 06 	sts	0x063F, r24
     ce8:	59 c0       	rjmp	.+178    	; 0xd9c <set_temp_mode_and_produv+0x2be>
				}
				// отключить кулера
				else {OCR0=0;cooler_start_pulse[1]=0;}		
     cea:	1c be       	out	0x3c, r1	; 60
     cec:	10 92 4b 05 	sts	0x054B, r1
     cf0:	55 c0       	rjmp	.+170    	; 0xd9c <set_temp_mode_and_produv+0x2be>
			}
		} break;
		
		case 2: // сбросить режим
		{
			if(rele_set[5]==1) heater_chanel_status=0x32; 
     cf2:	80 91 f5 04 	lds	r24, 0x04F5
     cf6:	81 30       	cpi	r24, 0x01	; 1
     cf8:	21 f4       	brne	.+8      	; 0xd02 <set_temp_mode_and_produv+0x224>
     cfa:	82 e3       	ldi	r24, 0x32	; 50
     cfc:	80 93 40 06 	sts	0x0640, r24
     d00:	07 c0       	rjmp	.+14     	; 0xd10 <set_temp_mode_and_produv+0x232>
			// если ручной режим и режим таймеров не активны
			if((rele_set[5]==0)&&(heater_timer_status==0)) RELE_PORT_2&=~RELE_6; // отключить нагреватель	
     d02:	88 23       	and	r24, r24
     d04:	29 f4       	brne	.+10     	; 0xd10 <set_temp_mode_and_produv+0x232>
     d06:	80 91 3a 06 	lds	r24, 0x063A
     d0a:	88 23       	and	r24, r24
     d0c:	09 f4       	brne	.+2      	; 0xd10 <set_temp_mode_and_produv+0x232>
     d0e:	a9 98       	cbi	0x15, 1	; 21
			// установка значения PWM относительно приоритета режимов
			if(cooler_start_pulse[0]) cooler_start_pulse[0]=0; /*OCR0=cooler_data[0];*/ // 1-ручной режим управления
     d10:	80 91 4a 05 	lds	r24, 0x054A
     d14:	88 23       	and	r24, r24
     d16:	11 f0       	breq	.+4      	; 0xd1c <set_temp_mode_and_produv+0x23e>
     d18:	10 92 4a 05 	sts	0x054A, r1
			if(cooler_start_pulse[3]) OCR0=cooler_data[3]; // 2-режим продувки крышки
     d1c:	10 91 4d 05 	lds	r17, 0x054D
     d20:	11 23       	and	r17, r17
     d22:	59 f0       	breq	.+22     	; 0xd3a <set_temp_mode_and_produv+0x25c>
     d24:	60 91 46 05 	lds	r22, 0x0546
     d28:	70 91 47 05 	lds	r23, 0x0547
     d2c:	80 91 48 05 	lds	r24, 0x0548
     d30:	90 91 49 05 	lds	r25, 0x0549
     d34:	0e 94 b7 2e 	call	0x5d6e	; 0x5d6e <__fixunssfsi>
     d38:	6c bf       	out	0x3c, r22	; 60
			if(cooler_start_pulse[2]) cooler_start_pulse[2]=0; // 3-режим таймеров
     d3a:	80 91 4c 05 	lds	r24, 0x054C
     d3e:	88 23       	and	r24, r24
     d40:	11 f0       	breq	.+4      	; 0xd46 <set_temp_mode_and_produv+0x268>
     d42:	10 92 4c 05 	sts	0x054C, r1
			if(cooler_start_pulse[0]!=0) cooler_chanel_status=0x32;
     d46:	60 91 4a 05 	lds	r22, 0x054A
     d4a:	66 23       	and	r22, r22
     d4c:	19 f0       	breq	.+6      	; 0xd54 <set_temp_mode_and_produv+0x276>
     d4e:	82 e3       	ldi	r24, 0x32	; 50
     d50:	80 93 3f 06 	sts	0x063F, r24
			// если ни один из режимов не запущен - отключить PWM
			if((cooler_start_pulse[0]==0)&(cooler_start_pulse[1]==0)&(cooler_start_pulse[2]==0)&(cooler_start_pulse[3]==0)) OCR0=0;
     d54:	40 e0       	ldi	r20, 0x00	; 0
     d56:	50 e0       	ldi	r21, 0x00	; 0
     d58:	11 23       	and	r17, r17
     d5a:	11 f4       	brne	.+4      	; 0xd60 <set_temp_mode_and_produv+0x282>
     d5c:	41 e0       	ldi	r20, 0x01	; 1
     d5e:	50 e0       	ldi	r21, 0x00	; 0
     d60:	20 e0       	ldi	r18, 0x00	; 0
     d62:	30 e0       	ldi	r19, 0x00	; 0
     d64:	80 91 4c 05 	lds	r24, 0x054C
     d68:	88 23       	and	r24, r24
     d6a:	11 f4       	brne	.+4      	; 0xd70 <set_temp_mode_and_produv+0x292>
     d6c:	21 e0       	ldi	r18, 0x01	; 1
     d6e:	30 e0       	ldi	r19, 0x00	; 0
     d70:	24 23       	and	r18, r20
     d72:	35 23       	and	r19, r21
     d74:	90 e0       	ldi	r25, 0x00	; 0
     d76:	66 23       	and	r22, r22
     d78:	09 f4       	brne	.+2      	; 0xd7c <set_temp_mode_and_produv+0x29e>
     d7a:	91 e0       	ldi	r25, 0x01	; 1
     d7c:	40 e0       	ldi	r20, 0x00	; 0
     d7e:	80 91 4b 05 	lds	r24, 0x054B
     d82:	88 23       	and	r24, r24
     d84:	09 f4       	brne	.+2      	; 0xd88 <set_temp_mode_and_produv+0x2aa>
     d86:	41 e0       	ldi	r20, 0x01	; 1
     d88:	94 23       	and	r25, r20
     d8a:	89 2f       	mov	r24, r25
     d8c:	90 e0       	ldi	r25, 0x00	; 0
     d8e:	28 23       	and	r18, r24
     d90:	39 23       	and	r19, r25
     d92:	23 2b       	or	r18, r19
     d94:	09 f0       	breq	.+2      	; 0xd98 <set_temp_mode_and_produv+0x2ba>
     d96:	1c be       	out	0x3c, r1	; 60
			temp_control=0;
     d98:	10 92 e8 04 	sts	0x04E8, r1
		default:; break;
	}
	
	// режим продувки крышки
	// включение кулеров на заданный интервал времени происходит в начале часа
	switch(produv)
     d9c:	80 91 e9 04 	lds	r24, 0x04E9
     da0:	81 30       	cpi	r24, 0x01	; 1
     da2:	21 f0       	breq	.+8      	; 0xdac <set_temp_mode_and_produv+0x2ce>
     da4:	82 30       	cpi	r24, 0x02	; 2
     da6:	09 f0       	breq	.+2      	; 0xdaa <set_temp_mode_and_produv+0x2cc>
     da8:	45 c1       	rjmp	.+650    	; 0x1034 <set_temp_mode_and_produv+0x556>
     daa:	f4 c0       	rjmp	.+488    	; 0xf94 <set_temp_mode_and_produv+0x4b6>
	{
		case 1: // установить режим
		{
			// если текущее время находится в промежутке заданного временного интервала работы кулеров
			if((time_now>=cooler_start)&&(time_now<cooler_stop))
     dac:	20 91 2c 06 	lds	r18, 0x062C
     db0:	30 91 2d 06 	lds	r19, 0x062D
     db4:	40 91 2e 06 	lds	r20, 0x062E
     db8:	50 91 2f 06 	lds	r21, 0x062F
     dbc:	80 91 86 04 	lds	r24, 0x0486
     dc0:	90 91 87 04 	lds	r25, 0x0487
     dc4:	a0 91 88 04 	lds	r26, 0x0488
     dc8:	b0 91 89 04 	lds	r27, 0x0489
     dcc:	28 17       	cp	r18, r24
     dce:	39 07       	cpc	r19, r25
     dd0:	4a 07       	cpc	r20, r26
     dd2:	5b 07       	cpc	r21, r27
     dd4:	08 f4       	brcc	.+2      	; 0xdd8 <set_temp_mode_and_produv+0x2fa>
     dd6:	da c0       	rjmp	.+436    	; 0xf8c <set_temp_mode_and_produv+0x4ae>
     dd8:	20 91 2c 06 	lds	r18, 0x062C
     ddc:	30 91 2d 06 	lds	r19, 0x062D
     de0:	40 91 2e 06 	lds	r20, 0x062E
     de4:	50 91 2f 06 	lds	r21, 0x062F
     de8:	80 91 8a 04 	lds	r24, 0x048A
     dec:	90 91 8b 04 	lds	r25, 0x048B
     df0:	a0 91 8c 04 	lds	r26, 0x048C
     df4:	b0 91 8d 04 	lds	r27, 0x048D
     df8:	28 17       	cp	r18, r24
     dfa:	39 07       	cpc	r19, r25
     dfc:	4a 07       	cpc	r20, r26
     dfe:	5b 07       	cpc	r21, r27
     e00:	08 f0       	brcs	.+2      	; 0xe04 <set_temp_mode_and_produv+0x326>
     e02:	c4 c0       	rjmp	.+392    	; 0xf8c <set_temp_mode_and_produv+0x4ae>
			{
				if(cooler==0) // если кулера не активны
     e04:	80 91 ed 04 	lds	r24, 0x04ED
     e08:	88 23       	and	r24, r24
     e0a:	09 f0       	breq	.+2      	; 0xe0e <set_temp_mode_and_produv+0x330>
     e0c:	13 c1       	rjmp	.+550    	; 0x1034 <set_temp_mode_and_produv+0x556>
				{
					// начало следующего часа - отсчет периода
					if(time_min_and_sec==0) timer_produv_period_count++;
     e0e:	80 91 27 06 	lds	r24, 0x0627
     e12:	90 91 28 06 	lds	r25, 0x0628
     e16:	a0 91 29 06 	lds	r26, 0x0629
     e1a:	b0 91 2a 06 	lds	r27, 0x062A
     e1e:	00 97       	sbiw	r24, 0x00	; 0
     e20:	a1 05       	cpc	r26, r1
     e22:	b1 05       	cpc	r27, r1
     e24:	29 f4       	brne	.+10     	; 0xe30 <set_temp_mode_and_produv+0x352>
     e26:	80 91 2b 06 	lds	r24, 0x062B
     e2a:	8f 5f       	subi	r24, 0xFF	; 255
     e2c:	80 93 2b 06 	sts	0x062B, r24
					// отсчитываемое время продувки крышки находиться в заданном интервале времени
					if((time_min_and_sec>=0)&&(time_min_and_sec<timer_produv_time))
     e30:	80 91 27 06 	lds	r24, 0x0627
     e34:	90 91 28 06 	lds	r25, 0x0628
     e38:	a0 91 29 06 	lds	r26, 0x0629
     e3c:	b0 91 2a 06 	lds	r27, 0x062A
     e40:	20 91 27 06 	lds	r18, 0x0627
     e44:	30 91 28 06 	lds	r19, 0x0628
     e48:	40 91 29 06 	lds	r20, 0x0629
     e4c:	50 91 2a 06 	lds	r21, 0x062A
     e50:	80 91 79 04 	lds	r24, 0x0479
     e54:	90 91 7a 04 	lds	r25, 0x047A
     e58:	a0 91 7b 04 	lds	r26, 0x047B
     e5c:	b0 91 7c 04 	lds	r27, 0x047C
     e60:	28 17       	cp	r18, r24
     e62:	39 07       	cpc	r19, r25
     e64:	4a 07       	cpc	r20, r26
     e66:	5b 07       	cpc	r21, r27
     e68:	d8 f5       	brcc	.+118    	; 0xee0 <set_temp_mode_and_produv+0x402>
					{
						// отсчитываемый период времени включения продувки совпадает с заданным
						if(timer_produv_period_count==timer_produv_period*3) // *3 - связано с временем опроса (~0.333 с)
     e6a:	80 91 2b 06 	lds	r24, 0x062B
     e6e:	20 91 7d 04 	lds	r18, 0x047D
     e72:	90 e0       	ldi	r25, 0x00	; 0
     e74:	43 e0       	ldi	r20, 0x03	; 3
     e76:	24 9f       	mul	r18, r20
     e78:	90 01       	movw	r18, r0
     e7a:	11 24       	eor	r1, r1
     e7c:	82 17       	cp	r24, r18
     e7e:	93 07       	cpc	r25, r19
     e80:	09 f0       	breq	.+2      	; 0xe84 <set_temp_mode_and_produv+0x3a6>
     e82:	d8 c0       	rjmp	.+432    	; 0x1034 <set_temp_mode_and_produv+0x556>
						{
							cooler_start_pulse[3]++; // отсчет времени стартового импульса
     e84:	80 91 4d 05 	lds	r24, 0x054D
     e88:	8f 5f       	subi	r24, 0xFF	; 255
     e8a:	80 93 4d 05 	sts	0x054D, r24
							// ~3.33 с - устанавливаем заданную мощность
							if(cooler_start_pulse[3]==10) 
     e8e:	8a 30       	cpi	r24, 0x0A	; 10
     e90:	61 f4       	brne	.+24     	; 0xeaa <set_temp_mode_and_produv+0x3cc>
							{
								cooler_start_pulse[3]=9; // продолжаем выполнять условие
     e92:	89 e0       	ldi	r24, 0x09	; 9
     e94:	80 93 4d 05 	sts	0x054D, r24
								// если мощности кулеров меньше минимальной
								cooler_data[3]=cooler_min;
     e98:	80 91 75 04 	lds	r24, 0x0475
     e9c:	90 91 76 04 	lds	r25, 0x0476
     ea0:	a0 91 77 04 	lds	r26, 0x0477
     ea4:	b0 91 78 04 	lds	r27, 0x0478
     ea8:	04 c0       	rjmp	.+8      	; 0xeb2 <set_temp_mode_and_produv+0x3d4>
							}
							// мощность кулеров на максимум
							else cooler_data[3]=255;
     eaa:	80 e0       	ldi	r24, 0x00	; 0
     eac:	90 e0       	ldi	r25, 0x00	; 0
     eae:	af e7       	ldi	r26, 0x7F	; 127
     eb0:	b3 e4       	ldi	r27, 0x43	; 67
     eb2:	80 93 46 05 	sts	0x0546, r24
     eb6:	90 93 47 05 	sts	0x0547, r25
     eba:	a0 93 48 05 	sts	0x0548, r26
     ebe:	b0 93 49 05 	sts	0x0549, r27
							OCR0=cooler_data[3];
     ec2:	60 91 46 05 	lds	r22, 0x0546
     ec6:	70 91 47 05 	lds	r23, 0x0547
     eca:	80 91 48 05 	lds	r24, 0x0548
     ece:	90 91 49 05 	lds	r25, 0x0549
     ed2:	0e 94 b7 2e 	call	0x5d6e	; 0x5d6e <__fixunssfsi>
     ed6:	6c bf       	out	0x3c, r22	; 60
							cooler_chanel_status=0x34; // состояние кулеров - режим продувки крышки
     ed8:	84 e3       	ldi	r24, 0x34	; 52
     eda:	80 93 3f 06 	sts	0x063F, r24
     ede:	aa c0       	rjmp	.+340    	; 0x1034 <set_temp_mode_and_produv+0x556>
						}
					}
					else // отключить кулера
					{
						// если режим продувки задан - обнулить переменные
						if(cooler_start_pulse[3]) {cooler_start_pulse[3]=0; timer_produv_period_count=0;}
     ee0:	80 91 4d 05 	lds	r24, 0x054D
     ee4:	88 23       	and	r24, r24
     ee6:	21 f0       	breq	.+8      	; 0xef0 <set_temp_mode_and_produv+0x412>
     ee8:	10 92 4d 05 	sts	0x054D, r1
     eec:	10 92 2b 06 	sts	0x062B, r1
						// установка значения PWM относительно приоритета режимов
						if(cooler_start_pulse[0]) OCR0=cooler_data[0]; // 1-ручной режим управления
     ef0:	f0 90 4a 05 	lds	r15, 0x054A
     ef4:	ff 20       	and	r15, r15
     ef6:	59 f0       	breq	.+22     	; 0xf0e <set_temp_mode_and_produv+0x430>
     ef8:	60 91 3a 05 	lds	r22, 0x053A
     efc:	70 91 3b 05 	lds	r23, 0x053B
     f00:	80 91 3c 05 	lds	r24, 0x053C
     f04:	90 91 3d 05 	lds	r25, 0x053D
     f08:	0e 94 b7 2e 	call	0x5d6e	; 0x5d6e <__fixunssfsi>
     f0c:	6c bf       	out	0x3c, r22	; 60
						if(cooler_start_pulse[2]) OCR0=cooler_data[2]; // 2-режим таймеров
     f0e:	10 91 4c 05 	lds	r17, 0x054C
     f12:	11 23       	and	r17, r17
     f14:	59 f0       	breq	.+22     	; 0xf2c <set_temp_mode_and_produv+0x44e>
     f16:	60 91 42 05 	lds	r22, 0x0542
     f1a:	70 91 43 05 	lds	r23, 0x0543
     f1e:	80 91 44 05 	lds	r24, 0x0544
     f22:	90 91 45 05 	lds	r25, 0x0545
     f26:	0e 94 b7 2e 	call	0x5d6e	; 0x5d6e <__fixunssfsi>
     f2a:	6c bf       	out	0x3c, r22	; 60
						if(cooler_start_pulse[1]) OCR0=cooler_data[1]; // 3-температурный режим
     f2c:	00 91 4b 05 	lds	r16, 0x054B
     f30:	00 23       	and	r16, r16
     f32:	59 f0       	breq	.+22     	; 0xf4a <set_temp_mode_and_produv+0x46c>
     f34:	60 91 3e 05 	lds	r22, 0x053E
     f38:	70 91 3f 05 	lds	r23, 0x053F
     f3c:	80 91 40 05 	lds	r24, 0x0540
     f40:	90 91 41 05 	lds	r25, 0x0541
     f44:	0e 94 b7 2e 	call	0x5d6e	; 0x5d6e <__fixunssfsi>
     f48:	6c bf       	out	0x3c, r22	; 60
						// если ни один из режимов не запущен - отключить PWM
						if((cooler_start_pulse[0]==0)&(cooler_start_pulse[1]==0)&(cooler_start_pulse[2]==0)&(cooler_start_pulse[3]==0)) OCR0=0;
     f4a:	20 e0       	ldi	r18, 0x00	; 0
     f4c:	30 e0       	ldi	r19, 0x00	; 0
     f4e:	80 91 4d 05 	lds	r24, 0x054D
     f52:	88 23       	and	r24, r24
     f54:	11 f4       	brne	.+4      	; 0xf5a <set_temp_mode_and_produv+0x47c>
     f56:	21 e0       	ldi	r18, 0x01	; 1
     f58:	30 e0       	ldi	r19, 0x00	; 0
     f5a:	80 e0       	ldi	r24, 0x00	; 0
     f5c:	90 e0       	ldi	r25, 0x00	; 0
     f5e:	11 23       	and	r17, r17
     f60:	11 f4       	brne	.+4      	; 0xf66 <set_temp_mode_and_produv+0x488>
     f62:	81 e0       	ldi	r24, 0x01	; 1
     f64:	90 e0       	ldi	r25, 0x00	; 0
     f66:	28 23       	and	r18, r24
     f68:	39 23       	and	r19, r25
     f6a:	80 e0       	ldi	r24, 0x00	; 0
     f6c:	ff 20       	and	r15, r15
     f6e:	09 f4       	brne	.+2      	; 0xf72 <set_temp_mode_and_produv+0x494>
     f70:	81 e0       	ldi	r24, 0x01	; 1
     f72:	90 e0       	ldi	r25, 0x00	; 0
     f74:	00 23       	and	r16, r16
     f76:	09 f4       	brne	.+2      	; 0xf7a <set_temp_mode_and_produv+0x49c>
     f78:	91 e0       	ldi	r25, 0x01	; 1
     f7a:	89 23       	and	r24, r25
     f7c:	90 e0       	ldi	r25, 0x00	; 0
     f7e:	28 23       	and	r18, r24
     f80:	39 23       	and	r19, r25
     f82:	23 2b       	or	r18, r19
     f84:	09 f4       	brne	.+2      	; 0xf88 <set_temp_mode_and_produv+0x4aa>
     f86:	56 c0       	rjmp	.+172    	; 0x1034 <set_temp_mode_and_produv+0x556>
     f88:	1c be       	out	0x3c, r1	; 60
     f8a:	54 c0       	rjmp	.+168    	; 0x1034 <set_temp_mode_and_produv+0x556>
					}
				}
			}
			else {OCR0=0;cooler_start_pulse[3]=0;} // отключить кулера, сбросить значение стартового импульса
     f8c:	1c be       	out	0x3c, r1	; 60
     f8e:	10 92 4d 05 	sts	0x054D, r1
     f92:	50 c0       	rjmp	.+160    	; 0x1034 <set_temp_mode_and_produv+0x556>
		}break;
		
		case 2: // сбросить режим
		{
			timer_produv_period_count=0; // сбросить значение периода включения
     f94:	10 92 2b 06 	sts	0x062B, r1
			// установка значения PWM относительно приоритета режимов
			if(cooler_start_pulse[0]) OCR0=cooler_data[0]; // 1-ручной режим управления
     f98:	f0 90 4a 05 	lds	r15, 0x054A
     f9c:	ff 20       	and	r15, r15
     f9e:	59 f0       	breq	.+22     	; 0xfb6 <set_temp_mode_and_produv+0x4d8>
     fa0:	60 91 3a 05 	lds	r22, 0x053A
     fa4:	70 91 3b 05 	lds	r23, 0x053B
     fa8:	80 91 3c 05 	lds	r24, 0x053C
     fac:	90 91 3d 05 	lds	r25, 0x053D
     fb0:	0e 94 b7 2e 	call	0x5d6e	; 0x5d6e <__fixunssfsi>
     fb4:	6c bf       	out	0x3c, r22	; 60
			if(cooler_start_pulse[2]) OCR0=cooler_data[2]; // 2-режим таймеров
     fb6:	10 91 4c 05 	lds	r17, 0x054C
     fba:	11 23       	and	r17, r17
     fbc:	59 f0       	breq	.+22     	; 0xfd4 <set_temp_mode_and_produv+0x4f6>
     fbe:	60 91 42 05 	lds	r22, 0x0542
     fc2:	70 91 43 05 	lds	r23, 0x0543
     fc6:	80 91 44 05 	lds	r24, 0x0544
     fca:	90 91 45 05 	lds	r25, 0x0545
     fce:	0e 94 b7 2e 	call	0x5d6e	; 0x5d6e <__fixunssfsi>
     fd2:	6c bf       	out	0x3c, r22	; 60
			if(cooler_start_pulse[1]) OCR0=cooler_data[1]; // 3-температурный режим
     fd4:	00 91 4b 05 	lds	r16, 0x054B
     fd8:	00 23       	and	r16, r16
     fda:	59 f0       	breq	.+22     	; 0xff2 <set_temp_mode_and_produv+0x514>
     fdc:	60 91 3e 05 	lds	r22, 0x053E
     fe0:	70 91 3f 05 	lds	r23, 0x053F
     fe4:	80 91 40 05 	lds	r24, 0x0540
     fe8:	90 91 41 05 	lds	r25, 0x0541
     fec:	0e 94 b7 2e 	call	0x5d6e	; 0x5d6e <__fixunssfsi>
     ff0:	6c bf       	out	0x3c, r22	; 60
			// если ни один из режимов не запущен - отключить PWM
			if((cooler_start_pulse[0]==0)&(cooler_start_pulse[1]==0)&(cooler_start_pulse[2]==0)&(cooler_start_pulse[3]==0)) OCR0=0;
     ff2:	20 e0       	ldi	r18, 0x00	; 0
     ff4:	30 e0       	ldi	r19, 0x00	; 0
     ff6:	80 91 4d 05 	lds	r24, 0x054D
     ffa:	88 23       	and	r24, r24
     ffc:	11 f4       	brne	.+4      	; 0x1002 <set_temp_mode_and_produv+0x524>
     ffe:	21 e0       	ldi	r18, 0x01	; 1
    1000:	30 e0       	ldi	r19, 0x00	; 0
    1002:	80 e0       	ldi	r24, 0x00	; 0
    1004:	90 e0       	ldi	r25, 0x00	; 0
    1006:	11 23       	and	r17, r17
    1008:	11 f4       	brne	.+4      	; 0x100e <set_temp_mode_and_produv+0x530>
    100a:	81 e0       	ldi	r24, 0x01	; 1
    100c:	90 e0       	ldi	r25, 0x00	; 0
    100e:	28 23       	and	r18, r24
    1010:	39 23       	and	r19, r25
    1012:	80 e0       	ldi	r24, 0x00	; 0
    1014:	ff 20       	and	r15, r15
    1016:	09 f4       	brne	.+2      	; 0x101a <set_temp_mode_and_produv+0x53c>
    1018:	81 e0       	ldi	r24, 0x01	; 1
    101a:	90 e0       	ldi	r25, 0x00	; 0
    101c:	00 23       	and	r16, r16
    101e:	09 f4       	brne	.+2      	; 0x1022 <set_temp_mode_and_produv+0x544>
    1020:	91 e0       	ldi	r25, 0x01	; 1
    1022:	89 23       	and	r24, r25
    1024:	90 e0       	ldi	r25, 0x00	; 0
    1026:	28 23       	and	r18, r24
    1028:	39 23       	and	r19, r25
    102a:	23 2b       	or	r18, r19
    102c:	09 f0       	breq	.+2      	; 0x1030 <set_temp_mode_and_produv+0x552>
    102e:	1c be       	out	0x3c, r1	; 60
			produv=0; // флаг - режим продувки отключен
    1030:	10 92 e9 04 	sts	0x04E9, r1
		}break;
		default:; break;
	}	
}
    1034:	df 91       	pop	r29
    1036:	cf 91       	pop	r28
    1038:	1f 91       	pop	r17
    103a:	0f 91       	pop	r16
    103c:	ff 90       	pop	r15
    103e:	ef 90       	pop	r14
    1040:	df 90       	pop	r13
    1042:	cf 90       	pop	r12
    1044:	08 95       	ret

00001046 <timers_data_to_uart>:
	heater_chanel_status=eeprom_read_byte((unsigned char*)313);
}

// функция отправки данных таймеров на ПК
void timers_data_to_uart(void)
{
    1046:	cf 92       	push	r12
    1048:	df 92       	push	r13
    104a:	ef 92       	push	r14
    104c:	ff 92       	push	r15
    104e:	0f 93       	push	r16
    1050:	1f 93       	push	r17
    1052:	cf 93       	push	r28
    1054:	df 93       	push	r29
	if(TRANSMIT==0x00) // передача разрешена
    1056:	80 91 0c 05 	lds	r24, 0x050C
    105a:	88 23       	and	r24, r24
    105c:	09 f0       	breq	.+2      	; 0x1060 <timers_data_to_uart+0x1a>
    105e:	73 c4       	rjmp	.+2278   	; 0x1946 <timers_data_to_uart+0x900>
	{
		TRANSMIT=0x01; // запрет передачи
    1060:	81 e0       	ldi	r24, 0x01	; 1
    1062:	80 93 0c 05 	sts	0x050C, r24
		usart_data_in_num=327; // кол-во отправляемых байт
    1066:	87 e4       	ldi	r24, 0x47	; 71
    1068:	91 e0       	ldi	r25, 0x01	; 1
    106a:	90 93 10 05 	sts	0x0510, r25
    106e:	80 93 0f 05 	sts	0x050F, r24
		
		buffer[0]=0x3B; // начало пакета
    1072:	8b e3       	ldi	r24, 0x3B	; 59
    1074:	80 93 65 00 	sts	0x0065, r24
		buffer[1]=0xa2; // команда - данные таймеров
    1078:	82 ea       	ldi	r24, 0xA2	; 162
    107a:	80 93 66 00 	sts	0x0066, r24
    107e:	cc 24       	eor	r12, r12
    1080:	dd 24       	eor	r13, r13
    1082:	c0 e0       	ldi	r28, 0x00	; 0
    1084:	d0 e0       	ldi	r29, 0x00	; 0
		// данные таймеров
		for(unsigned char i=0;i<9;i++)
		{
			buffer[2+36*i]=timer1_start[i]/100000+0x30;
    1086:	76 01       	movw	r14, r12
    1088:	ee 0c       	add	r14, r14
    108a:	ff 1c       	adc	r15, r15
    108c:	ee 0c       	add	r14, r14
    108e:	ff 1c       	adc	r15, r15
    1090:	87 01       	movw	r16, r14
    1092:	01 5b       	subi	r16, 0xB1	; 177
    1094:	1a 4f       	sbci	r17, 0xFA	; 250
    1096:	f8 01       	movw	r30, r16
    1098:	60 81       	ld	r22, Z
    109a:	71 81       	ldd	r23, Z+1	; 0x01
    109c:	82 81       	ldd	r24, Z+2	; 0x02
    109e:	93 81       	ldd	r25, Z+3	; 0x03
    10a0:	20 ea       	ldi	r18, 0xA0	; 160
    10a2:	36 e8       	ldi	r19, 0x86	; 134
    10a4:	41 e0       	ldi	r20, 0x01	; 1
    10a6:	50 e0       	ldi	r21, 0x00	; 0
    10a8:	0e 94 4a 30 	call	0x6094	; 0x6094 <__udivmodsi4>
    10ac:	20 5d       	subi	r18, 0xD0	; 208
    10ae:	fe 01       	movw	r30, r28
    10b0:	e9 59       	subi	r30, 0x99	; 153
    10b2:	ff 4f       	sbci	r31, 0xFF	; 255
    10b4:	20 83       	st	Z, r18
			buffer[3+36*i]=(timer1_start[i]%100000)/10000+0x30;
    10b6:	f8 01       	movw	r30, r16
    10b8:	60 81       	ld	r22, Z
    10ba:	71 81       	ldd	r23, Z+1	; 0x01
    10bc:	82 81       	ldd	r24, Z+2	; 0x02
    10be:	93 81       	ldd	r25, Z+3	; 0x03
    10c0:	20 ea       	ldi	r18, 0xA0	; 160
    10c2:	36 e8       	ldi	r19, 0x86	; 134
    10c4:	41 e0       	ldi	r20, 0x01	; 1
    10c6:	50 e0       	ldi	r21, 0x00	; 0
    10c8:	0e 94 4a 30 	call	0x6094	; 0x6094 <__udivmodsi4>
    10cc:	20 e1       	ldi	r18, 0x10	; 16
    10ce:	37 e2       	ldi	r19, 0x27	; 39
    10d0:	40 e0       	ldi	r20, 0x00	; 0
    10d2:	50 e0       	ldi	r21, 0x00	; 0
    10d4:	0e 94 4a 30 	call	0x6094	; 0x6094 <__udivmodsi4>
    10d8:	20 5d       	subi	r18, 0xD0	; 208
    10da:	fe 01       	movw	r30, r28
    10dc:	e8 59       	subi	r30, 0x98	; 152
    10de:	ff 4f       	sbci	r31, 0xFF	; 255
    10e0:	20 83       	st	Z, r18
			buffer[4+36*i]=((timer1_start[i]%100000)%10000)/1000+0x30;
    10e2:	f8 01       	movw	r30, r16
    10e4:	60 81       	ld	r22, Z
    10e6:	71 81       	ldd	r23, Z+1	; 0x01
    10e8:	82 81       	ldd	r24, Z+2	; 0x02
    10ea:	93 81       	ldd	r25, Z+3	; 0x03
    10ec:	20 ea       	ldi	r18, 0xA0	; 160
    10ee:	36 e8       	ldi	r19, 0x86	; 134
    10f0:	41 e0       	ldi	r20, 0x01	; 1
    10f2:	50 e0       	ldi	r21, 0x00	; 0
    10f4:	0e 94 4a 30 	call	0x6094	; 0x6094 <__udivmodsi4>
    10f8:	20 e1       	ldi	r18, 0x10	; 16
    10fa:	37 e2       	ldi	r19, 0x27	; 39
    10fc:	40 e0       	ldi	r20, 0x00	; 0
    10fe:	50 e0       	ldi	r21, 0x00	; 0
    1100:	0e 94 4a 30 	call	0x6094	; 0x6094 <__udivmodsi4>
    1104:	28 ee       	ldi	r18, 0xE8	; 232
    1106:	33 e0       	ldi	r19, 0x03	; 3
    1108:	40 e0       	ldi	r20, 0x00	; 0
    110a:	50 e0       	ldi	r21, 0x00	; 0
    110c:	0e 94 4a 30 	call	0x6094	; 0x6094 <__udivmodsi4>
    1110:	20 5d       	subi	r18, 0xD0	; 208
    1112:	fe 01       	movw	r30, r28
    1114:	e7 59       	subi	r30, 0x97	; 151
    1116:	ff 4f       	sbci	r31, 0xFF	; 255
    1118:	20 83       	st	Z, r18
			buffer[5+36*i]=(((timer1_start[i]%100000)%10000)%1000)/100+0x30;
    111a:	f8 01       	movw	r30, r16
    111c:	60 81       	ld	r22, Z
    111e:	71 81       	ldd	r23, Z+1	; 0x01
    1120:	82 81       	ldd	r24, Z+2	; 0x02
    1122:	93 81       	ldd	r25, Z+3	; 0x03
    1124:	20 ea       	ldi	r18, 0xA0	; 160
    1126:	36 e8       	ldi	r19, 0x86	; 134
    1128:	41 e0       	ldi	r20, 0x01	; 1
    112a:	50 e0       	ldi	r21, 0x00	; 0
    112c:	0e 94 4a 30 	call	0x6094	; 0x6094 <__udivmodsi4>
    1130:	20 e1       	ldi	r18, 0x10	; 16
    1132:	37 e2       	ldi	r19, 0x27	; 39
    1134:	40 e0       	ldi	r20, 0x00	; 0
    1136:	50 e0       	ldi	r21, 0x00	; 0
    1138:	0e 94 4a 30 	call	0x6094	; 0x6094 <__udivmodsi4>
    113c:	28 ee       	ldi	r18, 0xE8	; 232
    113e:	33 e0       	ldi	r19, 0x03	; 3
    1140:	40 e0       	ldi	r20, 0x00	; 0
    1142:	50 e0       	ldi	r21, 0x00	; 0
    1144:	0e 94 4a 30 	call	0x6094	; 0x6094 <__udivmodsi4>
    1148:	24 e6       	ldi	r18, 0x64	; 100
    114a:	30 e0       	ldi	r19, 0x00	; 0
    114c:	40 e0       	ldi	r20, 0x00	; 0
    114e:	50 e0       	ldi	r21, 0x00	; 0
    1150:	0e 94 4a 30 	call	0x6094	; 0x6094 <__udivmodsi4>
    1154:	20 5d       	subi	r18, 0xD0	; 208
    1156:	fe 01       	movw	r30, r28
    1158:	e6 59       	subi	r30, 0x96	; 150
    115a:	ff 4f       	sbci	r31, 0xFF	; 255
    115c:	20 83       	st	Z, r18
			buffer[6+36*i]=((((timer1_start[i]%100000)%10000)%1000)%100)/10+0x30;
    115e:	f8 01       	movw	r30, r16
    1160:	60 81       	ld	r22, Z
    1162:	71 81       	ldd	r23, Z+1	; 0x01
    1164:	82 81       	ldd	r24, Z+2	; 0x02
    1166:	93 81       	ldd	r25, Z+3	; 0x03
    1168:	20 ea       	ldi	r18, 0xA0	; 160
    116a:	36 e8       	ldi	r19, 0x86	; 134
    116c:	41 e0       	ldi	r20, 0x01	; 1
    116e:	50 e0       	ldi	r21, 0x00	; 0
    1170:	0e 94 4a 30 	call	0x6094	; 0x6094 <__udivmodsi4>
    1174:	20 e1       	ldi	r18, 0x10	; 16
    1176:	37 e2       	ldi	r19, 0x27	; 39
    1178:	40 e0       	ldi	r20, 0x00	; 0
    117a:	50 e0       	ldi	r21, 0x00	; 0
    117c:	0e 94 4a 30 	call	0x6094	; 0x6094 <__udivmodsi4>
    1180:	28 ee       	ldi	r18, 0xE8	; 232
    1182:	33 e0       	ldi	r19, 0x03	; 3
    1184:	40 e0       	ldi	r20, 0x00	; 0
    1186:	50 e0       	ldi	r21, 0x00	; 0
    1188:	0e 94 4a 30 	call	0x6094	; 0x6094 <__udivmodsi4>
    118c:	24 e6       	ldi	r18, 0x64	; 100
    118e:	30 e0       	ldi	r19, 0x00	; 0
    1190:	40 e0       	ldi	r20, 0x00	; 0
    1192:	50 e0       	ldi	r21, 0x00	; 0
    1194:	0e 94 4a 30 	call	0x6094	; 0x6094 <__udivmodsi4>
    1198:	2a e0       	ldi	r18, 0x0A	; 10
    119a:	30 e0       	ldi	r19, 0x00	; 0
    119c:	40 e0       	ldi	r20, 0x00	; 0
    119e:	50 e0       	ldi	r21, 0x00	; 0
    11a0:	0e 94 4a 30 	call	0x6094	; 0x6094 <__udivmodsi4>
    11a4:	20 5d       	subi	r18, 0xD0	; 208
    11a6:	fe 01       	movw	r30, r28
    11a8:	e5 59       	subi	r30, 0x95	; 149
    11aa:	ff 4f       	sbci	r31, 0xFF	; 255
    11ac:	20 83       	st	Z, r18
			buffer[7+36*i]=((((timer1_start[i]%100000)%10000)%1000)%100)%10+0x30;
    11ae:	f8 01       	movw	r30, r16
    11b0:	60 81       	ld	r22, Z
    11b2:	71 81       	ldd	r23, Z+1	; 0x01
    11b4:	82 81       	ldd	r24, Z+2	; 0x02
    11b6:	93 81       	ldd	r25, Z+3	; 0x03
    11b8:	20 ea       	ldi	r18, 0xA0	; 160
    11ba:	36 e8       	ldi	r19, 0x86	; 134
    11bc:	41 e0       	ldi	r20, 0x01	; 1
    11be:	50 e0       	ldi	r21, 0x00	; 0
    11c0:	0e 94 4a 30 	call	0x6094	; 0x6094 <__udivmodsi4>
    11c4:	20 e1       	ldi	r18, 0x10	; 16
    11c6:	37 e2       	ldi	r19, 0x27	; 39
    11c8:	40 e0       	ldi	r20, 0x00	; 0
    11ca:	50 e0       	ldi	r21, 0x00	; 0
    11cc:	0e 94 4a 30 	call	0x6094	; 0x6094 <__udivmodsi4>
    11d0:	28 ee       	ldi	r18, 0xE8	; 232
    11d2:	33 e0       	ldi	r19, 0x03	; 3
    11d4:	40 e0       	ldi	r20, 0x00	; 0
    11d6:	50 e0       	ldi	r21, 0x00	; 0
    11d8:	0e 94 4a 30 	call	0x6094	; 0x6094 <__udivmodsi4>
    11dc:	24 e6       	ldi	r18, 0x64	; 100
    11de:	30 e0       	ldi	r19, 0x00	; 0
    11e0:	40 e0       	ldi	r20, 0x00	; 0
    11e2:	50 e0       	ldi	r21, 0x00	; 0
    11e4:	0e 94 4a 30 	call	0x6094	; 0x6094 <__udivmodsi4>
    11e8:	2a e0       	ldi	r18, 0x0A	; 10
    11ea:	30 e0       	ldi	r19, 0x00	; 0
    11ec:	40 e0       	ldi	r20, 0x00	; 0
    11ee:	50 e0       	ldi	r21, 0x00	; 0
    11f0:	0e 94 4a 30 	call	0x6094	; 0x6094 <__udivmodsi4>
    11f4:	60 5d       	subi	r22, 0xD0	; 208
    11f6:	fe 01       	movw	r30, r28
    11f8:	e4 59       	subi	r30, 0x94	; 148
    11fa:	ff 4f       	sbci	r31, 0xFF	; 255
    11fc:	60 83       	st	Z, r22
			
			buffer[8+36*i]=timer2_start[i]/100000+0x30;
    11fe:	87 01       	movw	r16, r14
    1200:	09 56       	subi	r16, 0x69	; 105
    1202:	1a 4f       	sbci	r17, 0xFA	; 250
    1204:	f8 01       	movw	r30, r16
    1206:	60 81       	ld	r22, Z
    1208:	71 81       	ldd	r23, Z+1	; 0x01
    120a:	82 81       	ldd	r24, Z+2	; 0x02
    120c:	93 81       	ldd	r25, Z+3	; 0x03
    120e:	20 ea       	ldi	r18, 0xA0	; 160
    1210:	36 e8       	ldi	r19, 0x86	; 134
    1212:	41 e0       	ldi	r20, 0x01	; 1
    1214:	50 e0       	ldi	r21, 0x00	; 0
    1216:	0e 94 4a 30 	call	0x6094	; 0x6094 <__udivmodsi4>
    121a:	20 5d       	subi	r18, 0xD0	; 208
    121c:	fe 01       	movw	r30, r28
    121e:	e3 59       	subi	r30, 0x93	; 147
    1220:	ff 4f       	sbci	r31, 0xFF	; 255
    1222:	20 83       	st	Z, r18
			buffer[9+36*i]=(timer2_start[i]%100000)/10000+0x30;
    1224:	f8 01       	movw	r30, r16
    1226:	60 81       	ld	r22, Z
    1228:	71 81       	ldd	r23, Z+1	; 0x01
    122a:	82 81       	ldd	r24, Z+2	; 0x02
    122c:	93 81       	ldd	r25, Z+3	; 0x03
    122e:	20 ea       	ldi	r18, 0xA0	; 160
    1230:	36 e8       	ldi	r19, 0x86	; 134
    1232:	41 e0       	ldi	r20, 0x01	; 1
    1234:	50 e0       	ldi	r21, 0x00	; 0
    1236:	0e 94 4a 30 	call	0x6094	; 0x6094 <__udivmodsi4>
    123a:	20 e1       	ldi	r18, 0x10	; 16
    123c:	37 e2       	ldi	r19, 0x27	; 39
    123e:	40 e0       	ldi	r20, 0x00	; 0
    1240:	50 e0       	ldi	r21, 0x00	; 0
    1242:	0e 94 4a 30 	call	0x6094	; 0x6094 <__udivmodsi4>
    1246:	20 5d       	subi	r18, 0xD0	; 208
    1248:	fe 01       	movw	r30, r28
    124a:	e2 59       	subi	r30, 0x92	; 146
    124c:	ff 4f       	sbci	r31, 0xFF	; 255
    124e:	20 83       	st	Z, r18
			buffer[10+36*i]=((timer2_start[i]%100000)%10000)/1000+0x30;
    1250:	f8 01       	movw	r30, r16
    1252:	60 81       	ld	r22, Z
    1254:	71 81       	ldd	r23, Z+1	; 0x01
    1256:	82 81       	ldd	r24, Z+2	; 0x02
    1258:	93 81       	ldd	r25, Z+3	; 0x03
    125a:	20 ea       	ldi	r18, 0xA0	; 160
    125c:	36 e8       	ldi	r19, 0x86	; 134
    125e:	41 e0       	ldi	r20, 0x01	; 1
    1260:	50 e0       	ldi	r21, 0x00	; 0
    1262:	0e 94 4a 30 	call	0x6094	; 0x6094 <__udivmodsi4>
    1266:	20 e1       	ldi	r18, 0x10	; 16
    1268:	37 e2       	ldi	r19, 0x27	; 39
    126a:	40 e0       	ldi	r20, 0x00	; 0
    126c:	50 e0       	ldi	r21, 0x00	; 0
    126e:	0e 94 4a 30 	call	0x6094	; 0x6094 <__udivmodsi4>
    1272:	28 ee       	ldi	r18, 0xE8	; 232
    1274:	33 e0       	ldi	r19, 0x03	; 3
    1276:	40 e0       	ldi	r20, 0x00	; 0
    1278:	50 e0       	ldi	r21, 0x00	; 0
    127a:	0e 94 4a 30 	call	0x6094	; 0x6094 <__udivmodsi4>
    127e:	20 5d       	subi	r18, 0xD0	; 208
    1280:	fe 01       	movw	r30, r28
    1282:	e1 59       	subi	r30, 0x91	; 145
    1284:	ff 4f       	sbci	r31, 0xFF	; 255
    1286:	20 83       	st	Z, r18
			buffer[11+36*i]=(((timer2_start[i]%100000)%10000)%1000)/100+0x30;
    1288:	f8 01       	movw	r30, r16
    128a:	60 81       	ld	r22, Z
    128c:	71 81       	ldd	r23, Z+1	; 0x01
    128e:	82 81       	ldd	r24, Z+2	; 0x02
    1290:	93 81       	ldd	r25, Z+3	; 0x03
    1292:	20 ea       	ldi	r18, 0xA0	; 160
    1294:	36 e8       	ldi	r19, 0x86	; 134
    1296:	41 e0       	ldi	r20, 0x01	; 1
    1298:	50 e0       	ldi	r21, 0x00	; 0
    129a:	0e 94 4a 30 	call	0x6094	; 0x6094 <__udivmodsi4>
    129e:	20 e1       	ldi	r18, 0x10	; 16
    12a0:	37 e2       	ldi	r19, 0x27	; 39
    12a2:	40 e0       	ldi	r20, 0x00	; 0
    12a4:	50 e0       	ldi	r21, 0x00	; 0
    12a6:	0e 94 4a 30 	call	0x6094	; 0x6094 <__udivmodsi4>
    12aa:	28 ee       	ldi	r18, 0xE8	; 232
    12ac:	33 e0       	ldi	r19, 0x03	; 3
    12ae:	40 e0       	ldi	r20, 0x00	; 0
    12b0:	50 e0       	ldi	r21, 0x00	; 0
    12b2:	0e 94 4a 30 	call	0x6094	; 0x6094 <__udivmodsi4>
    12b6:	24 e6       	ldi	r18, 0x64	; 100
    12b8:	30 e0       	ldi	r19, 0x00	; 0
    12ba:	40 e0       	ldi	r20, 0x00	; 0
    12bc:	50 e0       	ldi	r21, 0x00	; 0
    12be:	0e 94 4a 30 	call	0x6094	; 0x6094 <__udivmodsi4>
    12c2:	20 5d       	subi	r18, 0xD0	; 208
    12c4:	fe 01       	movw	r30, r28
    12c6:	e0 59       	subi	r30, 0x90	; 144
    12c8:	ff 4f       	sbci	r31, 0xFF	; 255
    12ca:	20 83       	st	Z, r18
			buffer[12+36*i]=((((timer2_start[i]%100000)%10000)%1000)%100)/10+0x30;
    12cc:	f8 01       	movw	r30, r16
    12ce:	60 81       	ld	r22, Z
    12d0:	71 81       	ldd	r23, Z+1	; 0x01
    12d2:	82 81       	ldd	r24, Z+2	; 0x02
    12d4:	93 81       	ldd	r25, Z+3	; 0x03
    12d6:	20 ea       	ldi	r18, 0xA0	; 160
    12d8:	36 e8       	ldi	r19, 0x86	; 134
    12da:	41 e0       	ldi	r20, 0x01	; 1
    12dc:	50 e0       	ldi	r21, 0x00	; 0
    12de:	0e 94 4a 30 	call	0x6094	; 0x6094 <__udivmodsi4>
    12e2:	20 e1       	ldi	r18, 0x10	; 16
    12e4:	37 e2       	ldi	r19, 0x27	; 39
    12e6:	40 e0       	ldi	r20, 0x00	; 0
    12e8:	50 e0       	ldi	r21, 0x00	; 0
    12ea:	0e 94 4a 30 	call	0x6094	; 0x6094 <__udivmodsi4>
    12ee:	28 ee       	ldi	r18, 0xE8	; 232
    12f0:	33 e0       	ldi	r19, 0x03	; 3
    12f2:	40 e0       	ldi	r20, 0x00	; 0
    12f4:	50 e0       	ldi	r21, 0x00	; 0
    12f6:	0e 94 4a 30 	call	0x6094	; 0x6094 <__udivmodsi4>
    12fa:	24 e6       	ldi	r18, 0x64	; 100
    12fc:	30 e0       	ldi	r19, 0x00	; 0
    12fe:	40 e0       	ldi	r20, 0x00	; 0
    1300:	50 e0       	ldi	r21, 0x00	; 0
    1302:	0e 94 4a 30 	call	0x6094	; 0x6094 <__udivmodsi4>
    1306:	2a e0       	ldi	r18, 0x0A	; 10
    1308:	30 e0       	ldi	r19, 0x00	; 0
    130a:	40 e0       	ldi	r20, 0x00	; 0
    130c:	50 e0       	ldi	r21, 0x00	; 0
    130e:	0e 94 4a 30 	call	0x6094	; 0x6094 <__udivmodsi4>
    1312:	20 5d       	subi	r18, 0xD0	; 208
    1314:	fe 01       	movw	r30, r28
    1316:	ef 58       	subi	r30, 0x8F	; 143
    1318:	ff 4f       	sbci	r31, 0xFF	; 255
    131a:	20 83       	st	Z, r18
			buffer[13+36*i]=((((timer2_start[i]%100000)%10000)%1000)%100)%10+0x30;
    131c:	f8 01       	movw	r30, r16
    131e:	60 81       	ld	r22, Z
    1320:	71 81       	ldd	r23, Z+1	; 0x01
    1322:	82 81       	ldd	r24, Z+2	; 0x02
    1324:	93 81       	ldd	r25, Z+3	; 0x03
    1326:	20 ea       	ldi	r18, 0xA0	; 160
    1328:	36 e8       	ldi	r19, 0x86	; 134
    132a:	41 e0       	ldi	r20, 0x01	; 1
    132c:	50 e0       	ldi	r21, 0x00	; 0
    132e:	0e 94 4a 30 	call	0x6094	; 0x6094 <__udivmodsi4>
    1332:	20 e1       	ldi	r18, 0x10	; 16
    1334:	37 e2       	ldi	r19, 0x27	; 39
    1336:	40 e0       	ldi	r20, 0x00	; 0
    1338:	50 e0       	ldi	r21, 0x00	; 0
    133a:	0e 94 4a 30 	call	0x6094	; 0x6094 <__udivmodsi4>
    133e:	28 ee       	ldi	r18, 0xE8	; 232
    1340:	33 e0       	ldi	r19, 0x03	; 3
    1342:	40 e0       	ldi	r20, 0x00	; 0
    1344:	50 e0       	ldi	r21, 0x00	; 0
    1346:	0e 94 4a 30 	call	0x6094	; 0x6094 <__udivmodsi4>
    134a:	24 e6       	ldi	r18, 0x64	; 100
    134c:	30 e0       	ldi	r19, 0x00	; 0
    134e:	40 e0       	ldi	r20, 0x00	; 0
    1350:	50 e0       	ldi	r21, 0x00	; 0
    1352:	0e 94 4a 30 	call	0x6094	; 0x6094 <__udivmodsi4>
    1356:	2a e0       	ldi	r18, 0x0A	; 10
    1358:	30 e0       	ldi	r19, 0x00	; 0
    135a:	40 e0       	ldi	r20, 0x00	; 0
    135c:	50 e0       	ldi	r21, 0x00	; 0
    135e:	0e 94 4a 30 	call	0x6094	; 0x6094 <__udivmodsi4>
    1362:	60 5d       	subi	r22, 0xD0	; 208
    1364:	fe 01       	movw	r30, r28
    1366:	ee 58       	subi	r30, 0x8E	; 142
    1368:	ff 4f       	sbci	r31, 0xFF	; 255
    136a:	60 83       	st	Z, r22
			
			buffer[14+36*i]=timer3_start[i]/100000+0x30;
    136c:	87 01       	movw	r16, r14
    136e:	01 52       	subi	r16, 0x21	; 33
    1370:	1a 4f       	sbci	r17, 0xFA	; 250
    1372:	f8 01       	movw	r30, r16
    1374:	60 81       	ld	r22, Z
    1376:	71 81       	ldd	r23, Z+1	; 0x01
    1378:	82 81       	ldd	r24, Z+2	; 0x02
    137a:	93 81       	ldd	r25, Z+3	; 0x03
    137c:	20 ea       	ldi	r18, 0xA0	; 160
    137e:	36 e8       	ldi	r19, 0x86	; 134
    1380:	41 e0       	ldi	r20, 0x01	; 1
    1382:	50 e0       	ldi	r21, 0x00	; 0
    1384:	0e 94 4a 30 	call	0x6094	; 0x6094 <__udivmodsi4>
    1388:	20 5d       	subi	r18, 0xD0	; 208
    138a:	fe 01       	movw	r30, r28
    138c:	ed 58       	subi	r30, 0x8D	; 141
    138e:	ff 4f       	sbci	r31, 0xFF	; 255
    1390:	20 83       	st	Z, r18
			buffer[15+36*i]=(timer3_start[i]%100000)/10000+0x30;
    1392:	f8 01       	movw	r30, r16
    1394:	60 81       	ld	r22, Z
    1396:	71 81       	ldd	r23, Z+1	; 0x01
    1398:	82 81       	ldd	r24, Z+2	; 0x02
    139a:	93 81       	ldd	r25, Z+3	; 0x03
    139c:	20 ea       	ldi	r18, 0xA0	; 160
    139e:	36 e8       	ldi	r19, 0x86	; 134
    13a0:	41 e0       	ldi	r20, 0x01	; 1
    13a2:	50 e0       	ldi	r21, 0x00	; 0
    13a4:	0e 94 4a 30 	call	0x6094	; 0x6094 <__udivmodsi4>
    13a8:	20 e1       	ldi	r18, 0x10	; 16
    13aa:	37 e2       	ldi	r19, 0x27	; 39
    13ac:	40 e0       	ldi	r20, 0x00	; 0
    13ae:	50 e0       	ldi	r21, 0x00	; 0
    13b0:	0e 94 4a 30 	call	0x6094	; 0x6094 <__udivmodsi4>
    13b4:	20 5d       	subi	r18, 0xD0	; 208
    13b6:	fe 01       	movw	r30, r28
    13b8:	ec 58       	subi	r30, 0x8C	; 140
    13ba:	ff 4f       	sbci	r31, 0xFF	; 255
    13bc:	20 83       	st	Z, r18
			buffer[16+36*i]=((timer3_start[i]%100000)%10000)/1000+0x30;
    13be:	f8 01       	movw	r30, r16
    13c0:	60 81       	ld	r22, Z
    13c2:	71 81       	ldd	r23, Z+1	; 0x01
    13c4:	82 81       	ldd	r24, Z+2	; 0x02
    13c6:	93 81       	ldd	r25, Z+3	; 0x03
    13c8:	20 ea       	ldi	r18, 0xA0	; 160
    13ca:	36 e8       	ldi	r19, 0x86	; 134
    13cc:	41 e0       	ldi	r20, 0x01	; 1
    13ce:	50 e0       	ldi	r21, 0x00	; 0
    13d0:	0e 94 4a 30 	call	0x6094	; 0x6094 <__udivmodsi4>
    13d4:	20 e1       	ldi	r18, 0x10	; 16
    13d6:	37 e2       	ldi	r19, 0x27	; 39
    13d8:	40 e0       	ldi	r20, 0x00	; 0
    13da:	50 e0       	ldi	r21, 0x00	; 0
    13dc:	0e 94 4a 30 	call	0x6094	; 0x6094 <__udivmodsi4>
    13e0:	28 ee       	ldi	r18, 0xE8	; 232
    13e2:	33 e0       	ldi	r19, 0x03	; 3
    13e4:	40 e0       	ldi	r20, 0x00	; 0
    13e6:	50 e0       	ldi	r21, 0x00	; 0
    13e8:	0e 94 4a 30 	call	0x6094	; 0x6094 <__udivmodsi4>
    13ec:	20 5d       	subi	r18, 0xD0	; 208
    13ee:	fe 01       	movw	r30, r28
    13f0:	eb 58       	subi	r30, 0x8B	; 139
    13f2:	ff 4f       	sbci	r31, 0xFF	; 255
    13f4:	20 83       	st	Z, r18
			buffer[17+36*i]=(((timer3_start[i]%100000)%10000)%1000)/100+0x30;
    13f6:	f8 01       	movw	r30, r16
    13f8:	60 81       	ld	r22, Z
    13fa:	71 81       	ldd	r23, Z+1	; 0x01
    13fc:	82 81       	ldd	r24, Z+2	; 0x02
    13fe:	93 81       	ldd	r25, Z+3	; 0x03
    1400:	20 ea       	ldi	r18, 0xA0	; 160
    1402:	36 e8       	ldi	r19, 0x86	; 134
    1404:	41 e0       	ldi	r20, 0x01	; 1
    1406:	50 e0       	ldi	r21, 0x00	; 0
    1408:	0e 94 4a 30 	call	0x6094	; 0x6094 <__udivmodsi4>
    140c:	20 e1       	ldi	r18, 0x10	; 16
    140e:	37 e2       	ldi	r19, 0x27	; 39
    1410:	40 e0       	ldi	r20, 0x00	; 0
    1412:	50 e0       	ldi	r21, 0x00	; 0
    1414:	0e 94 4a 30 	call	0x6094	; 0x6094 <__udivmodsi4>
    1418:	28 ee       	ldi	r18, 0xE8	; 232
    141a:	33 e0       	ldi	r19, 0x03	; 3
    141c:	40 e0       	ldi	r20, 0x00	; 0
    141e:	50 e0       	ldi	r21, 0x00	; 0
    1420:	0e 94 4a 30 	call	0x6094	; 0x6094 <__udivmodsi4>
    1424:	24 e6       	ldi	r18, 0x64	; 100
    1426:	30 e0       	ldi	r19, 0x00	; 0
    1428:	40 e0       	ldi	r20, 0x00	; 0
    142a:	50 e0       	ldi	r21, 0x00	; 0
    142c:	0e 94 4a 30 	call	0x6094	; 0x6094 <__udivmodsi4>
    1430:	20 5d       	subi	r18, 0xD0	; 208
    1432:	fe 01       	movw	r30, r28
    1434:	ea 58       	subi	r30, 0x8A	; 138
    1436:	ff 4f       	sbci	r31, 0xFF	; 255
    1438:	20 83       	st	Z, r18
			buffer[18+36*i]=((((timer3_start[i]%100000)%10000)%1000)%100)/10+0x30;
    143a:	f8 01       	movw	r30, r16
    143c:	60 81       	ld	r22, Z
    143e:	71 81       	ldd	r23, Z+1	; 0x01
    1440:	82 81       	ldd	r24, Z+2	; 0x02
    1442:	93 81       	ldd	r25, Z+3	; 0x03
    1444:	20 ea       	ldi	r18, 0xA0	; 160
    1446:	36 e8       	ldi	r19, 0x86	; 134
    1448:	41 e0       	ldi	r20, 0x01	; 1
    144a:	50 e0       	ldi	r21, 0x00	; 0
    144c:	0e 94 4a 30 	call	0x6094	; 0x6094 <__udivmodsi4>
    1450:	20 e1       	ldi	r18, 0x10	; 16
    1452:	37 e2       	ldi	r19, 0x27	; 39
    1454:	40 e0       	ldi	r20, 0x00	; 0
    1456:	50 e0       	ldi	r21, 0x00	; 0
    1458:	0e 94 4a 30 	call	0x6094	; 0x6094 <__udivmodsi4>
    145c:	28 ee       	ldi	r18, 0xE8	; 232
    145e:	33 e0       	ldi	r19, 0x03	; 3
    1460:	40 e0       	ldi	r20, 0x00	; 0
    1462:	50 e0       	ldi	r21, 0x00	; 0
    1464:	0e 94 4a 30 	call	0x6094	; 0x6094 <__udivmodsi4>
    1468:	24 e6       	ldi	r18, 0x64	; 100
    146a:	30 e0       	ldi	r19, 0x00	; 0
    146c:	40 e0       	ldi	r20, 0x00	; 0
    146e:	50 e0       	ldi	r21, 0x00	; 0
    1470:	0e 94 4a 30 	call	0x6094	; 0x6094 <__udivmodsi4>
    1474:	2a e0       	ldi	r18, 0x0A	; 10
    1476:	30 e0       	ldi	r19, 0x00	; 0
    1478:	40 e0       	ldi	r20, 0x00	; 0
    147a:	50 e0       	ldi	r21, 0x00	; 0
    147c:	0e 94 4a 30 	call	0x6094	; 0x6094 <__udivmodsi4>
    1480:	20 5d       	subi	r18, 0xD0	; 208
    1482:	fe 01       	movw	r30, r28
    1484:	e9 58       	subi	r30, 0x89	; 137
    1486:	ff 4f       	sbci	r31, 0xFF	; 255
    1488:	20 83       	st	Z, r18
			buffer[19+36*i]=((((timer3_start[i]%100000)%10000)%1000)%100)%10+0x30;
    148a:	f8 01       	movw	r30, r16
    148c:	60 81       	ld	r22, Z
    148e:	71 81       	ldd	r23, Z+1	; 0x01
    1490:	82 81       	ldd	r24, Z+2	; 0x02
    1492:	93 81       	ldd	r25, Z+3	; 0x03
    1494:	20 ea       	ldi	r18, 0xA0	; 160
    1496:	36 e8       	ldi	r19, 0x86	; 134
    1498:	41 e0       	ldi	r20, 0x01	; 1
    149a:	50 e0       	ldi	r21, 0x00	; 0
    149c:	0e 94 4a 30 	call	0x6094	; 0x6094 <__udivmodsi4>
    14a0:	20 e1       	ldi	r18, 0x10	; 16
    14a2:	37 e2       	ldi	r19, 0x27	; 39
    14a4:	40 e0       	ldi	r20, 0x00	; 0
    14a6:	50 e0       	ldi	r21, 0x00	; 0
    14a8:	0e 94 4a 30 	call	0x6094	; 0x6094 <__udivmodsi4>
    14ac:	28 ee       	ldi	r18, 0xE8	; 232
    14ae:	33 e0       	ldi	r19, 0x03	; 3
    14b0:	40 e0       	ldi	r20, 0x00	; 0
    14b2:	50 e0       	ldi	r21, 0x00	; 0
    14b4:	0e 94 4a 30 	call	0x6094	; 0x6094 <__udivmodsi4>
    14b8:	24 e6       	ldi	r18, 0x64	; 100
    14ba:	30 e0       	ldi	r19, 0x00	; 0
    14bc:	40 e0       	ldi	r20, 0x00	; 0
    14be:	50 e0       	ldi	r21, 0x00	; 0
    14c0:	0e 94 4a 30 	call	0x6094	; 0x6094 <__udivmodsi4>
    14c4:	2a e0       	ldi	r18, 0x0A	; 10
    14c6:	30 e0       	ldi	r19, 0x00	; 0
    14c8:	40 e0       	ldi	r20, 0x00	; 0
    14ca:	50 e0       	ldi	r21, 0x00	; 0
    14cc:	0e 94 4a 30 	call	0x6094	; 0x6094 <__udivmodsi4>
    14d0:	60 5d       	subi	r22, 0xD0	; 208
    14d2:	fe 01       	movw	r30, r28
    14d4:	e8 58       	subi	r30, 0x88	; 136
    14d6:	ff 4f       	sbci	r31, 0xFF	; 255
    14d8:	60 83       	st	Z, r22
			
			buffer[20+36*i]=timer1_stop[i]/100000+0x30;
    14da:	87 01       	movw	r16, r14
    14dc:	0d 58       	subi	r16, 0x8D	; 141
    14de:	1a 4f       	sbci	r17, 0xFA	; 250
    14e0:	f8 01       	movw	r30, r16
    14e2:	60 81       	ld	r22, Z
    14e4:	71 81       	ldd	r23, Z+1	; 0x01
    14e6:	82 81       	ldd	r24, Z+2	; 0x02
    14e8:	93 81       	ldd	r25, Z+3	; 0x03
    14ea:	20 ea       	ldi	r18, 0xA0	; 160
    14ec:	36 e8       	ldi	r19, 0x86	; 134
    14ee:	41 e0       	ldi	r20, 0x01	; 1
    14f0:	50 e0       	ldi	r21, 0x00	; 0
    14f2:	0e 94 4a 30 	call	0x6094	; 0x6094 <__udivmodsi4>
    14f6:	20 5d       	subi	r18, 0xD0	; 208
    14f8:	fe 01       	movw	r30, r28
    14fa:	e7 58       	subi	r30, 0x87	; 135
    14fc:	ff 4f       	sbci	r31, 0xFF	; 255
    14fe:	20 83       	st	Z, r18
			buffer[21+36*i]=(timer1_stop[i]%100000)/10000+0x30;
    1500:	f8 01       	movw	r30, r16
    1502:	60 81       	ld	r22, Z
    1504:	71 81       	ldd	r23, Z+1	; 0x01
    1506:	82 81       	ldd	r24, Z+2	; 0x02
    1508:	93 81       	ldd	r25, Z+3	; 0x03
    150a:	20 ea       	ldi	r18, 0xA0	; 160
    150c:	36 e8       	ldi	r19, 0x86	; 134
    150e:	41 e0       	ldi	r20, 0x01	; 1
    1510:	50 e0       	ldi	r21, 0x00	; 0
    1512:	0e 94 4a 30 	call	0x6094	; 0x6094 <__udivmodsi4>
    1516:	20 e1       	ldi	r18, 0x10	; 16
    1518:	37 e2       	ldi	r19, 0x27	; 39
    151a:	40 e0       	ldi	r20, 0x00	; 0
    151c:	50 e0       	ldi	r21, 0x00	; 0
    151e:	0e 94 4a 30 	call	0x6094	; 0x6094 <__udivmodsi4>
    1522:	20 5d       	subi	r18, 0xD0	; 208
    1524:	fe 01       	movw	r30, r28
    1526:	e6 58       	subi	r30, 0x86	; 134
    1528:	ff 4f       	sbci	r31, 0xFF	; 255
    152a:	20 83       	st	Z, r18
			buffer[22+36*i]=((timer1_stop[i]%100000)%10000)/1000+0x30;
    152c:	f8 01       	movw	r30, r16
    152e:	60 81       	ld	r22, Z
    1530:	71 81       	ldd	r23, Z+1	; 0x01
    1532:	82 81       	ldd	r24, Z+2	; 0x02
    1534:	93 81       	ldd	r25, Z+3	; 0x03
    1536:	20 ea       	ldi	r18, 0xA0	; 160
    1538:	36 e8       	ldi	r19, 0x86	; 134
    153a:	41 e0       	ldi	r20, 0x01	; 1
    153c:	50 e0       	ldi	r21, 0x00	; 0
    153e:	0e 94 4a 30 	call	0x6094	; 0x6094 <__udivmodsi4>
    1542:	20 e1       	ldi	r18, 0x10	; 16
    1544:	37 e2       	ldi	r19, 0x27	; 39
    1546:	40 e0       	ldi	r20, 0x00	; 0
    1548:	50 e0       	ldi	r21, 0x00	; 0
    154a:	0e 94 4a 30 	call	0x6094	; 0x6094 <__udivmodsi4>
    154e:	28 ee       	ldi	r18, 0xE8	; 232
    1550:	33 e0       	ldi	r19, 0x03	; 3
    1552:	40 e0       	ldi	r20, 0x00	; 0
    1554:	50 e0       	ldi	r21, 0x00	; 0
    1556:	0e 94 4a 30 	call	0x6094	; 0x6094 <__udivmodsi4>
    155a:	20 5d       	subi	r18, 0xD0	; 208
    155c:	fe 01       	movw	r30, r28
    155e:	e5 58       	subi	r30, 0x85	; 133
    1560:	ff 4f       	sbci	r31, 0xFF	; 255
    1562:	20 83       	st	Z, r18
			buffer[23+36*i]=(((timer1_stop[i]%100000)%10000)%1000)/100+0x30;
    1564:	f8 01       	movw	r30, r16
    1566:	60 81       	ld	r22, Z
    1568:	71 81       	ldd	r23, Z+1	; 0x01
    156a:	82 81       	ldd	r24, Z+2	; 0x02
    156c:	93 81       	ldd	r25, Z+3	; 0x03
    156e:	20 ea       	ldi	r18, 0xA0	; 160
    1570:	36 e8       	ldi	r19, 0x86	; 134
    1572:	41 e0       	ldi	r20, 0x01	; 1
    1574:	50 e0       	ldi	r21, 0x00	; 0
    1576:	0e 94 4a 30 	call	0x6094	; 0x6094 <__udivmodsi4>
    157a:	20 e1       	ldi	r18, 0x10	; 16
    157c:	37 e2       	ldi	r19, 0x27	; 39
    157e:	40 e0       	ldi	r20, 0x00	; 0
    1580:	50 e0       	ldi	r21, 0x00	; 0
    1582:	0e 94 4a 30 	call	0x6094	; 0x6094 <__udivmodsi4>
    1586:	28 ee       	ldi	r18, 0xE8	; 232
    1588:	33 e0       	ldi	r19, 0x03	; 3
    158a:	40 e0       	ldi	r20, 0x00	; 0
    158c:	50 e0       	ldi	r21, 0x00	; 0
    158e:	0e 94 4a 30 	call	0x6094	; 0x6094 <__udivmodsi4>
    1592:	24 e6       	ldi	r18, 0x64	; 100
    1594:	30 e0       	ldi	r19, 0x00	; 0
    1596:	40 e0       	ldi	r20, 0x00	; 0
    1598:	50 e0       	ldi	r21, 0x00	; 0
    159a:	0e 94 4a 30 	call	0x6094	; 0x6094 <__udivmodsi4>
    159e:	20 5d       	subi	r18, 0xD0	; 208
    15a0:	fe 01       	movw	r30, r28
    15a2:	e4 58       	subi	r30, 0x84	; 132
    15a4:	ff 4f       	sbci	r31, 0xFF	; 255
    15a6:	20 83       	st	Z, r18
			buffer[24+36*i]=((((timer1_stop[i]%100000)%10000)%1000)%100)/10+0x30;
    15a8:	f8 01       	movw	r30, r16
    15aa:	60 81       	ld	r22, Z
    15ac:	71 81       	ldd	r23, Z+1	; 0x01
    15ae:	82 81       	ldd	r24, Z+2	; 0x02
    15b0:	93 81       	ldd	r25, Z+3	; 0x03
    15b2:	20 ea       	ldi	r18, 0xA0	; 160
    15b4:	36 e8       	ldi	r19, 0x86	; 134
    15b6:	41 e0       	ldi	r20, 0x01	; 1
    15b8:	50 e0       	ldi	r21, 0x00	; 0
    15ba:	0e 94 4a 30 	call	0x6094	; 0x6094 <__udivmodsi4>
    15be:	20 e1       	ldi	r18, 0x10	; 16
    15c0:	37 e2       	ldi	r19, 0x27	; 39
    15c2:	40 e0       	ldi	r20, 0x00	; 0
    15c4:	50 e0       	ldi	r21, 0x00	; 0
    15c6:	0e 94 4a 30 	call	0x6094	; 0x6094 <__udivmodsi4>
    15ca:	28 ee       	ldi	r18, 0xE8	; 232
    15cc:	33 e0       	ldi	r19, 0x03	; 3
    15ce:	40 e0       	ldi	r20, 0x00	; 0
    15d0:	50 e0       	ldi	r21, 0x00	; 0
    15d2:	0e 94 4a 30 	call	0x6094	; 0x6094 <__udivmodsi4>
    15d6:	24 e6       	ldi	r18, 0x64	; 100
    15d8:	30 e0       	ldi	r19, 0x00	; 0
    15da:	40 e0       	ldi	r20, 0x00	; 0
    15dc:	50 e0       	ldi	r21, 0x00	; 0
    15de:	0e 94 4a 30 	call	0x6094	; 0x6094 <__udivmodsi4>
    15e2:	2a e0       	ldi	r18, 0x0A	; 10
    15e4:	30 e0       	ldi	r19, 0x00	; 0
    15e6:	40 e0       	ldi	r20, 0x00	; 0
    15e8:	50 e0       	ldi	r21, 0x00	; 0
    15ea:	0e 94 4a 30 	call	0x6094	; 0x6094 <__udivmodsi4>
    15ee:	20 5d       	subi	r18, 0xD0	; 208
    15f0:	fe 01       	movw	r30, r28
    15f2:	e3 58       	subi	r30, 0x83	; 131
    15f4:	ff 4f       	sbci	r31, 0xFF	; 255
    15f6:	20 83       	st	Z, r18
			buffer[25+36*i]=((((timer1_stop[i]%100000)%10000)%1000)%100)%10+0x30;
    15f8:	f8 01       	movw	r30, r16
    15fa:	60 81       	ld	r22, Z
    15fc:	71 81       	ldd	r23, Z+1	; 0x01
    15fe:	82 81       	ldd	r24, Z+2	; 0x02
    1600:	93 81       	ldd	r25, Z+3	; 0x03
    1602:	20 ea       	ldi	r18, 0xA0	; 160
    1604:	36 e8       	ldi	r19, 0x86	; 134
    1606:	41 e0       	ldi	r20, 0x01	; 1
    1608:	50 e0       	ldi	r21, 0x00	; 0
    160a:	0e 94 4a 30 	call	0x6094	; 0x6094 <__udivmodsi4>
    160e:	20 e1       	ldi	r18, 0x10	; 16
    1610:	37 e2       	ldi	r19, 0x27	; 39
    1612:	40 e0       	ldi	r20, 0x00	; 0
    1614:	50 e0       	ldi	r21, 0x00	; 0
    1616:	0e 94 4a 30 	call	0x6094	; 0x6094 <__udivmodsi4>
    161a:	28 ee       	ldi	r18, 0xE8	; 232
    161c:	33 e0       	ldi	r19, 0x03	; 3
    161e:	40 e0       	ldi	r20, 0x00	; 0
    1620:	50 e0       	ldi	r21, 0x00	; 0
    1622:	0e 94 4a 30 	call	0x6094	; 0x6094 <__udivmodsi4>
    1626:	24 e6       	ldi	r18, 0x64	; 100
    1628:	30 e0       	ldi	r19, 0x00	; 0
    162a:	40 e0       	ldi	r20, 0x00	; 0
    162c:	50 e0       	ldi	r21, 0x00	; 0
    162e:	0e 94 4a 30 	call	0x6094	; 0x6094 <__udivmodsi4>
    1632:	2a e0       	ldi	r18, 0x0A	; 10
    1634:	30 e0       	ldi	r19, 0x00	; 0
    1636:	40 e0       	ldi	r20, 0x00	; 0
    1638:	50 e0       	ldi	r21, 0x00	; 0
    163a:	0e 94 4a 30 	call	0x6094	; 0x6094 <__udivmodsi4>
    163e:	60 5d       	subi	r22, 0xD0	; 208
    1640:	fe 01       	movw	r30, r28
    1642:	e2 58       	subi	r30, 0x82	; 130
    1644:	ff 4f       	sbci	r31, 0xFF	; 255
    1646:	60 83       	st	Z, r22
			
			buffer[26+36*i]=timer2_stop[i]/100000+0x30;
    1648:	87 01       	movw	r16, r14
    164a:	05 54       	subi	r16, 0x45	; 69
    164c:	1a 4f       	sbci	r17, 0xFA	; 250
    164e:	f8 01       	movw	r30, r16
    1650:	60 81       	ld	r22, Z
    1652:	71 81       	ldd	r23, Z+1	; 0x01
    1654:	82 81       	ldd	r24, Z+2	; 0x02
    1656:	93 81       	ldd	r25, Z+3	; 0x03
    1658:	20 ea       	ldi	r18, 0xA0	; 160
    165a:	36 e8       	ldi	r19, 0x86	; 134
    165c:	41 e0       	ldi	r20, 0x01	; 1
    165e:	50 e0       	ldi	r21, 0x00	; 0
    1660:	0e 94 4a 30 	call	0x6094	; 0x6094 <__udivmodsi4>
    1664:	20 5d       	subi	r18, 0xD0	; 208
    1666:	fe 01       	movw	r30, r28
    1668:	e1 58       	subi	r30, 0x81	; 129
    166a:	ff 4f       	sbci	r31, 0xFF	; 255
    166c:	20 83       	st	Z, r18
			buffer[27+36*i]=(timer2_stop[i]%100000)/10000+0x30;
    166e:	f8 01       	movw	r30, r16
    1670:	60 81       	ld	r22, Z
    1672:	71 81       	ldd	r23, Z+1	; 0x01
    1674:	82 81       	ldd	r24, Z+2	; 0x02
    1676:	93 81       	ldd	r25, Z+3	; 0x03
    1678:	20 ea       	ldi	r18, 0xA0	; 160
    167a:	36 e8       	ldi	r19, 0x86	; 134
    167c:	41 e0       	ldi	r20, 0x01	; 1
    167e:	50 e0       	ldi	r21, 0x00	; 0
    1680:	0e 94 4a 30 	call	0x6094	; 0x6094 <__udivmodsi4>
    1684:	20 e1       	ldi	r18, 0x10	; 16
    1686:	37 e2       	ldi	r19, 0x27	; 39
    1688:	40 e0       	ldi	r20, 0x00	; 0
    168a:	50 e0       	ldi	r21, 0x00	; 0
    168c:	0e 94 4a 30 	call	0x6094	; 0x6094 <__udivmodsi4>
    1690:	20 5d       	subi	r18, 0xD0	; 208
    1692:	fe 01       	movw	r30, r28
    1694:	e0 58       	subi	r30, 0x80	; 128
    1696:	ff 4f       	sbci	r31, 0xFF	; 255
    1698:	20 83       	st	Z, r18
			buffer[28+36*i]=((timer2_stop[i]%100000)%10000)/1000+0x30;
    169a:	f8 01       	movw	r30, r16
    169c:	60 81       	ld	r22, Z
    169e:	71 81       	ldd	r23, Z+1	; 0x01
    16a0:	82 81       	ldd	r24, Z+2	; 0x02
    16a2:	93 81       	ldd	r25, Z+3	; 0x03
    16a4:	20 ea       	ldi	r18, 0xA0	; 160
    16a6:	36 e8       	ldi	r19, 0x86	; 134
    16a8:	41 e0       	ldi	r20, 0x01	; 1
    16aa:	50 e0       	ldi	r21, 0x00	; 0
    16ac:	0e 94 4a 30 	call	0x6094	; 0x6094 <__udivmodsi4>
    16b0:	20 e1       	ldi	r18, 0x10	; 16
    16b2:	37 e2       	ldi	r19, 0x27	; 39
    16b4:	40 e0       	ldi	r20, 0x00	; 0
    16b6:	50 e0       	ldi	r21, 0x00	; 0
    16b8:	0e 94 4a 30 	call	0x6094	; 0x6094 <__udivmodsi4>
    16bc:	28 ee       	ldi	r18, 0xE8	; 232
    16be:	33 e0       	ldi	r19, 0x03	; 3
    16c0:	40 e0       	ldi	r20, 0x00	; 0
    16c2:	50 e0       	ldi	r21, 0x00	; 0
    16c4:	0e 94 4a 30 	call	0x6094	; 0x6094 <__udivmodsi4>
    16c8:	20 5d       	subi	r18, 0xD0	; 208
    16ca:	fe 01       	movw	r30, r28
    16cc:	ef 57       	subi	r30, 0x7F	; 127
    16ce:	ff 4f       	sbci	r31, 0xFF	; 255
    16d0:	20 83       	st	Z, r18
			buffer[29+36*i]=(((timer2_stop[i]%100000)%10000)%1000)/100+0x30;
    16d2:	f8 01       	movw	r30, r16
    16d4:	60 81       	ld	r22, Z
    16d6:	71 81       	ldd	r23, Z+1	; 0x01
    16d8:	82 81       	ldd	r24, Z+2	; 0x02
    16da:	93 81       	ldd	r25, Z+3	; 0x03
    16dc:	20 ea       	ldi	r18, 0xA0	; 160
    16de:	36 e8       	ldi	r19, 0x86	; 134
    16e0:	41 e0       	ldi	r20, 0x01	; 1
    16e2:	50 e0       	ldi	r21, 0x00	; 0
    16e4:	0e 94 4a 30 	call	0x6094	; 0x6094 <__udivmodsi4>
    16e8:	20 e1       	ldi	r18, 0x10	; 16
    16ea:	37 e2       	ldi	r19, 0x27	; 39
    16ec:	40 e0       	ldi	r20, 0x00	; 0
    16ee:	50 e0       	ldi	r21, 0x00	; 0
    16f0:	0e 94 4a 30 	call	0x6094	; 0x6094 <__udivmodsi4>
    16f4:	28 ee       	ldi	r18, 0xE8	; 232
    16f6:	33 e0       	ldi	r19, 0x03	; 3
    16f8:	40 e0       	ldi	r20, 0x00	; 0
    16fa:	50 e0       	ldi	r21, 0x00	; 0
    16fc:	0e 94 4a 30 	call	0x6094	; 0x6094 <__udivmodsi4>
    1700:	24 e6       	ldi	r18, 0x64	; 100
    1702:	30 e0       	ldi	r19, 0x00	; 0
    1704:	40 e0       	ldi	r20, 0x00	; 0
    1706:	50 e0       	ldi	r21, 0x00	; 0
    1708:	0e 94 4a 30 	call	0x6094	; 0x6094 <__udivmodsi4>
    170c:	20 5d       	subi	r18, 0xD0	; 208
    170e:	fe 01       	movw	r30, r28
    1710:	ee 57       	subi	r30, 0x7E	; 126
    1712:	ff 4f       	sbci	r31, 0xFF	; 255
    1714:	20 83       	st	Z, r18
			buffer[30+36*i]=((((timer2_stop[i]%100000)%10000)%1000)%100)/10+0x30;
    1716:	f8 01       	movw	r30, r16
    1718:	60 81       	ld	r22, Z
    171a:	71 81       	ldd	r23, Z+1	; 0x01
    171c:	82 81       	ldd	r24, Z+2	; 0x02
    171e:	93 81       	ldd	r25, Z+3	; 0x03
    1720:	20 ea       	ldi	r18, 0xA0	; 160
    1722:	36 e8       	ldi	r19, 0x86	; 134
    1724:	41 e0       	ldi	r20, 0x01	; 1
    1726:	50 e0       	ldi	r21, 0x00	; 0
    1728:	0e 94 4a 30 	call	0x6094	; 0x6094 <__udivmodsi4>
    172c:	20 e1       	ldi	r18, 0x10	; 16
    172e:	37 e2       	ldi	r19, 0x27	; 39
    1730:	40 e0       	ldi	r20, 0x00	; 0
    1732:	50 e0       	ldi	r21, 0x00	; 0
    1734:	0e 94 4a 30 	call	0x6094	; 0x6094 <__udivmodsi4>
    1738:	28 ee       	ldi	r18, 0xE8	; 232
    173a:	33 e0       	ldi	r19, 0x03	; 3
    173c:	40 e0       	ldi	r20, 0x00	; 0
    173e:	50 e0       	ldi	r21, 0x00	; 0
    1740:	0e 94 4a 30 	call	0x6094	; 0x6094 <__udivmodsi4>
    1744:	24 e6       	ldi	r18, 0x64	; 100
    1746:	30 e0       	ldi	r19, 0x00	; 0
    1748:	40 e0       	ldi	r20, 0x00	; 0
    174a:	50 e0       	ldi	r21, 0x00	; 0
    174c:	0e 94 4a 30 	call	0x6094	; 0x6094 <__udivmodsi4>
    1750:	2a e0       	ldi	r18, 0x0A	; 10
    1752:	30 e0       	ldi	r19, 0x00	; 0
    1754:	40 e0       	ldi	r20, 0x00	; 0
    1756:	50 e0       	ldi	r21, 0x00	; 0
    1758:	0e 94 4a 30 	call	0x6094	; 0x6094 <__udivmodsi4>
    175c:	20 5d       	subi	r18, 0xD0	; 208
    175e:	fe 01       	movw	r30, r28
    1760:	ed 57       	subi	r30, 0x7D	; 125
    1762:	ff 4f       	sbci	r31, 0xFF	; 255
    1764:	20 83       	st	Z, r18
			buffer[31+36*i]=((((timer2_stop[i]%100000)%10000)%1000)%100)%10+0x30;
    1766:	f8 01       	movw	r30, r16
    1768:	60 81       	ld	r22, Z
    176a:	71 81       	ldd	r23, Z+1	; 0x01
    176c:	82 81       	ldd	r24, Z+2	; 0x02
    176e:	93 81       	ldd	r25, Z+3	; 0x03
    1770:	20 ea       	ldi	r18, 0xA0	; 160
    1772:	36 e8       	ldi	r19, 0x86	; 134
    1774:	41 e0       	ldi	r20, 0x01	; 1
    1776:	50 e0       	ldi	r21, 0x00	; 0
    1778:	0e 94 4a 30 	call	0x6094	; 0x6094 <__udivmodsi4>
    177c:	20 e1       	ldi	r18, 0x10	; 16
    177e:	37 e2       	ldi	r19, 0x27	; 39
    1780:	40 e0       	ldi	r20, 0x00	; 0
    1782:	50 e0       	ldi	r21, 0x00	; 0
    1784:	0e 94 4a 30 	call	0x6094	; 0x6094 <__udivmodsi4>
    1788:	28 ee       	ldi	r18, 0xE8	; 232
    178a:	33 e0       	ldi	r19, 0x03	; 3
    178c:	40 e0       	ldi	r20, 0x00	; 0
    178e:	50 e0       	ldi	r21, 0x00	; 0
    1790:	0e 94 4a 30 	call	0x6094	; 0x6094 <__udivmodsi4>
    1794:	24 e6       	ldi	r18, 0x64	; 100
    1796:	30 e0       	ldi	r19, 0x00	; 0
    1798:	40 e0       	ldi	r20, 0x00	; 0
    179a:	50 e0       	ldi	r21, 0x00	; 0
    179c:	0e 94 4a 30 	call	0x6094	; 0x6094 <__udivmodsi4>
    17a0:	2a e0       	ldi	r18, 0x0A	; 10
    17a2:	30 e0       	ldi	r19, 0x00	; 0
    17a4:	40 e0       	ldi	r20, 0x00	; 0
    17a6:	50 e0       	ldi	r21, 0x00	; 0
    17a8:	0e 94 4a 30 	call	0x6094	; 0x6094 <__udivmodsi4>
    17ac:	60 5d       	subi	r22, 0xD0	; 208
    17ae:	fe 01       	movw	r30, r28
    17b0:	ec 57       	subi	r30, 0x7C	; 124
    17b2:	ff 4f       	sbci	r31, 0xFF	; 255
    17b4:	60 83       	st	Z, r22
			
			buffer[32+36*i]=timer3_stop[i]/100000+0x30;
    17b6:	83 e0       	ldi	r24, 0x03	; 3
    17b8:	96 e0       	ldi	r25, 0x06	; 6
    17ba:	e8 0e       	add	r14, r24
    17bc:	f9 1e       	adc	r15, r25
    17be:	f7 01       	movw	r30, r14
    17c0:	60 81       	ld	r22, Z
    17c2:	71 81       	ldd	r23, Z+1	; 0x01
    17c4:	82 81       	ldd	r24, Z+2	; 0x02
    17c6:	93 81       	ldd	r25, Z+3	; 0x03
    17c8:	20 ea       	ldi	r18, 0xA0	; 160
    17ca:	36 e8       	ldi	r19, 0x86	; 134
    17cc:	41 e0       	ldi	r20, 0x01	; 1
    17ce:	50 e0       	ldi	r21, 0x00	; 0
    17d0:	0e 94 4a 30 	call	0x6094	; 0x6094 <__udivmodsi4>
    17d4:	20 5d       	subi	r18, 0xD0	; 208
    17d6:	fe 01       	movw	r30, r28
    17d8:	eb 57       	subi	r30, 0x7B	; 123
    17da:	ff 4f       	sbci	r31, 0xFF	; 255
    17dc:	20 83       	st	Z, r18
			buffer[33+36*i]=(timer3_stop[i]%100000)/10000+0x30;
    17de:	f7 01       	movw	r30, r14
    17e0:	60 81       	ld	r22, Z
    17e2:	71 81       	ldd	r23, Z+1	; 0x01
    17e4:	82 81       	ldd	r24, Z+2	; 0x02
    17e6:	93 81       	ldd	r25, Z+3	; 0x03
    17e8:	20 ea       	ldi	r18, 0xA0	; 160
    17ea:	36 e8       	ldi	r19, 0x86	; 134
    17ec:	41 e0       	ldi	r20, 0x01	; 1
    17ee:	50 e0       	ldi	r21, 0x00	; 0
    17f0:	0e 94 4a 30 	call	0x6094	; 0x6094 <__udivmodsi4>
    17f4:	20 e1       	ldi	r18, 0x10	; 16
    17f6:	37 e2       	ldi	r19, 0x27	; 39
    17f8:	40 e0       	ldi	r20, 0x00	; 0
    17fa:	50 e0       	ldi	r21, 0x00	; 0
    17fc:	0e 94 4a 30 	call	0x6094	; 0x6094 <__udivmodsi4>
    1800:	20 5d       	subi	r18, 0xD0	; 208
    1802:	fe 01       	movw	r30, r28
    1804:	ea 57       	subi	r30, 0x7A	; 122
    1806:	ff 4f       	sbci	r31, 0xFF	; 255
    1808:	20 83       	st	Z, r18
			buffer[34+36*i]=((timer3_stop[i]%100000)%10000)/1000+0x30;
    180a:	f7 01       	movw	r30, r14
    180c:	60 81       	ld	r22, Z
    180e:	71 81       	ldd	r23, Z+1	; 0x01
    1810:	82 81       	ldd	r24, Z+2	; 0x02
    1812:	93 81       	ldd	r25, Z+3	; 0x03
    1814:	20 ea       	ldi	r18, 0xA0	; 160
    1816:	36 e8       	ldi	r19, 0x86	; 134
    1818:	41 e0       	ldi	r20, 0x01	; 1
    181a:	50 e0       	ldi	r21, 0x00	; 0
    181c:	0e 94 4a 30 	call	0x6094	; 0x6094 <__udivmodsi4>
    1820:	20 e1       	ldi	r18, 0x10	; 16
    1822:	37 e2       	ldi	r19, 0x27	; 39
    1824:	40 e0       	ldi	r20, 0x00	; 0
    1826:	50 e0       	ldi	r21, 0x00	; 0
    1828:	0e 94 4a 30 	call	0x6094	; 0x6094 <__udivmodsi4>
    182c:	28 ee       	ldi	r18, 0xE8	; 232
    182e:	33 e0       	ldi	r19, 0x03	; 3
    1830:	40 e0       	ldi	r20, 0x00	; 0
    1832:	50 e0       	ldi	r21, 0x00	; 0
    1834:	0e 94 4a 30 	call	0x6094	; 0x6094 <__udivmodsi4>
    1838:	20 5d       	subi	r18, 0xD0	; 208
    183a:	fe 01       	movw	r30, r28
    183c:	e9 57       	subi	r30, 0x79	; 121
    183e:	ff 4f       	sbci	r31, 0xFF	; 255
    1840:	20 83       	st	Z, r18
			buffer[35+36*i]=(((timer3_stop[i]%100000)%10000)%1000)/100+0x30;
    1842:	f7 01       	movw	r30, r14
    1844:	60 81       	ld	r22, Z
    1846:	71 81       	ldd	r23, Z+1	; 0x01
    1848:	82 81       	ldd	r24, Z+2	; 0x02
    184a:	93 81       	ldd	r25, Z+3	; 0x03
    184c:	20 ea       	ldi	r18, 0xA0	; 160
    184e:	36 e8       	ldi	r19, 0x86	; 134
    1850:	41 e0       	ldi	r20, 0x01	; 1
    1852:	50 e0       	ldi	r21, 0x00	; 0
    1854:	0e 94 4a 30 	call	0x6094	; 0x6094 <__udivmodsi4>
    1858:	20 e1       	ldi	r18, 0x10	; 16
    185a:	37 e2       	ldi	r19, 0x27	; 39
    185c:	40 e0       	ldi	r20, 0x00	; 0
    185e:	50 e0       	ldi	r21, 0x00	; 0
    1860:	0e 94 4a 30 	call	0x6094	; 0x6094 <__udivmodsi4>
    1864:	28 ee       	ldi	r18, 0xE8	; 232
    1866:	33 e0       	ldi	r19, 0x03	; 3
    1868:	40 e0       	ldi	r20, 0x00	; 0
    186a:	50 e0       	ldi	r21, 0x00	; 0
    186c:	0e 94 4a 30 	call	0x6094	; 0x6094 <__udivmodsi4>
    1870:	24 e6       	ldi	r18, 0x64	; 100
    1872:	30 e0       	ldi	r19, 0x00	; 0
    1874:	40 e0       	ldi	r20, 0x00	; 0
    1876:	50 e0       	ldi	r21, 0x00	; 0
    1878:	0e 94 4a 30 	call	0x6094	; 0x6094 <__udivmodsi4>
    187c:	20 5d       	subi	r18, 0xD0	; 208
    187e:	fe 01       	movw	r30, r28
    1880:	e8 57       	subi	r30, 0x78	; 120
    1882:	ff 4f       	sbci	r31, 0xFF	; 255
    1884:	20 83       	st	Z, r18
	heater_chanel_status=eeprom_read_byte((unsigned char*)313);
}

// функция отправки данных таймеров на ПК
void timers_data_to_uart(void)
{
    1886:	8e 01       	movw	r16, r28
    1888:	0c 5d       	subi	r16, 0xDC	; 220
    188a:	1f 4f       	sbci	r17, 0xFF	; 255
			
			buffer[32+36*i]=timer3_stop[i]/100000+0x30;
			buffer[33+36*i]=(timer3_stop[i]%100000)/10000+0x30;
			buffer[34+36*i]=((timer3_stop[i]%100000)%10000)/1000+0x30;
			buffer[35+36*i]=(((timer3_stop[i]%100000)%10000)%1000)/100+0x30;
			buffer[36+36*i]=((((timer3_stop[i]%100000)%10000)%1000)%100)/10+0x30;
    188c:	f7 01       	movw	r30, r14
    188e:	60 81       	ld	r22, Z
    1890:	71 81       	ldd	r23, Z+1	; 0x01
    1892:	82 81       	ldd	r24, Z+2	; 0x02
    1894:	93 81       	ldd	r25, Z+3	; 0x03
    1896:	20 ea       	ldi	r18, 0xA0	; 160
    1898:	36 e8       	ldi	r19, 0x86	; 134
    189a:	41 e0       	ldi	r20, 0x01	; 1
    189c:	50 e0       	ldi	r21, 0x00	; 0
    189e:	0e 94 4a 30 	call	0x6094	; 0x6094 <__udivmodsi4>
    18a2:	20 e1       	ldi	r18, 0x10	; 16
    18a4:	37 e2       	ldi	r19, 0x27	; 39
    18a6:	40 e0       	ldi	r20, 0x00	; 0
    18a8:	50 e0       	ldi	r21, 0x00	; 0
    18aa:	0e 94 4a 30 	call	0x6094	; 0x6094 <__udivmodsi4>
    18ae:	28 ee       	ldi	r18, 0xE8	; 232
    18b0:	33 e0       	ldi	r19, 0x03	; 3
    18b2:	40 e0       	ldi	r20, 0x00	; 0
    18b4:	50 e0       	ldi	r21, 0x00	; 0
    18b6:	0e 94 4a 30 	call	0x6094	; 0x6094 <__udivmodsi4>
    18ba:	24 e6       	ldi	r18, 0x64	; 100
    18bc:	30 e0       	ldi	r19, 0x00	; 0
    18be:	40 e0       	ldi	r20, 0x00	; 0
    18c0:	50 e0       	ldi	r21, 0x00	; 0
    18c2:	0e 94 4a 30 	call	0x6094	; 0x6094 <__udivmodsi4>
    18c6:	2a e0       	ldi	r18, 0x0A	; 10
    18c8:	30 e0       	ldi	r19, 0x00	; 0
    18ca:	40 e0       	ldi	r20, 0x00	; 0
    18cc:	50 e0       	ldi	r21, 0x00	; 0
    18ce:	0e 94 4a 30 	call	0x6094	; 0x6094 <__udivmodsi4>
    18d2:	20 5d       	subi	r18, 0xD0	; 208
    18d4:	f8 01       	movw	r30, r16
    18d6:	eb 59       	subi	r30, 0x9B	; 155
    18d8:	ff 4f       	sbci	r31, 0xFF	; 255
    18da:	20 83       	st	Z, r18
			buffer[37+36*i]=((((timer3_stop[i]%100000)%10000)%1000)%100)%10+0x30;
    18dc:	f7 01       	movw	r30, r14
    18de:	60 81       	ld	r22, Z
    18e0:	71 81       	ldd	r23, Z+1	; 0x01
    18e2:	82 81       	ldd	r24, Z+2	; 0x02
    18e4:	93 81       	ldd	r25, Z+3	; 0x03
    18e6:	20 ea       	ldi	r18, 0xA0	; 160
    18e8:	36 e8       	ldi	r19, 0x86	; 134
    18ea:	41 e0       	ldi	r20, 0x01	; 1
    18ec:	50 e0       	ldi	r21, 0x00	; 0
    18ee:	0e 94 4a 30 	call	0x6094	; 0x6094 <__udivmodsi4>
    18f2:	20 e1       	ldi	r18, 0x10	; 16
    18f4:	37 e2       	ldi	r19, 0x27	; 39
    18f6:	40 e0       	ldi	r20, 0x00	; 0
    18f8:	50 e0       	ldi	r21, 0x00	; 0
    18fa:	0e 94 4a 30 	call	0x6094	; 0x6094 <__udivmodsi4>
    18fe:	28 ee       	ldi	r18, 0xE8	; 232
    1900:	33 e0       	ldi	r19, 0x03	; 3
    1902:	40 e0       	ldi	r20, 0x00	; 0
    1904:	50 e0       	ldi	r21, 0x00	; 0
    1906:	0e 94 4a 30 	call	0x6094	; 0x6094 <__udivmodsi4>
    190a:	24 e6       	ldi	r18, 0x64	; 100
    190c:	30 e0       	ldi	r19, 0x00	; 0
    190e:	40 e0       	ldi	r20, 0x00	; 0
    1910:	50 e0       	ldi	r21, 0x00	; 0
    1912:	0e 94 4a 30 	call	0x6094	; 0x6094 <__udivmodsi4>
    1916:	2a e0       	ldi	r18, 0x0A	; 10
    1918:	30 e0       	ldi	r19, 0x00	; 0
    191a:	40 e0       	ldi	r20, 0x00	; 0
    191c:	50 e0       	ldi	r21, 0x00	; 0
    191e:	0e 94 4a 30 	call	0x6094	; 0x6094 <__udivmodsi4>
    1922:	60 5d       	subi	r22, 0xD0	; 208
    1924:	c6 57       	subi	r28, 0x76	; 118
    1926:	df 4f       	sbci	r29, 0xFF	; 255
    1928:	68 83       	st	Y, r22
    192a:	08 94       	sec
    192c:	c1 1c       	adc	r12, r1
    192e:	d1 1c       	adc	r13, r1
    1930:	e8 01       	movw	r28, r16
		usart_data_in_num=327; // кол-во отправляемых байт
		
		buffer[0]=0x3B; // начало пакета
		buffer[1]=0xa2; // команда - данные таймеров
		// данные таймеров
		for(unsigned char i=0;i<9;i++)
    1932:	f9 e0       	ldi	r31, 0x09	; 9
    1934:	cf 16       	cp	r12, r31
    1936:	d1 04       	cpc	r13, r1
    1938:	09 f0       	breq	.+2      	; 0x193c <timers_data_to_uart+0x8f6>
    193a:	a5 cb       	rjmp	.-2230   	; 0x1086 <timers_data_to_uart+0x40>
			buffer[34+36*i]=((timer3_stop[i]%100000)%10000)/1000+0x30;
			buffer[35+36*i]=(((timer3_stop[i]%100000)%10000)%1000)/100+0x30;
			buffer[36+36*i]=((((timer3_stop[i]%100000)%10000)%1000)%100)/10+0x30;
			buffer[37+36*i]=((((timer3_stop[i]%100000)%10000)%1000)%100)%10+0x30;
		}
		buffer[326]=0xb3; // конец пакета
    193c:	83 eb       	ldi	r24, 0xB3	; 179
    193e:	80 93 ab 01 	sts	0x01AB, r24
		
		buffer_start(); // отправка данных
    1942:	0e 94 bf 03 	call	0x77e	; 0x77e <buffer_start>
	}
}
    1946:	df 91       	pop	r29
    1948:	cf 91       	pop	r28
    194a:	1f 91       	pop	r17
    194c:	0f 91       	pop	r16
    194e:	ff 90       	pop	r15
    1950:	ef 90       	pop	r14
    1952:	df 90       	pop	r13
    1954:	cf 90       	pop	r12
    1956:	08 95       	ret

00001958 <events_data_to_uart>:

// функция отправки данных режимов на ПК
void events_data_to_uart(void)
{	
    1958:	ef 92       	push	r14
    195a:	ff 92       	push	r15
    195c:	0f 93       	push	r16
    195e:	1f 93       	push	r17
	TRANSMIT=0x01; // запрет передачи
    1960:	81 e0       	ldi	r24, 0x01	; 1
    1962:	80 93 0c 05 	sts	0x050C, r24
	usart_data_in_num=28; // кол-во отправляемых байт
    1966:	8c e1       	ldi	r24, 0x1C	; 28
    1968:	90 e0       	ldi	r25, 0x00	; 0
    196a:	90 93 10 05 	sts	0x0510, r25
    196e:	80 93 0f 05 	sts	0x050F, r24
	
	buffer[0]=0x3B; // начало пакета
    1972:	8b e3       	ldi	r24, 0x3B	; 59
    1974:	80 93 65 00 	sts	0x0065, r24
	buffer[1]=0xa3; // команда - данные режимов
    1978:	83 ea       	ldi	r24, 0xA3	; 163
    197a:	80 93 66 00 	sts	0x0066, r24
	// данные режимов
	// установленный датчик температурного режима
	buffer[2]=set_temp_sensor+0x30;
    197e:	80 91 96 04 	lds	r24, 0x0496
    1982:	80 5d       	subi	r24, 0xD0	; 208
    1984:	80 93 67 00 	sts	0x0067, r24
	// установленная температура
	buffer[3]=set_temp/100+0x30;
    1988:	20 91 60 00 	lds	r18, 0x0060
    198c:	30 91 61 00 	lds	r19, 0x0061
    1990:	c9 01       	movw	r24, r18
    1992:	64 e6       	ldi	r22, 0x64	; 100
    1994:	70 e0       	ldi	r23, 0x00	; 0
    1996:	0e 94 37 30 	call	0x606e	; 0x606e <__divmodhi4>
    199a:	60 5d       	subi	r22, 0xD0	; 208
    199c:	60 93 68 00 	sts	0x0068, r22
	buffer[4]=(set_temp%100)/10+0x30;
    19a0:	c9 01       	movw	r24, r18
    19a2:	64 e6       	ldi	r22, 0x64	; 100
    19a4:	70 e0       	ldi	r23, 0x00	; 0
    19a6:	0e 94 37 30 	call	0x606e	; 0x606e <__divmodhi4>
    19aa:	6a e0       	ldi	r22, 0x0A	; 10
    19ac:	70 e0       	ldi	r23, 0x00	; 0
    19ae:	0e 94 37 30 	call	0x606e	; 0x606e <__divmodhi4>
    19b2:	60 5d       	subi	r22, 0xD0	; 208
    19b4:	60 93 69 00 	sts	0x0069, r22
	// установленный порог срабатывания
	buffer[5]=set_temp_dec+0x30;
    19b8:	80 91 64 00 	lds	r24, 0x0064
    19bc:	80 5d       	subi	r24, 0xD0	; 208
    19be:	80 93 6a 00 	sts	0x006A, r24
	// мощность кулеров температурного режима
	buffer[6]=cooler_set/100+0x30;
    19c2:	20 91 62 00 	lds	r18, 0x0062
    19c6:	30 91 63 00 	lds	r19, 0x0063
    19ca:	c9 01       	movw	r24, r18
    19cc:	64 e6       	ldi	r22, 0x64	; 100
    19ce:	70 e0       	ldi	r23, 0x00	; 0
    19d0:	0e 94 23 30 	call	0x6046	; 0x6046 <__udivmodhi4>
    19d4:	60 5d       	subi	r22, 0xD0	; 208
    19d6:	60 93 6b 00 	sts	0x006B, r22
	buffer[7]=(cooler_set%100)/10+0x30;
    19da:	c9 01       	movw	r24, r18
    19dc:	64 e6       	ldi	r22, 0x64	; 100
    19de:	70 e0       	ldi	r23, 0x00	; 0
    19e0:	0e 94 23 30 	call	0x6046	; 0x6046 <__udivmodhi4>
    19e4:	9c 01       	movw	r18, r24
    19e6:	6a e0       	ldi	r22, 0x0A	; 10
    19e8:	70 e0       	ldi	r23, 0x00	; 0
    19ea:	0e 94 23 30 	call	0x6046	; 0x6046 <__udivmodhi4>
    19ee:	60 5d       	subi	r22, 0xD0	; 208
    19f0:	60 93 6c 00 	sts	0x006C, r22
	buffer[8]=(cooler_set%100)%10+0x30;
    19f4:	c9 01       	movw	r24, r18
    19f6:	6a e0       	ldi	r22, 0x0A	; 10
    19f8:	70 e0       	ldi	r23, 0x00	; 0
    19fa:	0e 94 23 30 	call	0x6046	; 0x6046 <__udivmodhi4>
    19fe:	80 5d       	subi	r24, 0xD0	; 208
    1a00:	80 93 6d 00 	sts	0x006D, r24
	// время работы кулеров в режиме продувки 
	buffer[9]=timer_produv_time/1000+0x30;
    1a04:	60 91 79 04 	lds	r22, 0x0479
    1a08:	70 91 7a 04 	lds	r23, 0x047A
    1a0c:	80 91 7b 04 	lds	r24, 0x047B
    1a10:	90 91 7c 04 	lds	r25, 0x047C
    1a14:	28 ee       	ldi	r18, 0xE8	; 232
    1a16:	33 e0       	ldi	r19, 0x03	; 3
    1a18:	40 e0       	ldi	r20, 0x00	; 0
    1a1a:	50 e0       	ldi	r21, 0x00	; 0
    1a1c:	0e 94 4a 30 	call	0x6094	; 0x6094 <__udivmodsi4>
    1a20:	20 5d       	subi	r18, 0xD0	; 208
    1a22:	20 93 6e 00 	sts	0x006E, r18
	buffer[10]=(timer_produv_time%1000)/100+0x30;
    1a26:	60 91 79 04 	lds	r22, 0x0479
    1a2a:	70 91 7a 04 	lds	r23, 0x047A
    1a2e:	80 91 7b 04 	lds	r24, 0x047B
    1a32:	90 91 7c 04 	lds	r25, 0x047C
    1a36:	28 ee       	ldi	r18, 0xE8	; 232
    1a38:	33 e0       	ldi	r19, 0x03	; 3
    1a3a:	40 e0       	ldi	r20, 0x00	; 0
    1a3c:	50 e0       	ldi	r21, 0x00	; 0
    1a3e:	0e 94 4a 30 	call	0x6094	; 0x6094 <__udivmodsi4>
    1a42:	24 e6       	ldi	r18, 0x64	; 100
    1a44:	30 e0       	ldi	r19, 0x00	; 0
    1a46:	40 e0       	ldi	r20, 0x00	; 0
    1a48:	50 e0       	ldi	r21, 0x00	; 0
    1a4a:	0e 94 4a 30 	call	0x6094	; 0x6094 <__udivmodsi4>
    1a4e:	20 5d       	subi	r18, 0xD0	; 208
    1a50:	20 93 6f 00 	sts	0x006F, r18
	buffer[11]=((timer_produv_time%1000)%100)/10+0x30;
    1a54:	60 91 79 04 	lds	r22, 0x0479
    1a58:	70 91 7a 04 	lds	r23, 0x047A
    1a5c:	80 91 7b 04 	lds	r24, 0x047B
    1a60:	90 91 7c 04 	lds	r25, 0x047C
    1a64:	28 ee       	ldi	r18, 0xE8	; 232
    1a66:	33 e0       	ldi	r19, 0x03	; 3
    1a68:	40 e0       	ldi	r20, 0x00	; 0
    1a6a:	50 e0       	ldi	r21, 0x00	; 0
    1a6c:	0e 94 4a 30 	call	0x6094	; 0x6094 <__udivmodsi4>
    1a70:	24 e6       	ldi	r18, 0x64	; 100
    1a72:	30 e0       	ldi	r19, 0x00	; 0
    1a74:	40 e0       	ldi	r20, 0x00	; 0
    1a76:	50 e0       	ldi	r21, 0x00	; 0
    1a78:	0e 94 4a 30 	call	0x6094	; 0x6094 <__udivmodsi4>
    1a7c:	2a e0       	ldi	r18, 0x0A	; 10
    1a7e:	30 e0       	ldi	r19, 0x00	; 0
    1a80:	40 e0       	ldi	r20, 0x00	; 0
    1a82:	50 e0       	ldi	r21, 0x00	; 0
    1a84:	0e 94 4a 30 	call	0x6094	; 0x6094 <__udivmodsi4>
    1a88:	20 5d       	subi	r18, 0xD0	; 208
    1a8a:	20 93 70 00 	sts	0x0070, r18
	buffer[12]=((timer_produv_time%1000)%100)%10+0x30;
    1a8e:	60 91 79 04 	lds	r22, 0x0479
    1a92:	70 91 7a 04 	lds	r23, 0x047A
    1a96:	80 91 7b 04 	lds	r24, 0x047B
    1a9a:	90 91 7c 04 	lds	r25, 0x047C
    1a9e:	28 ee       	ldi	r18, 0xE8	; 232
    1aa0:	33 e0       	ldi	r19, 0x03	; 3
    1aa2:	40 e0       	ldi	r20, 0x00	; 0
    1aa4:	50 e0       	ldi	r21, 0x00	; 0
    1aa6:	0e 94 4a 30 	call	0x6094	; 0x6094 <__udivmodsi4>
    1aaa:	24 e6       	ldi	r18, 0x64	; 100
    1aac:	30 e0       	ldi	r19, 0x00	; 0
    1aae:	40 e0       	ldi	r20, 0x00	; 0
    1ab0:	50 e0       	ldi	r21, 0x00	; 0
    1ab2:	0e 94 4a 30 	call	0x6094	; 0x6094 <__udivmodsi4>
    1ab6:	2a e0       	ldi	r18, 0x0A	; 10
    1ab8:	30 e0       	ldi	r19, 0x00	; 0
    1aba:	40 e0       	ldi	r20, 0x00	; 0
    1abc:	50 e0       	ldi	r21, 0x00	; 0
    1abe:	0e 94 4a 30 	call	0x6094	; 0x6094 <__udivmodsi4>
    1ac2:	60 5d       	subi	r22, 0xD0	; 208
    1ac4:	60 93 71 00 	sts	0x0071, r22
	// период включения кулеров в режиме продувки
	buffer[13]=timer_produv_period+0x30;
    1ac8:	80 91 7d 04 	lds	r24, 0x047D
    1acc:	80 5d       	subi	r24, 0xD0	; 208
    1ace:	80 93 72 00 	sts	0x0072, r24
	// минимальная мощность кулеров
	buffer[14]=cooler_min/100+0x30;
    1ad2:	e0 90 75 04 	lds	r14, 0x0475
    1ad6:	f0 90 76 04 	lds	r15, 0x0476
    1ada:	00 91 77 04 	lds	r16, 0x0477
    1ade:	10 91 78 04 	lds	r17, 0x0478
    1ae2:	c8 01       	movw	r24, r16
    1ae4:	b7 01       	movw	r22, r14
    1ae6:	20 e0       	ldi	r18, 0x00	; 0
    1ae8:	30 e0       	ldi	r19, 0x00	; 0
    1aea:	48 ec       	ldi	r20, 0xC8	; 200
    1aec:	52 e4       	ldi	r21, 0x42	; 66
    1aee:	0e 94 4f 2e 	call	0x5c9e	; 0x5c9e <__divsf3>
    1af2:	20 e0       	ldi	r18, 0x00	; 0
    1af4:	30 e0       	ldi	r19, 0x00	; 0
    1af6:	40 e4       	ldi	r20, 0x40	; 64
    1af8:	52 e4       	ldi	r21, 0x42	; 66
    1afa:	0e 94 e7 2d 	call	0x5bce	; 0x5bce <__addsf3>
    1afe:	0e 94 b7 2e 	call	0x5d6e	; 0x5d6e <__fixunssfsi>
    1b02:	60 93 73 00 	sts	0x0073, r22
	buffer[15]=((unsigned int)cooler_min%100)/10+0x30;
    1b06:	c8 01       	movw	r24, r16
    1b08:	b7 01       	movw	r22, r14
    1b0a:	0e 94 b7 2e 	call	0x5d6e	; 0x5d6e <__fixunssfsi>
    1b0e:	dc 01       	movw	r26, r24
    1b10:	cb 01       	movw	r24, r22
    1b12:	64 e6       	ldi	r22, 0x64	; 100
    1b14:	70 e0       	ldi	r23, 0x00	; 0
    1b16:	0e 94 23 30 	call	0x6046	; 0x6046 <__udivmodhi4>
    1b1a:	9c 01       	movw	r18, r24
    1b1c:	6a e0       	ldi	r22, 0x0A	; 10
    1b1e:	70 e0       	ldi	r23, 0x00	; 0
    1b20:	0e 94 23 30 	call	0x6046	; 0x6046 <__udivmodhi4>
    1b24:	60 5d       	subi	r22, 0xD0	; 208
    1b26:	60 93 74 00 	sts	0x0074, r22
	buffer[16]=((unsigned int)cooler_min%100)%10+0x30;
    1b2a:	c9 01       	movw	r24, r18
    1b2c:	6a e0       	ldi	r22, 0x0A	; 10
    1b2e:	70 e0       	ldi	r23, 0x00	; 0
    1b30:	0e 94 23 30 	call	0x6046	; 0x6046 <__udivmodhi4>
    1b34:	80 5d       	subi	r24, 0xD0	; 208
    1b36:	80 93 75 00 	sts	0x0075, r24
	// значение РН - включение СО2
	buffer[17]=ph_high/100+0x30;
    1b3a:	20 91 71 04 	lds	r18, 0x0471
    1b3e:	30 91 72 04 	lds	r19, 0x0472
    1b42:	c9 01       	movw	r24, r18
    1b44:	64 e6       	ldi	r22, 0x64	; 100
    1b46:	70 e0       	ldi	r23, 0x00	; 0
    1b48:	0e 94 23 30 	call	0x6046	; 0x6046 <__udivmodhi4>
    1b4c:	60 5d       	subi	r22, 0xD0	; 208
    1b4e:	60 93 76 00 	sts	0x0076, r22
	buffer[18]=(ph_high%100)/10+0x30;
    1b52:	c9 01       	movw	r24, r18
    1b54:	64 e6       	ldi	r22, 0x64	; 100
    1b56:	70 e0       	ldi	r23, 0x00	; 0
    1b58:	0e 94 23 30 	call	0x6046	; 0x6046 <__udivmodhi4>
    1b5c:	9c 01       	movw	r18, r24
    1b5e:	6a e0       	ldi	r22, 0x0A	; 10
    1b60:	70 e0       	ldi	r23, 0x00	; 0
    1b62:	0e 94 23 30 	call	0x6046	; 0x6046 <__udivmodhi4>
    1b66:	60 5d       	subi	r22, 0xD0	; 208
    1b68:	60 93 77 00 	sts	0x0077, r22
	buffer[19]=(ph_high%100)%10+0x30;
    1b6c:	c9 01       	movw	r24, r18
    1b6e:	6a e0       	ldi	r22, 0x0A	; 10
    1b70:	70 e0       	ldi	r23, 0x00	; 0
    1b72:	0e 94 23 30 	call	0x6046	; 0x6046 <__udivmodhi4>
    1b76:	80 5d       	subi	r24, 0xD0	; 208
    1b78:	80 93 78 00 	sts	0x0078, r24
	// значение РН - отключение СО2
	buffer[20]=ph_low/100+0x30;
    1b7c:	20 91 73 04 	lds	r18, 0x0473
    1b80:	30 91 74 04 	lds	r19, 0x0474
    1b84:	c9 01       	movw	r24, r18
    1b86:	64 e6       	ldi	r22, 0x64	; 100
    1b88:	70 e0       	ldi	r23, 0x00	; 0
    1b8a:	0e 94 23 30 	call	0x6046	; 0x6046 <__udivmodhi4>
    1b8e:	60 5d       	subi	r22, 0xD0	; 208
    1b90:	60 93 79 00 	sts	0x0079, r22
	buffer[21]=(ph_low%100)/10+0x30;
    1b94:	c9 01       	movw	r24, r18
    1b96:	64 e6       	ldi	r22, 0x64	; 100
    1b98:	70 e0       	ldi	r23, 0x00	; 0
    1b9a:	0e 94 23 30 	call	0x6046	; 0x6046 <__udivmodhi4>
    1b9e:	9c 01       	movw	r18, r24
    1ba0:	6a e0       	ldi	r22, 0x0A	; 10
    1ba2:	70 e0       	ldi	r23, 0x00	; 0
    1ba4:	0e 94 23 30 	call	0x6046	; 0x6046 <__udivmodhi4>
    1ba8:	60 5d       	subi	r22, 0xD0	; 208
    1baa:	60 93 7a 00 	sts	0x007A, r22
	buffer[22]=(ph_low%100)%10+0x30;
    1bae:	c9 01       	movw	r24, r18
    1bb0:	6a e0       	ldi	r22, 0x0A	; 10
    1bb2:	70 e0       	ldi	r23, 0x00	; 0
    1bb4:	0e 94 23 30 	call	0x6046	; 0x6046 <__udivmodhi4>
    1bb8:	80 5d       	subi	r24, 0xD0	; 208
    1bba:	80 93 7b 00 	sts	0x007B, r24
	// временные интервалы работы СО2 - отключить
	buffer[23]=(co2_stop/10000)/10+0x30;
    1bbe:	60 91 92 04 	lds	r22, 0x0492
    1bc2:	70 91 93 04 	lds	r23, 0x0493
    1bc6:	80 91 94 04 	lds	r24, 0x0494
    1bca:	90 91 95 04 	lds	r25, 0x0495
    1bce:	20 ea       	ldi	r18, 0xA0	; 160
    1bd0:	36 e8       	ldi	r19, 0x86	; 134
    1bd2:	41 e0       	ldi	r20, 0x01	; 1
    1bd4:	50 e0       	ldi	r21, 0x00	; 0
    1bd6:	0e 94 4a 30 	call	0x6094	; 0x6094 <__udivmodsi4>
    1bda:	20 5d       	subi	r18, 0xD0	; 208
    1bdc:	20 93 7c 00 	sts	0x007C, r18
	buffer[24]=(co2_stop/10000)%10+0x30;
    1be0:	60 91 92 04 	lds	r22, 0x0492
    1be4:	70 91 93 04 	lds	r23, 0x0493
    1be8:	80 91 94 04 	lds	r24, 0x0494
    1bec:	90 91 95 04 	lds	r25, 0x0495
    1bf0:	20 e1       	ldi	r18, 0x10	; 16
    1bf2:	37 e2       	ldi	r19, 0x27	; 39
    1bf4:	40 e0       	ldi	r20, 0x00	; 0
    1bf6:	50 e0       	ldi	r21, 0x00	; 0
    1bf8:	0e 94 4a 30 	call	0x6094	; 0x6094 <__udivmodsi4>
    1bfc:	ca 01       	movw	r24, r20
    1bfe:	b9 01       	movw	r22, r18
    1c00:	2a e0       	ldi	r18, 0x0A	; 10
    1c02:	30 e0       	ldi	r19, 0x00	; 0
    1c04:	40 e0       	ldi	r20, 0x00	; 0
    1c06:	50 e0       	ldi	r21, 0x00	; 0
    1c08:	0e 94 4a 30 	call	0x6094	; 0x6094 <__udivmodsi4>
    1c0c:	60 5d       	subi	r22, 0xD0	; 208
    1c0e:	60 93 7d 00 	sts	0x007D, r22
	// временные интервалы работы СО2 - включить
	buffer[25]=(co2_start/10000)/10+0x30;
    1c12:	60 91 8e 04 	lds	r22, 0x048E
    1c16:	70 91 8f 04 	lds	r23, 0x048F
    1c1a:	80 91 90 04 	lds	r24, 0x0490
    1c1e:	90 91 91 04 	lds	r25, 0x0491
    1c22:	20 ea       	ldi	r18, 0xA0	; 160
    1c24:	36 e8       	ldi	r19, 0x86	; 134
    1c26:	41 e0       	ldi	r20, 0x01	; 1
    1c28:	50 e0       	ldi	r21, 0x00	; 0
    1c2a:	0e 94 4a 30 	call	0x6094	; 0x6094 <__udivmodsi4>
    1c2e:	20 5d       	subi	r18, 0xD0	; 208
    1c30:	20 93 7e 00 	sts	0x007E, r18
	buffer[26]=(co2_start/10000)%10+0x30;
    1c34:	60 91 8e 04 	lds	r22, 0x048E
    1c38:	70 91 8f 04 	lds	r23, 0x048F
    1c3c:	80 91 90 04 	lds	r24, 0x0490
    1c40:	90 91 91 04 	lds	r25, 0x0491
    1c44:	20 e1       	ldi	r18, 0x10	; 16
    1c46:	37 e2       	ldi	r19, 0x27	; 39
    1c48:	40 e0       	ldi	r20, 0x00	; 0
    1c4a:	50 e0       	ldi	r21, 0x00	; 0
    1c4c:	0e 94 4a 30 	call	0x6094	; 0x6094 <__udivmodsi4>
    1c50:	ca 01       	movw	r24, r20
    1c52:	b9 01       	movw	r22, r18
    1c54:	2a e0       	ldi	r18, 0x0A	; 10
    1c56:	30 e0       	ldi	r19, 0x00	; 0
    1c58:	40 e0       	ldi	r20, 0x00	; 0
    1c5a:	50 e0       	ldi	r21, 0x00	; 0
    1c5c:	0e 94 4a 30 	call	0x6094	; 0x6094 <__udivmodsi4>
    1c60:	60 5d       	subi	r22, 0xD0	; 208
    1c62:	60 93 7f 00 	sts	0x007F, r22
	
	buffer[27]=0xb3; // конец пакета
    1c66:	83 eb       	ldi	r24, 0xB3	; 179
    1c68:	80 93 80 00 	sts	0x0080, r24
		
	buffer_start(); // отправка данных
    1c6c:	0e 94 bf 03 	call	0x77e	; 0x77e <buffer_start>
}
    1c70:	1f 91       	pop	r17
    1c72:	0f 91       	pop	r16
    1c74:	ff 90       	pop	r15
    1c76:	ef 90       	pop	r14
    1c78:	08 95       	ret

00001c7a <water_doliv>:

// функция автоматического долива воды
void water_doliv(void)
{
    1c7a:	cf 92       	push	r12
    1c7c:	df 92       	push	r13
    1c7e:	ef 92       	push	r14
    1c80:	ff 92       	push	r15
    1c82:	0f 93       	push	r16
    1c84:	1f 93       	push	r17
    1c86:	cf 93       	push	r28
    1c88:	df 93       	push	r29
	switch(doliv) 
    1c8a:	80 91 fa 04 	lds	r24, 0x04FA
    1c8e:	81 30       	cpi	r24, 0x01	; 1
    1c90:	21 f0       	breq	.+8      	; 0x1c9a <water_doliv+0x20>
    1c92:	82 30       	cpi	r24, 0x02	; 2
    1c94:	09 f0       	breq	.+2      	; 0x1c98 <water_doliv+0x1e>
    1c96:	7a c0       	rjmp	.+244    	; 0x1d8c <water_doliv+0x112>
    1c98:	63 c0       	rjmp	.+198    	; 0x1d60 <water_doliv+0xe6>
		case 1: // установить режим
		{
			// если произошел резкий скачек уровня воды - отсчитываем 10 с
			// если за это время показания датчика не восстановятся в заданных пределах - датчик не исправен
			// режим отключается и отображается состояние ошибки
			if((abs(water_lvl-water_lvl_last)>=abs((doliv_porog2-doliv_porog1)/2))|(WATER_ERROR_POMPA)) 
    1c9a:	00 91 20 05 	lds	r16, 0x0520
    1c9e:	10 91 21 05 	lds	r17, 0x0521
    1ca2:	e0 90 fe 04 	lds	r14, 0x04FE
    1ca6:	f0 90 ff 04 	lds	r15, 0x04FF
    1caa:	c0 90 fc 04 	lds	r12, 0x04FC
    1cae:	d0 90 fd 04 	lds	r13, 0x04FD
    1cb2:	c0 e0       	ldi	r28, 0x00	; 0
    1cb4:	d0 e0       	ldi	r29, 0x00	; 0
    1cb6:	80 91 22 05 	lds	r24, 0x0522
    1cba:	90 91 23 05 	lds	r25, 0x0523
    1cbe:	f8 01       	movw	r30, r16
    1cc0:	e8 1b       	sub	r30, r24
    1cc2:	f9 0b       	sbc	r31, r25
    1cc4:	f7 ff       	sbrs	r31, 7
    1cc6:	03 c0       	rjmp	.+6      	; 0x1cce <water_doliv+0x54>
    1cc8:	f0 95       	com	r31
    1cca:	e1 95       	neg	r30
    1ccc:	ff 4f       	sbci	r31, 0xFF	; 255
    1cce:	c7 01       	movw	r24, r14
    1cd0:	8c 19       	sub	r24, r12
    1cd2:	9d 09       	sbc	r25, r13
    1cd4:	62 e0       	ldi	r22, 0x02	; 2
    1cd6:	70 e0       	ldi	r23, 0x00	; 0
    1cd8:	0e 94 37 30 	call	0x606e	; 0x606e <__divmodhi4>
    1cdc:	cb 01       	movw	r24, r22
    1cde:	77 ff       	sbrs	r23, 7
    1ce0:	03 c0       	rjmp	.+6      	; 0x1ce8 <water_doliv+0x6e>
    1ce2:	90 95       	com	r25
    1ce4:	81 95       	neg	r24
    1ce6:	9f 4f       	sbci	r25, 0xFF	; 255
    1ce8:	e8 17       	cp	r30, r24
    1cea:	f9 07       	cpc	r31, r25
    1cec:	14 f0       	brlt	.+4      	; 0x1cf2 <water_doliv+0x78>
    1cee:	c1 e0       	ldi	r28, 0x01	; 1
    1cf0:	d0 e0       	ldi	r29, 0x00	; 0
    1cf2:	80 91 01 05 	lds	r24, 0x0501
    1cf6:	90 e0       	ldi	r25, 0x00	; 0
    1cf8:	c8 2b       	or	r28, r24
    1cfa:	d9 2b       	or	r29, r25
    1cfc:	90 91 26 05 	lds	r25, 0x0526
    1d00:	cd 2b       	or	r28, r29
    1d02:	51 f0       	breq	.+20     	; 0x1d18 <water_doliv+0x9e>
			{
				WATER_ERROR=1; // флаг - датчик не исправен
    1d04:	81 e0       	ldi	r24, 0x01	; 1
    1d06:	80 93 00 05 	sts	0x0500, r24
				water_lvl_status=0x34; // состояние режима 
    1d0a:	84 e3       	ldi	r24, 0x34	; 52
    1d0c:	80 93 03 05 	sts	0x0503, r24
				water_lvl_ovf_time++; // отсчет времени
    1d10:	9f 5f       	subi	r25, 0xFF	; 255
    1d12:	90 93 26 05 	sts	0x0526, r25
    1d16:	06 c0       	rjmp	.+12     	; 0x1d24 <water_doliv+0xaa>
			}
			else 
			{
				// если за ~10 с значения датчика восстановились
				if(water_lvl_ovf_time<30) 
    1d18:	9e 31       	cpi	r25, 0x1E	; 30
    1d1a:	20 f4       	brcc	.+8      	; 0x1d24 <water_doliv+0xaa>
				{
					WATER_ERROR=0; // флаг - датчик исправен
    1d1c:	10 92 00 05 	sts	0x0500, r1
					water_lvl_ovf_time=0; // сбросить отсчет вермени
    1d20:	10 92 26 05 	sts	0x0526, r1
				}
			}
			// если датчик исправен
			if(!WATER_ERROR)
    1d24:	80 91 00 05 	lds	r24, 0x0500
    1d28:	88 23       	and	r24, r24
    1d2a:	81 f5       	brne	.+96     	; 0x1d8c <water_doliv+0x112>
			{
				// уровень воды достиг нижнего порога (2)
				if(water_lvl<=doliv_porog2) pompa=1; // флаг - включить помпу
    1d2c:	e0 16       	cp	r14, r16
    1d2e:	f1 06       	cpc	r15, r17
    1d30:	1c f0       	brlt	.+6      	; 0x1d38 <water_doliv+0xbe>
    1d32:	81 e0       	ldi	r24, 0x01	; 1
    1d34:	80 93 fb 04 	sts	0x04FB, r24
				// уровень воды достиг верхнего порога (1)
				if(water_lvl>=doliv_porog1) pompa=0; // флаг - отключить помпу
    1d38:	0c 15       	cp	r16, r12
    1d3a:	1d 05       	cpc	r17, r13
    1d3c:	14 f0       	brlt	.+4      	; 0x1d42 <water_doliv+0xc8>
    1d3e:	10 92 fb 04 	sts	0x04FB, r1
				// работа помпы задана
				if(pompa)
    1d42:	80 91 fb 04 	lds	r24, 0x04FB
    1d46:	88 23       	and	r24, r24
    1d48:	29 f0       	breq	.+10     	; 0x1d54 <water_doliv+0xda>
				{
					RELE_PORT_2|=RELE_8; // включить помпу
    1d4a:	ab 9a       	sbi	0x15, 3	; 21
					water_lvl_status=0x33; // состояние - режим автоматического долива
    1d4c:	83 e3       	ldi	r24, 0x33	; 51
    1d4e:	80 93 03 05 	sts	0x0503, r24
    1d52:	01 c0       	rjmp	.+2      	; 0x1d56 <water_doliv+0xdc>
				}
				else RELE_PORT_2&=~RELE_8; // выключить помпу
    1d54:	ab 98       	cbi	0x15, 3	; 21
				// записать текущее значение датчика для последующего сравнения уровня воды
				water_lvl_last=water_lvl; 
    1d56:	10 93 23 05 	sts	0x0523, r17
    1d5a:	00 93 22 05 	sts	0x0522, r16
    1d5e:	16 c0       	rjmp	.+44     	; 0x1d8c <water_doliv+0x112>
			}
		}break;
		
		case 2: // сбросить режим
		{
			if(rele_set[7]==1) water_lvl_status=0x32;
    1d60:	80 91 f7 04 	lds	r24, 0x04F7
    1d64:	81 30       	cpi	r24, 0x01	; 1
    1d66:	11 f4       	brne	.+4      	; 0x1d6c <water_doliv+0xf2>
    1d68:	82 e3       	ldi	r24, 0x32	; 50
    1d6a:	08 c0       	rjmp	.+16     	; 0x1d7c <water_doliv+0x102>
			// если не задан ручной режим и режим таймеров - отключить помпу
			if((rele_set[7]==0)&&(doliv_timer_status==0)) {RELE_PORT_2&=~RELE_8; water_lvl_status=0x30;}
    1d6c:	88 23       	and	r24, r24
    1d6e:	41 f4       	brne	.+16     	; 0x1d80 <water_doliv+0x106>
    1d70:	80 91 3c 06 	lds	r24, 0x063C
    1d74:	88 23       	and	r24, r24
    1d76:	21 f4       	brne	.+8      	; 0x1d80 <water_doliv+0x106>
    1d78:	ab 98       	cbi	0x15, 3	; 21
    1d7a:	80 e3       	ldi	r24, 0x30	; 48
    1d7c:	80 93 03 05 	sts	0x0503, r24
			// сбросить флаги
			doliv=0; 
    1d80:	10 92 fa 04 	sts	0x04FA, r1
			water_lvl_ovf_time=0;
    1d84:	10 92 26 05 	sts	0x0526, r1
			WATER_ERROR=0;
    1d88:	10 92 00 05 	sts	0x0500, r1
		}break;
		default:; break;
	}
    1d8c:	df 91       	pop	r29
    1d8e:	cf 91       	pop	r28
    1d90:	1f 91       	pop	r17
    1d92:	0f 91       	pop	r16
    1d94:	ff 90       	pop	r15
    1d96:	ef 90       	pop	r14
    1d98:	df 90       	pop	r13
    1d9a:	cf 90       	pop	r12
    1d9c:	08 95       	ret

00001d9e <load_option_eeprom>:
	}
}

// функция чтения настроек из EEPROM 
void load_option_eeprom(void) // функция чтения из EEPROM
{
    1d9e:	ef 92       	push	r14
    1da0:	ff 92       	push	r15
    1da2:	0f 93       	push	r16
    1da4:	1f 93       	push	r17
    1da6:	cf 93       	push	r28
    1da8:	df 93       	push	r29
	k1=eeprom_read_dword((unsigned long*)10);
    1daa:	8a e0       	ldi	r24, 0x0A	; 10
    1dac:	90 e0       	ldi	r25, 0x00	; 0
    1dae:	0e 94 8f 30 	call	0x611e	; 0x611e <__eerd_dword_m32>
    1db2:	60 93 65 04 	sts	0x0465, r22
    1db6:	70 93 66 04 	sts	0x0466, r23
    1dba:	80 93 67 04 	sts	0x0467, r24
    1dbe:	90 93 68 04 	sts	0x0468, r25
	k2=eeprom_read_dword((unsigned long*)14);
    1dc2:	8e e0       	ldi	r24, 0x0E	; 14
    1dc4:	90 e0       	ldi	r25, 0x00	; 0
    1dc6:	0e 94 8f 30 	call	0x611e	; 0x611e <__eerd_dword_m32>
    1dca:	60 93 69 04 	sts	0x0469, r22
    1dce:	70 93 6a 04 	sts	0x046A, r23
    1dd2:	80 93 6b 04 	sts	0x046B, r24
    1dd6:	90 93 6c 04 	sts	0x046C, r25
	k=eeprom_read_dword((unsigned long*)18);
    1dda:	82 e1       	ldi	r24, 0x12	; 18
    1ddc:	90 e0       	ldi	r25, 0x00	; 0
    1dde:	0e 94 8f 30 	call	0x611e	; 0x611e <__eerd_dword_m32>
    1de2:	60 93 6d 04 	sts	0x046D, r22
    1de6:	70 93 6e 04 	sts	0x046E, r23
    1dea:	80 93 6f 04 	sts	0x046F, r24
    1dee:	90 93 70 04 	sts	0x0470, r25
	rele_set[0]=eeprom_read_byte((unsigned char*)22);
    1df2:	86 e1       	ldi	r24, 0x16	; 22
    1df4:	90 e0       	ldi	r25, 0x00	; 0
    1df6:	0e 94 87 30 	call	0x610e	; 0x610e <__eerd_byte_m32>
    1dfa:	80 93 f0 04 	sts	0x04F0, r24
	rele_set[1]=eeprom_read_byte((unsigned char*)23);
    1dfe:	87 e1       	ldi	r24, 0x17	; 23
    1e00:	90 e0       	ldi	r25, 0x00	; 0
    1e02:	0e 94 87 30 	call	0x610e	; 0x610e <__eerd_byte_m32>
    1e06:	80 93 f1 04 	sts	0x04F1, r24
	rele_set[2]=eeprom_read_byte((unsigned char*)24);
    1e0a:	88 e1       	ldi	r24, 0x18	; 24
    1e0c:	90 e0       	ldi	r25, 0x00	; 0
    1e0e:	0e 94 87 30 	call	0x610e	; 0x610e <__eerd_byte_m32>
    1e12:	80 93 f2 04 	sts	0x04F2, r24
	rele_set[3]=eeprom_read_byte((unsigned char*)25);
    1e16:	89 e1       	ldi	r24, 0x19	; 25
    1e18:	90 e0       	ldi	r25, 0x00	; 0
    1e1a:	0e 94 87 30 	call	0x610e	; 0x610e <__eerd_byte_m32>
    1e1e:	80 93 f3 04 	sts	0x04F3, r24
	rele_set[4]=eeprom_read_byte((unsigned char*)26);
    1e22:	8a e1       	ldi	r24, 0x1A	; 26
    1e24:	90 e0       	ldi	r25, 0x00	; 0
    1e26:	0e 94 87 30 	call	0x610e	; 0x610e <__eerd_byte_m32>
    1e2a:	80 93 f4 04 	sts	0x04F4, r24
	rele_set[5]=eeprom_read_byte((unsigned char*)27);
    1e2e:	8b e1       	ldi	r24, 0x1B	; 27
    1e30:	90 e0       	ldi	r25, 0x00	; 0
    1e32:	0e 94 87 30 	call	0x610e	; 0x610e <__eerd_byte_m32>
    1e36:	80 93 f5 04 	sts	0x04F5, r24
	rele_set[6]=eeprom_read_byte((unsigned char*)28);
    1e3a:	8c e1       	ldi	r24, 0x1C	; 28
    1e3c:	90 e0       	ldi	r25, 0x00	; 0
    1e3e:	0e 94 87 30 	call	0x610e	; 0x610e <__eerd_byte_m32>
    1e42:	80 93 f6 04 	sts	0x04F6, r24
	rele_set[7]=eeprom_read_byte((unsigned char*)29); 
    1e46:	8d e1       	ldi	r24, 0x1D	; 29
    1e48:	90 e0       	ldi	r25, 0x00	; 0
    1e4a:	0e 94 87 30 	call	0x610e	; 0x610e <__eerd_byte_m32>
    1e4e:	80 93 f7 04 	sts	0x04F7, r24
	cooler_start_pulse[0]=eeprom_read_byte((unsigned char*)30);
    1e52:	8e e1       	ldi	r24, 0x1E	; 30
    1e54:	90 e0       	ldi	r25, 0x00	; 0
    1e56:	0e 94 87 30 	call	0x610e	; 0x610e <__eerd_byte_m32>
    1e5a:	80 93 4a 05 	sts	0x054A, r24
	cooler_start_pulse[1]=eeprom_read_byte((unsigned char*)31);
    1e5e:	8f e1       	ldi	r24, 0x1F	; 31
    1e60:	90 e0       	ldi	r25, 0x00	; 0
    1e62:	0e 94 87 30 	call	0x610e	; 0x610e <__eerd_byte_m32>
    1e66:	80 93 4b 05 	sts	0x054B, r24
	cooler_start_pulse[2]=eeprom_read_byte((unsigned char*)32);
    1e6a:	80 e2       	ldi	r24, 0x20	; 32
    1e6c:	90 e0       	ldi	r25, 0x00	; 0
    1e6e:	0e 94 87 30 	call	0x610e	; 0x610e <__eerd_byte_m32>
    1e72:	80 93 4c 05 	sts	0x054C, r24
	cooler_start_pulse[3]=eeprom_read_byte((unsigned char*)33);
    1e76:	81 e2       	ldi	r24, 0x21	; 33
    1e78:	90 e0       	ldi	r25, 0x00	; 0
    1e7a:	0e 94 87 30 	call	0x610e	; 0x610e <__eerd_byte_m32>
    1e7e:	80 93 4d 05 	sts	0x054D, r24
	cooler_data[0]=eeprom_read_byte((unsigned char*)34);
    1e82:	82 e2       	ldi	r24, 0x22	; 34
    1e84:	90 e0       	ldi	r25, 0x00	; 0
    1e86:	0e 94 87 30 	call	0x610e	; 0x610e <__eerd_byte_m32>
    1e8a:	90 e0       	ldi	r25, 0x00	; 0
    1e8c:	a0 e0       	ldi	r26, 0x00	; 0
    1e8e:	b0 e0       	ldi	r27, 0x00	; 0
    1e90:	bc 01       	movw	r22, r24
    1e92:	cd 01       	movw	r24, r26
    1e94:	0e 94 e3 2e 	call	0x5dc6	; 0x5dc6 <__floatunsisf>
    1e98:	60 93 3a 05 	sts	0x053A, r22
    1e9c:	70 93 3b 05 	sts	0x053B, r23
    1ea0:	80 93 3c 05 	sts	0x053C, r24
    1ea4:	90 93 3d 05 	sts	0x053D, r25
	cooler_data[1]=eeprom_read_byte((unsigned char*)35);
    1ea8:	83 e2       	ldi	r24, 0x23	; 35
    1eaa:	90 e0       	ldi	r25, 0x00	; 0
    1eac:	0e 94 87 30 	call	0x610e	; 0x610e <__eerd_byte_m32>
    1eb0:	90 e0       	ldi	r25, 0x00	; 0
    1eb2:	a0 e0       	ldi	r26, 0x00	; 0
    1eb4:	b0 e0       	ldi	r27, 0x00	; 0
    1eb6:	bc 01       	movw	r22, r24
    1eb8:	cd 01       	movw	r24, r26
    1eba:	0e 94 e3 2e 	call	0x5dc6	; 0x5dc6 <__floatunsisf>
    1ebe:	60 93 3e 05 	sts	0x053E, r22
    1ec2:	70 93 3f 05 	sts	0x053F, r23
    1ec6:	80 93 40 05 	sts	0x0540, r24
    1eca:	90 93 41 05 	sts	0x0541, r25
	cooler_data[2]=eeprom_read_byte((unsigned char*)36);
    1ece:	84 e2       	ldi	r24, 0x24	; 36
    1ed0:	90 e0       	ldi	r25, 0x00	; 0
    1ed2:	0e 94 87 30 	call	0x610e	; 0x610e <__eerd_byte_m32>
    1ed6:	90 e0       	ldi	r25, 0x00	; 0
    1ed8:	a0 e0       	ldi	r26, 0x00	; 0
    1eda:	b0 e0       	ldi	r27, 0x00	; 0
    1edc:	bc 01       	movw	r22, r24
    1ede:	cd 01       	movw	r24, r26
    1ee0:	0e 94 e3 2e 	call	0x5dc6	; 0x5dc6 <__floatunsisf>
    1ee4:	60 93 42 05 	sts	0x0542, r22
    1ee8:	70 93 43 05 	sts	0x0543, r23
    1eec:	80 93 44 05 	sts	0x0544, r24
    1ef0:	90 93 45 05 	sts	0x0545, r25
	cooler_data[3]=eeprom_read_byte((unsigned char*)37);
    1ef4:	85 e2       	ldi	r24, 0x25	; 37
    1ef6:	90 e0       	ldi	r25, 0x00	; 0
    1ef8:	0e 94 87 30 	call	0x610e	; 0x610e <__eerd_byte_m32>
    1efc:	90 e0       	ldi	r25, 0x00	; 0
    1efe:	a0 e0       	ldi	r26, 0x00	; 0
    1f00:	b0 e0       	ldi	r27, 0x00	; 0
    1f02:	bc 01       	movw	r22, r24
    1f04:	cd 01       	movw	r24, r26
    1f06:	0e 94 e3 2e 	call	0x5dc6	; 0x5dc6 <__floatunsisf>
    1f0a:	60 93 46 05 	sts	0x0546, r22
    1f0e:	70 93 47 05 	sts	0x0547, r23
    1f12:	80 93 48 05 	sts	0x0548, r24
    1f16:	90 93 49 05 	sts	0x0549, r25
	cooler_min=eeprom_read_byte((unsigned char*)38);
    1f1a:	86 e2       	ldi	r24, 0x26	; 38
    1f1c:	90 e0       	ldi	r25, 0x00	; 0
    1f1e:	0e 94 87 30 	call	0x610e	; 0x610e <__eerd_byte_m32>
    1f22:	90 e0       	ldi	r25, 0x00	; 0
    1f24:	a0 e0       	ldi	r26, 0x00	; 0
    1f26:	b0 e0       	ldi	r27, 0x00	; 0
    1f28:	bc 01       	movw	r22, r24
    1f2a:	cd 01       	movw	r24, r26
    1f2c:	0e 94 e3 2e 	call	0x5dc6	; 0x5dc6 <__floatunsisf>
    1f30:	60 93 75 04 	sts	0x0475, r22
    1f34:	70 93 76 04 	sts	0x0476, r23
    1f38:	80 93 77 04 	sts	0x0477, r24
    1f3c:	90 93 78 04 	sts	0x0478, r25
	cooler_chanel_status=eeprom_read_byte((unsigned char*)39);
    1f40:	87 e2       	ldi	r24, 0x27	; 39
    1f42:	90 e0       	ldi	r25, 0x00	; 0
    1f44:	0e 94 87 30 	call	0x610e	; 0x610e <__eerd_byte_m32>
    1f48:	80 93 3f 06 	sts	0x063F, r24
	OCR0=eeprom_read_byte((unsigned char*)40);
    1f4c:	88 e2       	ldi	r24, 0x28	; 40
    1f4e:	90 e0       	ldi	r25, 0x00	; 0
    1f50:	0e 94 87 30 	call	0x610e	; 0x610e <__eerd_byte_m32>
    1f54:	8c bf       	out	0x3c, r24	; 60
	lcd_led_stop=eeprom_read_dword((unsigned long*)41);
    1f56:	89 e2       	ldi	r24, 0x29	; 41
    1f58:	90 e0       	ldi	r25, 0x00	; 0
    1f5a:	0e 94 8f 30 	call	0x611e	; 0x611e <__eerd_dword_m32>
    1f5e:	60 93 82 04 	sts	0x0482, r22
    1f62:	70 93 83 04 	sts	0x0483, r23
    1f66:	80 93 84 04 	sts	0x0484, r24
    1f6a:	90 93 85 04 	sts	0x0485, r25
	lcd_led_start=eeprom_read_dword((unsigned long*)45);
    1f6e:	8d e2       	ldi	r24, 0x2D	; 45
    1f70:	90 e0       	ldi	r25, 0x00	; 0
    1f72:	0e 94 8f 30 	call	0x611e	; 0x611e <__eerd_dword_m32>
    1f76:	60 93 7e 04 	sts	0x047E, r22
    1f7a:	70 93 7f 04 	sts	0x047F, r23
    1f7e:	80 93 80 04 	sts	0x0480, r24
    1f82:	90 93 81 04 	sts	0x0481, r25
	cooler_stop=eeprom_read_dword((unsigned long*)49);
    1f86:	81 e3       	ldi	r24, 0x31	; 49
    1f88:	90 e0       	ldi	r25, 0x00	; 0
    1f8a:	0e 94 8f 30 	call	0x611e	; 0x611e <__eerd_dword_m32>
    1f8e:	60 93 8a 04 	sts	0x048A, r22
    1f92:	70 93 8b 04 	sts	0x048B, r23
    1f96:	80 93 8c 04 	sts	0x048C, r24
    1f9a:	90 93 8d 04 	sts	0x048D, r25
	cooler_start=eeprom_read_dword((unsigned long*)53);
    1f9e:	85 e3       	ldi	r24, 0x35	; 53
    1fa0:	90 e0       	ldi	r25, 0x00	; 0
    1fa2:	0e 94 8f 30 	call	0x611e	; 0x611e <__eerd_dword_m32>
    1fa6:	60 93 86 04 	sts	0x0486, r22
    1faa:	70 93 87 04 	sts	0x0487, r23
    1fae:	80 93 88 04 	sts	0x0488, r24
    1fb2:	90 93 89 04 	sts	0x0489, r25
	temp_control=eeprom_read_byte((unsigned char*)57);
    1fb6:	89 e3       	ldi	r24, 0x39	; 57
    1fb8:	90 e0       	ldi	r25, 0x00	; 0
    1fba:	0e 94 87 30 	call	0x610e	; 0x610e <__eerd_byte_m32>
    1fbe:	80 93 e8 04 	sts	0x04E8, r24
	set_temp_sensor=eeprom_read_byte((unsigned char*)58);
    1fc2:	8a e3       	ldi	r24, 0x3A	; 58
    1fc4:	90 e0       	ldi	r25, 0x00	; 0
    1fc6:	0e 94 87 30 	call	0x610e	; 0x610e <__eerd_byte_m32>
    1fca:	80 93 96 04 	sts	0x0496, r24
	set_temp=eeprom_read_word((unsigned int*)59);
    1fce:	8b e3       	ldi	r24, 0x3B	; 59
    1fd0:	90 e0       	ldi	r25, 0x00	; 0
    1fd2:	0e 94 95 30 	call	0x612a	; 0x612a <__eerd_word_m32>
    1fd6:	90 93 61 00 	sts	0x0061, r25
    1fda:	80 93 60 00 	sts	0x0060, r24
	set_temp_dec=eeprom_read_byte((unsigned char*)61);
    1fde:	8d e3       	ldi	r24, 0x3D	; 61
    1fe0:	90 e0       	ldi	r25, 0x00	; 0
    1fe2:	0e 94 87 30 	call	0x610e	; 0x610e <__eerd_byte_m32>
    1fe6:	80 93 64 00 	sts	0x0064, r24
	cooler_set=eeprom_read_word((unsigned int*)62);
    1fea:	8e e3       	ldi	r24, 0x3E	; 62
    1fec:	90 e0       	ldi	r25, 0x00	; 0
    1fee:	0e 94 95 30 	call	0x612a	; 0x612a <__eerd_word_m32>
    1ff2:	90 93 63 00 	sts	0x0063, r25
    1ff6:	80 93 62 00 	sts	0x0062, r24
	cooler=eeprom_read_byte((unsigned char*)64);
    1ffa:	80 e4       	ldi	r24, 0x40	; 64
    1ffc:	90 e0       	ldi	r25, 0x00	; 0
    1ffe:	0e 94 87 30 	call	0x610e	; 0x610e <__eerd_byte_m32>
    2002:	80 93 ed 04 	sts	0x04ED, r24
	heater=eeprom_read_byte((unsigned char*)65);
    2006:	81 e4       	ldi	r24, 0x41	; 65
    2008:	90 e0       	ldi	r25, 0x00	; 0
    200a:	0e 94 87 30 	call	0x610e	; 0x610e <__eerd_byte_m32>
    200e:	80 93 ec 04 	sts	0x04EC, r24
    2012:	ee 24       	eor	r14, r14
    2014:	ff 24       	eor	r15, r15
    2016:	c2 e4       	ldi	r28, 0x42	; 66
    2018:	d0 e0       	ldi	r29, 0x00	; 0
	for(unsigned char i=0;i<9;i++)
	{
		timer1_start[i]=eeprom_read_dword((unsigned long*)(66+(i*4)));
    201a:	ce 01       	movw	r24, r28
    201c:	0e 94 8f 30 	call	0x611e	; 0x611e <__eerd_dword_m32>
    2020:	87 01       	movw	r16, r14
    2022:	00 0f       	add	r16, r16
    2024:	11 1f       	adc	r17, r17
    2026:	00 0f       	add	r16, r16
    2028:	11 1f       	adc	r17, r17
    202a:	f8 01       	movw	r30, r16
    202c:	e1 5b       	subi	r30, 0xB1	; 177
    202e:	fa 4f       	sbci	r31, 0xFA	; 250
    2030:	60 83       	st	Z, r22
    2032:	71 83       	std	Z+1, r23	; 0x01
    2034:	82 83       	std	Z+2, r24	; 0x02
    2036:	93 83       	std	Z+3, r25	; 0x03
		timer2_start[i]=eeprom_read_dword((unsigned long*)(102+(i*4)));
    2038:	ce 01       	movw	r24, r28
    203a:	84 96       	adiw	r24, 0x24	; 36
    203c:	0e 94 8f 30 	call	0x611e	; 0x611e <__eerd_dword_m32>
    2040:	f8 01       	movw	r30, r16
    2042:	e9 56       	subi	r30, 0x69	; 105
    2044:	fa 4f       	sbci	r31, 0xFA	; 250
    2046:	60 83       	st	Z, r22
    2048:	71 83       	std	Z+1, r23	; 0x01
    204a:	82 83       	std	Z+2, r24	; 0x02
    204c:	93 83       	std	Z+3, r25	; 0x03
		timer3_start[i]=eeprom_read_dword((unsigned long*)(138+(i*4)));
    204e:	ce 01       	movw	r24, r28
    2050:	88 5b       	subi	r24, 0xB8	; 184
    2052:	9f 4f       	sbci	r25, 0xFF	; 255
    2054:	0e 94 8f 30 	call	0x611e	; 0x611e <__eerd_dword_m32>
    2058:	f8 01       	movw	r30, r16
    205a:	e1 52       	subi	r30, 0x21	; 33
    205c:	fa 4f       	sbci	r31, 0xFA	; 250
    205e:	60 83       	st	Z, r22
    2060:	71 83       	std	Z+1, r23	; 0x01
    2062:	82 83       	std	Z+2, r24	; 0x02
    2064:	93 83       	std	Z+3, r25	; 0x03
		timer1_stop[i]=eeprom_read_dword((unsigned long*)(174+(i*4)));
    2066:	ce 01       	movw	r24, r28
    2068:	84 59       	subi	r24, 0x94	; 148
    206a:	9f 4f       	sbci	r25, 0xFF	; 255
    206c:	0e 94 8f 30 	call	0x611e	; 0x611e <__eerd_dword_m32>
    2070:	f8 01       	movw	r30, r16
    2072:	ed 58       	subi	r30, 0x8D	; 141
    2074:	fa 4f       	sbci	r31, 0xFA	; 250
    2076:	60 83       	st	Z, r22
    2078:	71 83       	std	Z+1, r23	; 0x01
    207a:	82 83       	std	Z+2, r24	; 0x02
    207c:	93 83       	std	Z+3, r25	; 0x03
		timer2_stop[i]=eeprom_read_dword((unsigned long*)(210+(i*4)));
    207e:	ce 01       	movw	r24, r28
    2080:	80 57       	subi	r24, 0x70	; 112
    2082:	9f 4f       	sbci	r25, 0xFF	; 255
    2084:	0e 94 8f 30 	call	0x611e	; 0x611e <__eerd_dword_m32>
    2088:	f8 01       	movw	r30, r16
    208a:	e5 54       	subi	r30, 0x45	; 69
    208c:	fa 4f       	sbci	r31, 0xFA	; 250
    208e:	60 83       	st	Z, r22
    2090:	71 83       	std	Z+1, r23	; 0x01
    2092:	82 83       	std	Z+2, r24	; 0x02
    2094:	93 83       	std	Z+3, r25	; 0x03
		timer3_stop[i]=eeprom_read_dword((unsigned long*)(246+(i*4)));
    2096:	ce 01       	movw	r24, r28
    2098:	8c 54       	subi	r24, 0x4C	; 76
    209a:	9f 4f       	sbci	r25, 0xFF	; 255
    209c:	0e 94 8f 30 	call	0x611e	; 0x611e <__eerd_dword_m32>
    20a0:	0d 5f       	subi	r16, 0xFD	; 253
    20a2:	19 4f       	sbci	r17, 0xF9	; 249
    20a4:	f8 01       	movw	r30, r16
    20a6:	60 83       	st	Z, r22
    20a8:	71 83       	std	Z+1, r23	; 0x01
    20aa:	82 83       	std	Z+2, r24	; 0x02
    20ac:	93 83       	std	Z+3, r25	; 0x03
    20ae:	08 94       	sec
    20b0:	e1 1c       	adc	r14, r1
    20b2:	f1 1c       	adc	r15, r1
    20b4:	24 96       	adiw	r28, 0x04	; 4
	set_temp=eeprom_read_word((unsigned int*)59);
	set_temp_dec=eeprom_read_byte((unsigned char*)61);
	cooler_set=eeprom_read_word((unsigned int*)62);
	cooler=eeprom_read_byte((unsigned char*)64);
	heater=eeprom_read_byte((unsigned char*)65);
	for(unsigned char i=0;i<9;i++)
    20b6:	f9 e0       	ldi	r31, 0x09	; 9
    20b8:	ef 16       	cp	r14, r31
    20ba:	f1 04       	cpc	r15, r1
    20bc:	09 f0       	breq	.+2      	; 0x20c0 <load_option_eeprom+0x322>
    20be:	ad cf       	rjmp	.-166    	; 0x201a <load_option_eeprom+0x27c>
		timer3_start[i]=eeprom_read_dword((unsigned long*)(138+(i*4)));
		timer1_stop[i]=eeprom_read_dword((unsigned long*)(174+(i*4)));
		timer2_stop[i]=eeprom_read_dword((unsigned long*)(210+(i*4)));
		timer3_stop[i]=eeprom_read_dword((unsigned long*)(246+(i*4)));
	}
	produv=eeprom_read_byte((unsigned char*)282);
    20c0:	8a e1       	ldi	r24, 0x1A	; 26
    20c2:	91 e0       	ldi	r25, 0x01	; 1
    20c4:	0e 94 87 30 	call	0x610e	; 0x610e <__eerd_byte_m32>
    20c8:	80 93 e9 04 	sts	0x04E9, r24
	timer_produv_time=eeprom_read_dword((unsigned long*)283);
    20cc:	8b e1       	ldi	r24, 0x1B	; 27
    20ce:	91 e0       	ldi	r25, 0x01	; 1
    20d0:	0e 94 8f 30 	call	0x611e	; 0x611e <__eerd_dword_m32>
    20d4:	60 93 79 04 	sts	0x0479, r22
    20d8:	70 93 7a 04 	sts	0x047A, r23
    20dc:	80 93 7b 04 	sts	0x047B, r24
    20e0:	90 93 7c 04 	sts	0x047C, r25
	timer_produv_period=eeprom_read_byte((unsigned char*)287);
    20e4:	8f e1       	ldi	r24, 0x1F	; 31
    20e6:	91 e0       	ldi	r25, 0x01	; 1
    20e8:	0e 94 87 30 	call	0x610e	; 0x610e <__eerd_byte_m32>
    20ec:	80 93 7d 04 	sts	0x047D, r24
	co2=eeprom_read_byte((unsigned char*)288);
    20f0:	80 e2       	ldi	r24, 0x20	; 32
    20f2:	91 e0       	ldi	r25, 0x01	; 1
    20f4:	0e 94 87 30 	call	0x610e	; 0x610e <__eerd_byte_m32>
    20f8:	80 93 ee 04 	sts	0x04EE, r24
	ph_high=eeprom_read_word((unsigned int*)289);
    20fc:	81 e2       	ldi	r24, 0x21	; 33
    20fe:	91 e0       	ldi	r25, 0x01	; 1
    2100:	0e 94 95 30 	call	0x612a	; 0x612a <__eerd_word_m32>
    2104:	90 93 72 04 	sts	0x0472, r25
    2108:	80 93 71 04 	sts	0x0471, r24
	ph_low=eeprom_read_word((unsigned int*)291);
    210c:	83 e2       	ldi	r24, 0x23	; 35
    210e:	91 e0       	ldi	r25, 0x01	; 1
    2110:	0e 94 95 30 	call	0x612a	; 0x612a <__eerd_word_m32>
    2114:	90 93 74 04 	sts	0x0474, r25
    2118:	80 93 73 04 	sts	0x0473, r24
	co2_stop=eeprom_read_dword((unsigned long*)293);
    211c:	85 e2       	ldi	r24, 0x25	; 37
    211e:	91 e0       	ldi	r25, 0x01	; 1
    2120:	0e 94 8f 30 	call	0x611e	; 0x611e <__eerd_dword_m32>
    2124:	60 93 92 04 	sts	0x0492, r22
    2128:	70 93 93 04 	sts	0x0493, r23
    212c:	80 93 94 04 	sts	0x0494, r24
    2130:	90 93 95 04 	sts	0x0495, r25
	co2_start=eeprom_read_dword((unsigned long*)297);
    2134:	89 e2       	ldi	r24, 0x29	; 41
    2136:	91 e0       	ldi	r25, 0x01	; 1
    2138:	0e 94 8f 30 	call	0x611e	; 0x611e <__eerd_dword_m32>
    213c:	60 93 8e 04 	sts	0x048E, r22
    2140:	70 93 8f 04 	sts	0x048F, r23
    2144:	80 93 90 04 	sts	0x0490, r24
    2148:	90 93 91 04 	sts	0x0491, r25
	heater_timer_status=eeprom_read_byte((unsigned char*)301);
    214c:	8d e2       	ldi	r24, 0x2D	; 45
    214e:	91 e0       	ldi	r25, 0x01	; 1
    2150:	0e 94 87 30 	call	0x610e	; 0x610e <__eerd_byte_m32>
    2154:	80 93 3a 06 	sts	0x063A, r24
	co2_timer_status=eeprom_read_byte((unsigned char*)302);
    2158:	8e e2       	ldi	r24, 0x2E	; 46
    215a:	91 e0       	ldi	r25, 0x01	; 1
    215c:	0e 94 87 30 	call	0x610e	; 0x610e <__eerd_byte_m32>
    2160:	80 93 3b 06 	sts	0x063B, r24
	co2_set=eeprom_read_byte((unsigned char*)303);
    2164:	8f e2       	ldi	r24, 0x2F	; 47
    2166:	91 e0       	ldi	r25, 0x01	; 1
    2168:	0e 94 87 30 	call	0x610e	; 0x610e <__eerd_byte_m32>
    216c:	80 93 ef 04 	sts	0x04EF, r24
	water_lvl=eeprom_read_word((unsigned int*)304);
    2170:	80 e3       	ldi	r24, 0x30	; 48
    2172:	91 e0       	ldi	r25, 0x01	; 1
    2174:	0e 94 95 30 	call	0x612a	; 0x612a <__eerd_word_m32>
    2178:	90 93 21 05 	sts	0x0521, r25
    217c:	80 93 20 05 	sts	0x0520, r24
	doliv_porog1=eeprom_read_word((unsigned int*)306);
    2180:	82 e3       	ldi	r24, 0x32	; 50
    2182:	91 e0       	ldi	r25, 0x01	; 1
    2184:	0e 94 95 30 	call	0x612a	; 0x612a <__eerd_word_m32>
    2188:	90 93 fd 04 	sts	0x04FD, r25
    218c:	80 93 fc 04 	sts	0x04FC, r24
	doliv_porog2=eeprom_read_word((unsigned int*)308);
    2190:	84 e3       	ldi	r24, 0x34	; 52
    2192:	91 e0       	ldi	r25, 0x01	; 1
    2194:	0e 94 95 30 	call	0x612a	; 0x612a <__eerd_word_m32>
    2198:	90 93 ff 04 	sts	0x04FF, r25
    219c:	80 93 fe 04 	sts	0x04FE, r24
	water_lvl_status=eeprom_read_byte((unsigned char*)310);
    21a0:	86 e3       	ldi	r24, 0x36	; 54
    21a2:	91 e0       	ldi	r25, 0x01	; 1
    21a4:	0e 94 87 30 	call	0x610e	; 0x610e <__eerd_byte_m32>
    21a8:	80 93 03 05 	sts	0x0503, r24
	co2_status=eeprom_read_byte((unsigned char*)311);
    21ac:	87 e3       	ldi	r24, 0x37	; 55
    21ae:	91 e0       	ldi	r25, 0x01	; 1
    21b0:	0e 94 87 30 	call	0x610e	; 0x610e <__eerd_byte_m32>
    21b4:	80 93 04 05 	sts	0x0504, r24
	doliv=eeprom_read_byte((unsigned char*)312);
    21b8:	88 e3       	ldi	r24, 0x38	; 56
    21ba:	91 e0       	ldi	r25, 0x01	; 1
    21bc:	0e 94 87 30 	call	0x610e	; 0x610e <__eerd_byte_m32>
    21c0:	80 93 fa 04 	sts	0x04FA, r24
	heater_chanel_status=eeprom_read_byte((unsigned char*)313);
    21c4:	89 e3       	ldi	r24, 0x39	; 57
    21c6:	91 e0       	ldi	r25, 0x01	; 1
    21c8:	0e 94 87 30 	call	0x610e	; 0x610e <__eerd_byte_m32>
    21cc:	80 93 40 06 	sts	0x0640, r24
}
    21d0:	df 91       	pop	r29
    21d2:	cf 91       	pop	r28
    21d4:	1f 91       	pop	r17
    21d6:	0f 91       	pop	r16
    21d8:	ff 90       	pop	r15
    21da:	ef 90       	pop	r14
    21dc:	08 95       	ret

000021de <save_option_eeprom>:
// функция записи настроек в EEPROM
// ввиду длительной записи данных в EEPROM функция разделена на этапы
void save_option_eeprom(void)
{
	unsigned char count_i=0;
	eeprom_count++; // отсчет транзакций
    21de:	80 91 42 06 	lds	r24, 0x0642
    21e2:	8f 5f       	subi	r24, 0xFF	; 255
    21e4:	80 93 42 06 	sts	0x0642, r24
	switch(eeprom_count)
    21e8:	87 30       	cpi	r24, 0x07	; 7
    21ea:	09 f4       	brne	.+2      	; 0x21ee <save_option_eeprom+0x10>
    21ec:	2e c2       	rjmp	.+1116   	; 0x264a <save_option_eeprom+0x46c>
    21ee:	88 30       	cpi	r24, 0x08	; 8
    21f0:	90 f4       	brcc	.+36     	; 0x2216 <save_option_eeprom+0x38>
    21f2:	83 30       	cpi	r24, 0x03	; 3
    21f4:	09 f4       	brne	.+2      	; 0x21f8 <save_option_eeprom+0x1a>
    21f6:	0d c1       	rjmp	.+538    	; 0x2412 <save_option_eeprom+0x234>
    21f8:	84 30       	cpi	r24, 0x04	; 4
    21fa:	30 f4       	brcc	.+12     	; 0x2208 <save_option_eeprom+0x2a>
    21fc:	81 30       	cpi	r24, 0x01	; 1
    21fe:	09 f1       	breq	.+66     	; 0x2242 <save_option_eeprom+0x64>
    2200:	82 30       	cpi	r24, 0x02	; 2
    2202:	09 f0       	breq	.+2      	; 0x2206 <save_option_eeprom+0x28>
    2204:	58 c4       	rjmp	.+2224   	; 0x2ab6 <save_option_eeprom+0x8d8>
    2206:	6a c0       	rjmp	.+212    	; 0x22dc <save_option_eeprom+0xfe>
    2208:	85 30       	cpi	r24, 0x05	; 5
    220a:	09 f4       	brne	.+2      	; 0x220e <save_option_eeprom+0x30>
    220c:	90 c1       	rjmp	.+800    	; 0x252e <save_option_eeprom+0x350>
    220e:	86 30       	cpi	r24, 0x06	; 6
    2210:	08 f0       	brcs	.+2      	; 0x2214 <save_option_eeprom+0x36>
    2212:	d4 c1       	rjmp	.+936    	; 0x25bc <save_option_eeprom+0x3de>
    2214:	45 c1       	rjmp	.+650    	; 0x24a0 <save_option_eeprom+0x2c2>
    2216:	8b 30       	cpi	r24, 0x0B	; 11
    2218:	09 f4       	brne	.+2      	; 0x221c <save_option_eeprom+0x3e>
    221a:	33 c3       	rjmp	.+1638   	; 0x2882 <save_option_eeprom+0x6a4>
    221c:	8c 30       	cpi	r24, 0x0C	; 12
    221e:	38 f4       	brcc	.+14     	; 0x222e <save_option_eeprom+0x50>
    2220:	89 30       	cpi	r24, 0x09	; 9
    2222:	09 f4       	brne	.+2      	; 0x2226 <save_option_eeprom+0x48>
    2224:	a0 c2       	rjmp	.+1344   	; 0x2766 <save_option_eeprom+0x588>
    2226:	8a 30       	cpi	r24, 0x0A	; 10
    2228:	08 f0       	brcs	.+2      	; 0x222c <save_option_eeprom+0x4e>
    222a:	e4 c2       	rjmp	.+1480   	; 0x27f4 <save_option_eeprom+0x616>
    222c:	55 c2       	rjmp	.+1194   	; 0x26d8 <save_option_eeprom+0x4fa>
    222e:	8d 30       	cpi	r24, 0x0D	; 13
    2230:	09 f4       	brne	.+2      	; 0x2234 <save_option_eeprom+0x56>
    2232:	b7 c3       	rjmp	.+1902   	; 0x29a2 <save_option_eeprom+0x7c4>
    2234:	8d 30       	cpi	r24, 0x0D	; 13
    2236:	08 f4       	brcc	.+2      	; 0x223a <save_option_eeprom+0x5c>
    2238:	6b c3       	rjmp	.+1750   	; 0x2910 <save_option_eeprom+0x732>
    223a:	8e 30       	cpi	r24, 0x0E	; 14
    223c:	09 f0       	breq	.+2      	; 0x2240 <save_option_eeprom+0x62>
    223e:	3b c4       	rjmp	.+2166   	; 0x2ab6 <save_option_eeprom+0x8d8>
    2240:	fc c3       	rjmp	.+2040   	; 0x2a3a <save_option_eeprom+0x85c>
	{
		case 1:
		{
			// записать значение - "запись произведена"
			eeprom_write_word((unsigned int*)1000,0x1d);
    2242:	88 ee       	ldi	r24, 0xE8	; 232
    2244:	93 e0       	ldi	r25, 0x03	; 3
    2246:	6d e1       	ldi	r22, 0x1D	; 29
    2248:	70 e0       	ldi	r23, 0x00	; 0
    224a:	0e 94 b0 30 	call	0x6160	; 0x6160 <__eewr_word_m32>
			// настройки, текущие переменные режимов, коэффициенты
			eeprom_write_dword((unsigned long*)10,k1);
    224e:	40 91 65 04 	lds	r20, 0x0465
    2252:	50 91 66 04 	lds	r21, 0x0466
    2256:	60 91 67 04 	lds	r22, 0x0467
    225a:	70 91 68 04 	lds	r23, 0x0468
    225e:	8a e0       	ldi	r24, 0x0A	; 10
    2260:	90 e0       	ldi	r25, 0x00	; 0
    2262:	0e 94 a8 30 	call	0x6150	; 0x6150 <__eewr_dword_m32>
			eeprom_write_dword((unsigned long*)14,k2);
    2266:	40 91 69 04 	lds	r20, 0x0469
    226a:	50 91 6a 04 	lds	r21, 0x046A
    226e:	60 91 6b 04 	lds	r22, 0x046B
    2272:	70 91 6c 04 	lds	r23, 0x046C
    2276:	8e e0       	ldi	r24, 0x0E	; 14
    2278:	90 e0       	ldi	r25, 0x00	; 0
    227a:	0e 94 a8 30 	call	0x6150	; 0x6150 <__eewr_dword_m32>
			eeprom_write_dword((unsigned long*)18,k);
    227e:	40 91 6d 04 	lds	r20, 0x046D
    2282:	50 91 6e 04 	lds	r21, 0x046E
    2286:	60 91 6f 04 	lds	r22, 0x046F
    228a:	70 91 70 04 	lds	r23, 0x0470
    228e:	82 e1       	ldi	r24, 0x12	; 18
    2290:	90 e0       	ldi	r25, 0x00	; 0
    2292:	0e 94 a8 30 	call	0x6150	; 0x6150 <__eewr_dword_m32>
			eeprom_write_byte((unsigned char*)22,rele_set[0]);
    2296:	86 e1       	ldi	r24, 0x16	; 22
    2298:	90 e0       	ldi	r25, 0x00	; 0
    229a:	60 91 f0 04 	lds	r22, 0x04F0
    229e:	0e 94 9b 30 	call	0x6136	; 0x6136 <__eewr_byte_m32>
			eeprom_write_byte((unsigned char*)23,rele_set[1]);
    22a2:	87 e1       	ldi	r24, 0x17	; 23
    22a4:	90 e0       	ldi	r25, 0x00	; 0
    22a6:	60 91 f1 04 	lds	r22, 0x04F1
    22aa:	0e 94 9b 30 	call	0x6136	; 0x6136 <__eewr_byte_m32>
			eeprom_write_byte((unsigned char*)24,rele_set[2]);
    22ae:	88 e1       	ldi	r24, 0x18	; 24
    22b0:	90 e0       	ldi	r25, 0x00	; 0
    22b2:	60 91 f2 04 	lds	r22, 0x04F2
    22b6:	0e 94 9b 30 	call	0x6136	; 0x6136 <__eewr_byte_m32>
			eeprom_write_byte((unsigned char*)25,rele_set[3]);
    22ba:	89 e1       	ldi	r24, 0x19	; 25
    22bc:	90 e0       	ldi	r25, 0x00	; 0
    22be:	60 91 f3 04 	lds	r22, 0x04F3
    22c2:	0e 94 9b 30 	call	0x6136	; 0x6136 <__eewr_byte_m32>
			eeprom_write_byte((unsigned char*)26,rele_set[4]);
    22c6:	8a e1       	ldi	r24, 0x1A	; 26
    22c8:	90 e0       	ldi	r25, 0x00	; 0
    22ca:	60 91 f4 04 	lds	r22, 0x04F4
    22ce:	0e 94 9b 30 	call	0x6136	; 0x6136 <__eewr_byte_m32>
			eeprom_write_byte((unsigned char*)27,rele_set[5]);
    22d2:	8b e1       	ldi	r24, 0x1B	; 27
    22d4:	90 e0       	ldi	r25, 0x00	; 0
    22d6:	60 91 f5 04 	lds	r22, 0x04F5
    22da:	df c0       	rjmp	.+446    	; 0x249a <save_option_eeprom+0x2bc>
		}break;
		case 2:
		{
			eeprom_write_byte((unsigned char*)28,rele_set[6]);
    22dc:	8c e1       	ldi	r24, 0x1C	; 28
    22de:	90 e0       	ldi	r25, 0x00	; 0
    22e0:	60 91 f6 04 	lds	r22, 0x04F6
    22e4:	0e 94 9b 30 	call	0x6136	; 0x6136 <__eewr_byte_m32>
			eeprom_write_byte((unsigned char*)29,rele_set[7]);
    22e8:	8d e1       	ldi	r24, 0x1D	; 29
    22ea:	90 e0       	ldi	r25, 0x00	; 0
    22ec:	60 91 f7 04 	lds	r22, 0x04F7
    22f0:	0e 94 9b 30 	call	0x6136	; 0x6136 <__eewr_byte_m32>
			eeprom_write_byte((unsigned char*)30,cooler_start_pulse[0]);
    22f4:	8e e1       	ldi	r24, 0x1E	; 30
    22f6:	90 e0       	ldi	r25, 0x00	; 0
    22f8:	60 91 4a 05 	lds	r22, 0x054A
    22fc:	0e 94 9b 30 	call	0x6136	; 0x6136 <__eewr_byte_m32>
			eeprom_write_byte((unsigned char*)31,cooler_start_pulse[1]);
    2300:	8f e1       	ldi	r24, 0x1F	; 31
    2302:	90 e0       	ldi	r25, 0x00	; 0
    2304:	60 91 4b 05 	lds	r22, 0x054B
    2308:	0e 94 9b 30 	call	0x6136	; 0x6136 <__eewr_byte_m32>
			eeprom_write_byte((unsigned char*)32,cooler_start_pulse[2]);
    230c:	80 e2       	ldi	r24, 0x20	; 32
    230e:	90 e0       	ldi	r25, 0x00	; 0
    2310:	60 91 4c 05 	lds	r22, 0x054C
    2314:	0e 94 9b 30 	call	0x6136	; 0x6136 <__eewr_byte_m32>
			eeprom_write_byte((unsigned char*)33,cooler_start_pulse[3]);
    2318:	81 e2       	ldi	r24, 0x21	; 33
    231a:	90 e0       	ldi	r25, 0x00	; 0
    231c:	60 91 4d 05 	lds	r22, 0x054D
    2320:	0e 94 9b 30 	call	0x6136	; 0x6136 <__eewr_byte_m32>
			eeprom_write_byte((unsigned char*)34,cooler_data[0]);
    2324:	60 91 3a 05 	lds	r22, 0x053A
    2328:	70 91 3b 05 	lds	r23, 0x053B
    232c:	80 91 3c 05 	lds	r24, 0x053C
    2330:	90 91 3d 05 	lds	r25, 0x053D
    2334:	0e 94 b7 2e 	call	0x5d6e	; 0x5d6e <__fixunssfsi>
    2338:	9b 01       	movw	r18, r22
    233a:	ac 01       	movw	r20, r24
    233c:	82 e2       	ldi	r24, 0x22	; 34
    233e:	90 e0       	ldi	r25, 0x00	; 0
    2340:	62 2f       	mov	r22, r18
    2342:	0e 94 9b 30 	call	0x6136	; 0x6136 <__eewr_byte_m32>
			eeprom_write_byte((unsigned char*)35,cooler_data[1]);
    2346:	60 91 3e 05 	lds	r22, 0x053E
    234a:	70 91 3f 05 	lds	r23, 0x053F
    234e:	80 91 40 05 	lds	r24, 0x0540
    2352:	90 91 41 05 	lds	r25, 0x0541
    2356:	0e 94 b7 2e 	call	0x5d6e	; 0x5d6e <__fixunssfsi>
    235a:	9b 01       	movw	r18, r22
    235c:	ac 01       	movw	r20, r24
    235e:	83 e2       	ldi	r24, 0x23	; 35
    2360:	90 e0       	ldi	r25, 0x00	; 0
    2362:	62 2f       	mov	r22, r18
    2364:	0e 94 9b 30 	call	0x6136	; 0x6136 <__eewr_byte_m32>
			eeprom_write_byte((unsigned char*)36,cooler_data[2]);
    2368:	60 91 42 05 	lds	r22, 0x0542
    236c:	70 91 43 05 	lds	r23, 0x0543
    2370:	80 91 44 05 	lds	r24, 0x0544
    2374:	90 91 45 05 	lds	r25, 0x0545
    2378:	0e 94 b7 2e 	call	0x5d6e	; 0x5d6e <__fixunssfsi>
    237c:	9b 01       	movw	r18, r22
    237e:	ac 01       	movw	r20, r24
    2380:	84 e2       	ldi	r24, 0x24	; 36
    2382:	90 e0       	ldi	r25, 0x00	; 0
    2384:	62 2f       	mov	r22, r18
    2386:	0e 94 9b 30 	call	0x6136	; 0x6136 <__eewr_byte_m32>
			eeprom_write_byte((unsigned char*)37,cooler_data[3]);
    238a:	60 91 46 05 	lds	r22, 0x0546
    238e:	70 91 47 05 	lds	r23, 0x0547
    2392:	80 91 48 05 	lds	r24, 0x0548
    2396:	90 91 49 05 	lds	r25, 0x0549
    239a:	0e 94 b7 2e 	call	0x5d6e	; 0x5d6e <__fixunssfsi>
    239e:	9b 01       	movw	r18, r22
    23a0:	ac 01       	movw	r20, r24
    23a2:	85 e2       	ldi	r24, 0x25	; 37
    23a4:	90 e0       	ldi	r25, 0x00	; 0
    23a6:	62 2f       	mov	r22, r18
    23a8:	0e 94 9b 30 	call	0x6136	; 0x6136 <__eewr_byte_m32>
			eeprom_write_byte((unsigned char*)38,cooler_min);
    23ac:	60 91 75 04 	lds	r22, 0x0475
    23b0:	70 91 76 04 	lds	r23, 0x0476
    23b4:	80 91 77 04 	lds	r24, 0x0477
    23b8:	90 91 78 04 	lds	r25, 0x0478
    23bc:	0e 94 b7 2e 	call	0x5d6e	; 0x5d6e <__fixunssfsi>
    23c0:	9b 01       	movw	r18, r22
    23c2:	ac 01       	movw	r20, r24
    23c4:	86 e2       	ldi	r24, 0x26	; 38
    23c6:	90 e0       	ldi	r25, 0x00	; 0
    23c8:	62 2f       	mov	r22, r18
    23ca:	0e 94 9b 30 	call	0x6136	; 0x6136 <__eewr_byte_m32>
			eeprom_write_byte((unsigned char*)39,cooler_chanel_status);
    23ce:	87 e2       	ldi	r24, 0x27	; 39
    23d0:	90 e0       	ldi	r25, 0x00	; 0
    23d2:	60 91 3f 06 	lds	r22, 0x063F
    23d6:	0e 94 9b 30 	call	0x6136	; 0x6136 <__eewr_byte_m32>
			eeprom_write_byte((unsigned char*)40,OCR0);
    23da:	6c b7       	in	r22, 0x3c	; 60
    23dc:	88 e2       	ldi	r24, 0x28	; 40
    23de:	90 e0       	ldi	r25, 0x00	; 0
    23e0:	0e 94 9b 30 	call	0x6136	; 0x6136 <__eewr_byte_m32>
			eeprom_write_dword((unsigned long*)41,lcd_led_stop);
    23e4:	40 91 82 04 	lds	r20, 0x0482
    23e8:	50 91 83 04 	lds	r21, 0x0483
    23ec:	60 91 84 04 	lds	r22, 0x0484
    23f0:	70 91 85 04 	lds	r23, 0x0485
    23f4:	89 e2       	ldi	r24, 0x29	; 41
    23f6:	90 e0       	ldi	r25, 0x00	; 0
    23f8:	0e 94 a8 30 	call	0x6150	; 0x6150 <__eewr_dword_m32>
			eeprom_write_dword((unsigned long*)45,lcd_led_start);
    23fc:	40 91 7e 04 	lds	r20, 0x047E
    2400:	50 91 7f 04 	lds	r21, 0x047F
    2404:	60 91 80 04 	lds	r22, 0x0480
    2408:	70 91 81 04 	lds	r23, 0x0481
    240c:	8d e2       	ldi	r24, 0x2D	; 45
    240e:	90 e0       	ldi	r25, 0x00	; 0
    2410:	c5 c2       	rjmp	.+1418   	; 0x299c <save_option_eeprom+0x7be>
		}break;
		case 3:
		{
			eeprom_write_dword((unsigned long*)49,cooler_stop);
    2412:	40 91 8a 04 	lds	r20, 0x048A
    2416:	50 91 8b 04 	lds	r21, 0x048B
    241a:	60 91 8c 04 	lds	r22, 0x048C
    241e:	70 91 8d 04 	lds	r23, 0x048D
    2422:	81 e3       	ldi	r24, 0x31	; 49
    2424:	90 e0       	ldi	r25, 0x00	; 0
    2426:	0e 94 a8 30 	call	0x6150	; 0x6150 <__eewr_dword_m32>
			eeprom_write_dword((unsigned long*)53,cooler_start);
    242a:	40 91 86 04 	lds	r20, 0x0486
    242e:	50 91 87 04 	lds	r21, 0x0487
    2432:	60 91 88 04 	lds	r22, 0x0488
    2436:	70 91 89 04 	lds	r23, 0x0489
    243a:	85 e3       	ldi	r24, 0x35	; 53
    243c:	90 e0       	ldi	r25, 0x00	; 0
    243e:	0e 94 a8 30 	call	0x6150	; 0x6150 <__eewr_dword_m32>
			eeprom_write_byte((unsigned char*)57,temp_control);
    2442:	89 e3       	ldi	r24, 0x39	; 57
    2444:	90 e0       	ldi	r25, 0x00	; 0
    2446:	60 91 e8 04 	lds	r22, 0x04E8
    244a:	0e 94 9b 30 	call	0x6136	; 0x6136 <__eewr_byte_m32>
			eeprom_write_byte((unsigned char*)58,set_temp_sensor);
    244e:	8a e3       	ldi	r24, 0x3A	; 58
    2450:	90 e0       	ldi	r25, 0x00	; 0
    2452:	60 91 96 04 	lds	r22, 0x0496
    2456:	0e 94 9b 30 	call	0x6136	; 0x6136 <__eewr_byte_m32>
			eeprom_write_word((unsigned int*)59,set_temp);
    245a:	60 91 60 00 	lds	r22, 0x0060
    245e:	70 91 61 00 	lds	r23, 0x0061
    2462:	8b e3       	ldi	r24, 0x3B	; 59
    2464:	90 e0       	ldi	r25, 0x00	; 0
    2466:	0e 94 b0 30 	call	0x6160	; 0x6160 <__eewr_word_m32>
			eeprom_write_byte((unsigned char*)61,set_temp_dec);
    246a:	8d e3       	ldi	r24, 0x3D	; 61
    246c:	90 e0       	ldi	r25, 0x00	; 0
    246e:	60 91 64 00 	lds	r22, 0x0064
    2472:	0e 94 9b 30 	call	0x6136	; 0x6136 <__eewr_byte_m32>
			eeprom_write_word((unsigned int*)62,cooler_set);
    2476:	60 91 62 00 	lds	r22, 0x0062
    247a:	70 91 63 00 	lds	r23, 0x0063
    247e:	8e e3       	ldi	r24, 0x3E	; 62
    2480:	90 e0       	ldi	r25, 0x00	; 0
    2482:	0e 94 b0 30 	call	0x6160	; 0x6160 <__eewr_word_m32>
			eeprom_write_byte((unsigned char*)64,cooler);
    2486:	80 e4       	ldi	r24, 0x40	; 64
    2488:	90 e0       	ldi	r25, 0x00	; 0
    248a:	60 91 ed 04 	lds	r22, 0x04ED
    248e:	0e 94 9b 30 	call	0x6136	; 0x6136 <__eewr_byte_m32>
			eeprom_write_byte((unsigned char*)65,heater);
    2492:	81 e4       	ldi	r24, 0x41	; 65
    2494:	90 e0       	ldi	r25, 0x00	; 0
    2496:	60 91 ec 04 	lds	r22, 0x04EC
    249a:	0e 94 9b 30 	call	0x6136	; 0x6136 <__eewr_byte_m32>
    249e:	08 95       	ret
		}break;
		case 4:
		{
			count_i=0;
			eeprom_write_dword((unsigned long*)(66+(count_i*4)), (unsigned long)timer1_start[count_i]);
    24a0:	40 91 4f 05 	lds	r20, 0x054F
    24a4:	50 91 50 05 	lds	r21, 0x0550
    24a8:	60 91 51 05 	lds	r22, 0x0551
    24ac:	70 91 52 05 	lds	r23, 0x0552
    24b0:	82 e4       	ldi	r24, 0x42	; 66
    24b2:	90 e0       	ldi	r25, 0x00	; 0
    24b4:	0e 94 a8 30 	call	0x6150	; 0x6150 <__eewr_dword_m32>
			eeprom_write_dword((unsigned long*)(102+(count_i*4)),(unsigned long)timer2_start[count_i]);
    24b8:	40 91 97 05 	lds	r20, 0x0597
    24bc:	50 91 98 05 	lds	r21, 0x0598
    24c0:	60 91 99 05 	lds	r22, 0x0599
    24c4:	70 91 9a 05 	lds	r23, 0x059A
    24c8:	86 e6       	ldi	r24, 0x66	; 102
    24ca:	90 e0       	ldi	r25, 0x00	; 0
    24cc:	0e 94 a8 30 	call	0x6150	; 0x6150 <__eewr_dword_m32>
			eeprom_write_dword((unsigned long*)(138+(count_i*4)),(unsigned long)timer3_start[count_i]);
    24d0:	40 91 df 05 	lds	r20, 0x05DF
    24d4:	50 91 e0 05 	lds	r21, 0x05E0
    24d8:	60 91 e1 05 	lds	r22, 0x05E1
    24dc:	70 91 e2 05 	lds	r23, 0x05E2
    24e0:	8a e8       	ldi	r24, 0x8A	; 138
    24e2:	90 e0       	ldi	r25, 0x00	; 0
    24e4:	0e 94 a8 30 	call	0x6150	; 0x6150 <__eewr_dword_m32>
			eeprom_write_dword((unsigned long*)(174+(count_i*4)),(unsigned long)timer1_stop[count_i]);
    24e8:	40 91 73 05 	lds	r20, 0x0573
    24ec:	50 91 74 05 	lds	r21, 0x0574
    24f0:	60 91 75 05 	lds	r22, 0x0575
    24f4:	70 91 76 05 	lds	r23, 0x0576
    24f8:	8e ea       	ldi	r24, 0xAE	; 174
    24fa:	90 e0       	ldi	r25, 0x00	; 0
    24fc:	0e 94 a8 30 	call	0x6150	; 0x6150 <__eewr_dword_m32>
			eeprom_write_dword((unsigned long*)(210+(count_i*4)),(unsigned long)timer2_stop[count_i]);
    2500:	40 91 bb 05 	lds	r20, 0x05BB
    2504:	50 91 bc 05 	lds	r21, 0x05BC
    2508:	60 91 bd 05 	lds	r22, 0x05BD
    250c:	70 91 be 05 	lds	r23, 0x05BE
    2510:	82 ed       	ldi	r24, 0xD2	; 210
    2512:	90 e0       	ldi	r25, 0x00	; 0
    2514:	0e 94 a8 30 	call	0x6150	; 0x6150 <__eewr_dword_m32>
			eeprom_write_dword((unsigned long*)(246+(count_i*4)),(unsigned long)timer3_stop[count_i]);
    2518:	40 91 03 06 	lds	r20, 0x0603
    251c:	50 91 04 06 	lds	r21, 0x0604
    2520:	60 91 05 06 	lds	r22, 0x0605
    2524:	70 91 06 06 	lds	r23, 0x0606
    2528:	86 ef       	ldi	r24, 0xF6	; 246
    252a:	90 e0       	ldi	r25, 0x00	; 0
    252c:	37 c2       	rjmp	.+1134   	; 0x299c <save_option_eeprom+0x7be>
		}break;
		case 5:
		{
			count_i=1;
			eeprom_write_dword((unsigned long*)(66+(count_i*4)), (unsigned long)timer1_start[count_i]);
    252e:	40 91 53 05 	lds	r20, 0x0553
    2532:	50 91 54 05 	lds	r21, 0x0554
    2536:	60 91 55 05 	lds	r22, 0x0555
    253a:	70 91 56 05 	lds	r23, 0x0556
    253e:	86 e4       	ldi	r24, 0x46	; 70
    2540:	90 e0       	ldi	r25, 0x00	; 0
    2542:	0e 94 a8 30 	call	0x6150	; 0x6150 <__eewr_dword_m32>
			eeprom_write_dword((unsigned long*)(102+(count_i*4)),(unsigned long)timer2_start[count_i]);
    2546:	40 91 9b 05 	lds	r20, 0x059B
    254a:	50 91 9c 05 	lds	r21, 0x059C
    254e:	60 91 9d 05 	lds	r22, 0x059D
    2552:	70 91 9e 05 	lds	r23, 0x059E
    2556:	8a e6       	ldi	r24, 0x6A	; 106
    2558:	90 e0       	ldi	r25, 0x00	; 0
    255a:	0e 94 a8 30 	call	0x6150	; 0x6150 <__eewr_dword_m32>
			eeprom_write_dword((unsigned long*)(138+(count_i*4)),(unsigned long)timer3_start[count_i]);
    255e:	40 91 e3 05 	lds	r20, 0x05E3
    2562:	50 91 e4 05 	lds	r21, 0x05E4
    2566:	60 91 e5 05 	lds	r22, 0x05E5
    256a:	70 91 e6 05 	lds	r23, 0x05E6
    256e:	8e e8       	ldi	r24, 0x8E	; 142
    2570:	90 e0       	ldi	r25, 0x00	; 0
    2572:	0e 94 a8 30 	call	0x6150	; 0x6150 <__eewr_dword_m32>
			eeprom_write_dword((unsigned long*)(174+(count_i*4)),(unsigned long)timer1_stop[count_i]);
    2576:	40 91 77 05 	lds	r20, 0x0577
    257a:	50 91 78 05 	lds	r21, 0x0578
    257e:	60 91 79 05 	lds	r22, 0x0579
    2582:	70 91 7a 05 	lds	r23, 0x057A
    2586:	82 eb       	ldi	r24, 0xB2	; 178
    2588:	90 e0       	ldi	r25, 0x00	; 0
    258a:	0e 94 a8 30 	call	0x6150	; 0x6150 <__eewr_dword_m32>
			eeprom_write_dword((unsigned long*)(210+(count_i*4)),(unsigned long)timer2_stop[count_i]);
    258e:	40 91 bf 05 	lds	r20, 0x05BF
    2592:	50 91 c0 05 	lds	r21, 0x05C0
    2596:	60 91 c1 05 	lds	r22, 0x05C1
    259a:	70 91 c2 05 	lds	r23, 0x05C2
    259e:	86 ed       	ldi	r24, 0xD6	; 214
    25a0:	90 e0       	ldi	r25, 0x00	; 0
    25a2:	0e 94 a8 30 	call	0x6150	; 0x6150 <__eewr_dword_m32>
			eeprom_write_dword((unsigned long*)(246+(count_i*4)),(unsigned long)timer3_stop[count_i]);
    25a6:	40 91 07 06 	lds	r20, 0x0607
    25aa:	50 91 08 06 	lds	r21, 0x0608
    25ae:	60 91 09 06 	lds	r22, 0x0609
    25b2:	70 91 0a 06 	lds	r23, 0x060A
    25b6:	8a ef       	ldi	r24, 0xFA	; 250
    25b8:	90 e0       	ldi	r25, 0x00	; 0
    25ba:	f0 c1       	rjmp	.+992    	; 0x299c <save_option_eeprom+0x7be>
		}break;
		case 6:
		{
			count_i=2;
			eeprom_write_dword((unsigned long*)(66+(count_i*4)), (unsigned long)timer1_start[count_i]);
    25bc:	40 91 57 05 	lds	r20, 0x0557
    25c0:	50 91 58 05 	lds	r21, 0x0558
    25c4:	60 91 59 05 	lds	r22, 0x0559
    25c8:	70 91 5a 05 	lds	r23, 0x055A
    25cc:	8a e4       	ldi	r24, 0x4A	; 74
    25ce:	90 e0       	ldi	r25, 0x00	; 0
    25d0:	0e 94 a8 30 	call	0x6150	; 0x6150 <__eewr_dword_m32>
			eeprom_write_dword((unsigned long*)(102+(count_i*4)),(unsigned long)timer2_start[count_i]);
    25d4:	40 91 9f 05 	lds	r20, 0x059F
    25d8:	50 91 a0 05 	lds	r21, 0x05A0
    25dc:	60 91 a1 05 	lds	r22, 0x05A1
    25e0:	70 91 a2 05 	lds	r23, 0x05A2
    25e4:	8e e6       	ldi	r24, 0x6E	; 110
    25e6:	90 e0       	ldi	r25, 0x00	; 0
    25e8:	0e 94 a8 30 	call	0x6150	; 0x6150 <__eewr_dword_m32>
			eeprom_write_dword((unsigned long*)(138+(count_i*4)),(unsigned long)timer3_start[count_i]);
    25ec:	40 91 e7 05 	lds	r20, 0x05E7
    25f0:	50 91 e8 05 	lds	r21, 0x05E8
    25f4:	60 91 e9 05 	lds	r22, 0x05E9
    25f8:	70 91 ea 05 	lds	r23, 0x05EA
    25fc:	82 e9       	ldi	r24, 0x92	; 146
    25fe:	90 e0       	ldi	r25, 0x00	; 0
    2600:	0e 94 a8 30 	call	0x6150	; 0x6150 <__eewr_dword_m32>
			eeprom_write_dword((unsigned long*)(174+(count_i*4)),(unsigned long)timer1_stop[count_i]);
    2604:	40 91 7b 05 	lds	r20, 0x057B
    2608:	50 91 7c 05 	lds	r21, 0x057C
    260c:	60 91 7d 05 	lds	r22, 0x057D
    2610:	70 91 7e 05 	lds	r23, 0x057E
    2614:	86 eb       	ldi	r24, 0xB6	; 182
    2616:	90 e0       	ldi	r25, 0x00	; 0
    2618:	0e 94 a8 30 	call	0x6150	; 0x6150 <__eewr_dword_m32>
			eeprom_write_dword((unsigned long*)(210+(count_i*4)),(unsigned long)timer2_stop[count_i]);
    261c:	40 91 c3 05 	lds	r20, 0x05C3
    2620:	50 91 c4 05 	lds	r21, 0x05C4
    2624:	60 91 c5 05 	lds	r22, 0x05C5
    2628:	70 91 c6 05 	lds	r23, 0x05C6
    262c:	8a ed       	ldi	r24, 0xDA	; 218
    262e:	90 e0       	ldi	r25, 0x00	; 0
    2630:	0e 94 a8 30 	call	0x6150	; 0x6150 <__eewr_dword_m32>
			eeprom_write_dword((unsigned long*)(246+(count_i*4)),(unsigned long)timer3_stop[count_i]);
    2634:	40 91 0b 06 	lds	r20, 0x060B
    2638:	50 91 0c 06 	lds	r21, 0x060C
    263c:	60 91 0d 06 	lds	r22, 0x060D
    2640:	70 91 0e 06 	lds	r23, 0x060E
    2644:	8e ef       	ldi	r24, 0xFE	; 254
    2646:	90 e0       	ldi	r25, 0x00	; 0
    2648:	a9 c1       	rjmp	.+850    	; 0x299c <save_option_eeprom+0x7be>
		}break;
		case 7:
		{
			count_i=3;
			eeprom_write_dword((unsigned long*)(66+(count_i*4)), (unsigned long)timer1_start[count_i]);
    264a:	40 91 5b 05 	lds	r20, 0x055B
    264e:	50 91 5c 05 	lds	r21, 0x055C
    2652:	60 91 5d 05 	lds	r22, 0x055D
    2656:	70 91 5e 05 	lds	r23, 0x055E
    265a:	8e e4       	ldi	r24, 0x4E	; 78
    265c:	90 e0       	ldi	r25, 0x00	; 0
    265e:	0e 94 a8 30 	call	0x6150	; 0x6150 <__eewr_dword_m32>
			eeprom_write_dword((unsigned long*)(102+(count_i*4)),(unsigned long)timer2_start[count_i]);
    2662:	40 91 a3 05 	lds	r20, 0x05A3
    2666:	50 91 a4 05 	lds	r21, 0x05A4
    266a:	60 91 a5 05 	lds	r22, 0x05A5
    266e:	70 91 a6 05 	lds	r23, 0x05A6
    2672:	82 e7       	ldi	r24, 0x72	; 114
    2674:	90 e0       	ldi	r25, 0x00	; 0
    2676:	0e 94 a8 30 	call	0x6150	; 0x6150 <__eewr_dword_m32>
			eeprom_write_dword((unsigned long*)(138+(count_i*4)),(unsigned long)timer3_start[count_i]);
    267a:	40 91 eb 05 	lds	r20, 0x05EB
    267e:	50 91 ec 05 	lds	r21, 0x05EC
    2682:	60 91 ed 05 	lds	r22, 0x05ED
    2686:	70 91 ee 05 	lds	r23, 0x05EE
    268a:	86 e9       	ldi	r24, 0x96	; 150
    268c:	90 e0       	ldi	r25, 0x00	; 0
    268e:	0e 94 a8 30 	call	0x6150	; 0x6150 <__eewr_dword_m32>
			eeprom_write_dword((unsigned long*)(174+(count_i*4)),(unsigned long)timer1_stop[count_i]);
    2692:	40 91 7f 05 	lds	r20, 0x057F
    2696:	50 91 80 05 	lds	r21, 0x0580
    269a:	60 91 81 05 	lds	r22, 0x0581
    269e:	70 91 82 05 	lds	r23, 0x0582
    26a2:	8a eb       	ldi	r24, 0xBA	; 186
    26a4:	90 e0       	ldi	r25, 0x00	; 0
    26a6:	0e 94 a8 30 	call	0x6150	; 0x6150 <__eewr_dword_m32>
			eeprom_write_dword((unsigned long*)(210+(count_i*4)),(unsigned long)timer2_stop[count_i]);
    26aa:	40 91 c7 05 	lds	r20, 0x05C7
    26ae:	50 91 c8 05 	lds	r21, 0x05C8
    26b2:	60 91 c9 05 	lds	r22, 0x05C9
    26b6:	70 91 ca 05 	lds	r23, 0x05CA
    26ba:	8e ed       	ldi	r24, 0xDE	; 222
    26bc:	90 e0       	ldi	r25, 0x00	; 0
    26be:	0e 94 a8 30 	call	0x6150	; 0x6150 <__eewr_dword_m32>
			eeprom_write_dword((unsigned long*)(246+(count_i*4)),(unsigned long)timer3_stop[count_i]);
    26c2:	40 91 0f 06 	lds	r20, 0x060F
    26c6:	50 91 10 06 	lds	r21, 0x0610
    26ca:	60 91 11 06 	lds	r22, 0x0611
    26ce:	70 91 12 06 	lds	r23, 0x0612
    26d2:	82 e0       	ldi	r24, 0x02	; 2
    26d4:	91 e0       	ldi	r25, 0x01	; 1
    26d6:	62 c1       	rjmp	.+708    	; 0x299c <save_option_eeprom+0x7be>
		}break;
		case 8:
		{
			count_i=4;
			eeprom_write_dword((unsigned long*)(66+(count_i*4)), (unsigned long)timer1_start[count_i]);
    26d8:	40 91 5f 05 	lds	r20, 0x055F
    26dc:	50 91 60 05 	lds	r21, 0x0560
    26e0:	60 91 61 05 	lds	r22, 0x0561
    26e4:	70 91 62 05 	lds	r23, 0x0562
    26e8:	82 e5       	ldi	r24, 0x52	; 82
    26ea:	90 e0       	ldi	r25, 0x00	; 0
    26ec:	0e 94 a8 30 	call	0x6150	; 0x6150 <__eewr_dword_m32>
			eeprom_write_dword((unsigned long*)(102+(count_i*4)),(unsigned long)timer2_start[count_i]);
    26f0:	40 91 a7 05 	lds	r20, 0x05A7
    26f4:	50 91 a8 05 	lds	r21, 0x05A8
    26f8:	60 91 a9 05 	lds	r22, 0x05A9
    26fc:	70 91 aa 05 	lds	r23, 0x05AA
    2700:	86 e7       	ldi	r24, 0x76	; 118
    2702:	90 e0       	ldi	r25, 0x00	; 0
    2704:	0e 94 a8 30 	call	0x6150	; 0x6150 <__eewr_dword_m32>
			eeprom_write_dword((unsigned long*)(138+(count_i*4)),(unsigned long)timer3_start[count_i]);
    2708:	40 91 ef 05 	lds	r20, 0x05EF
    270c:	50 91 f0 05 	lds	r21, 0x05F0
    2710:	60 91 f1 05 	lds	r22, 0x05F1
    2714:	70 91 f2 05 	lds	r23, 0x05F2
    2718:	8a e9       	ldi	r24, 0x9A	; 154
    271a:	90 e0       	ldi	r25, 0x00	; 0
    271c:	0e 94 a8 30 	call	0x6150	; 0x6150 <__eewr_dword_m32>
			eeprom_write_dword((unsigned long*)(174+(count_i*4)),(unsigned long)timer1_stop[count_i]);
    2720:	40 91 83 05 	lds	r20, 0x0583
    2724:	50 91 84 05 	lds	r21, 0x0584
    2728:	60 91 85 05 	lds	r22, 0x0585
    272c:	70 91 86 05 	lds	r23, 0x0586
    2730:	8e eb       	ldi	r24, 0xBE	; 190
    2732:	90 e0       	ldi	r25, 0x00	; 0
    2734:	0e 94 a8 30 	call	0x6150	; 0x6150 <__eewr_dword_m32>
			eeprom_write_dword((unsigned long*)(210+(count_i*4)),(unsigned long)timer2_stop[count_i]);
    2738:	40 91 cb 05 	lds	r20, 0x05CB
    273c:	50 91 cc 05 	lds	r21, 0x05CC
    2740:	60 91 cd 05 	lds	r22, 0x05CD
    2744:	70 91 ce 05 	lds	r23, 0x05CE
    2748:	82 ee       	ldi	r24, 0xE2	; 226
    274a:	90 e0       	ldi	r25, 0x00	; 0
    274c:	0e 94 a8 30 	call	0x6150	; 0x6150 <__eewr_dword_m32>
			eeprom_write_dword((unsigned long*)(246+(count_i*4)),(unsigned long)timer3_stop[count_i]);
    2750:	40 91 13 06 	lds	r20, 0x0613
    2754:	50 91 14 06 	lds	r21, 0x0614
    2758:	60 91 15 06 	lds	r22, 0x0615
    275c:	70 91 16 06 	lds	r23, 0x0616
    2760:	86 e0       	ldi	r24, 0x06	; 6
    2762:	91 e0       	ldi	r25, 0x01	; 1
    2764:	1b c1       	rjmp	.+566    	; 0x299c <save_option_eeprom+0x7be>
		}break;
		case 9:
		{
			count_i=5;
			eeprom_write_dword((unsigned long*)(66+(count_i*4)), (unsigned long)timer1_start[count_i]);
    2766:	40 91 63 05 	lds	r20, 0x0563
    276a:	50 91 64 05 	lds	r21, 0x0564
    276e:	60 91 65 05 	lds	r22, 0x0565
    2772:	70 91 66 05 	lds	r23, 0x0566
    2776:	86 e5       	ldi	r24, 0x56	; 86
    2778:	90 e0       	ldi	r25, 0x00	; 0
    277a:	0e 94 a8 30 	call	0x6150	; 0x6150 <__eewr_dword_m32>
			eeprom_write_dword((unsigned long*)(102+(count_i*4)),(unsigned long)timer2_start[count_i]);
    277e:	40 91 ab 05 	lds	r20, 0x05AB
    2782:	50 91 ac 05 	lds	r21, 0x05AC
    2786:	60 91 ad 05 	lds	r22, 0x05AD
    278a:	70 91 ae 05 	lds	r23, 0x05AE
    278e:	8a e7       	ldi	r24, 0x7A	; 122
    2790:	90 e0       	ldi	r25, 0x00	; 0
    2792:	0e 94 a8 30 	call	0x6150	; 0x6150 <__eewr_dword_m32>
			eeprom_write_dword((unsigned long*)(138+(count_i*4)),(unsigned long)timer3_start[count_i]);
    2796:	40 91 f3 05 	lds	r20, 0x05F3
    279a:	50 91 f4 05 	lds	r21, 0x05F4
    279e:	60 91 f5 05 	lds	r22, 0x05F5
    27a2:	70 91 f6 05 	lds	r23, 0x05F6
    27a6:	8e e9       	ldi	r24, 0x9E	; 158
    27a8:	90 e0       	ldi	r25, 0x00	; 0
    27aa:	0e 94 a8 30 	call	0x6150	; 0x6150 <__eewr_dword_m32>
			eeprom_write_dword((unsigned long*)(174+(count_i*4)),(unsigned long)timer1_stop[count_i]);
    27ae:	40 91 87 05 	lds	r20, 0x0587
    27b2:	50 91 88 05 	lds	r21, 0x0588
    27b6:	60 91 89 05 	lds	r22, 0x0589
    27ba:	70 91 8a 05 	lds	r23, 0x058A
    27be:	82 ec       	ldi	r24, 0xC2	; 194
    27c0:	90 e0       	ldi	r25, 0x00	; 0
    27c2:	0e 94 a8 30 	call	0x6150	; 0x6150 <__eewr_dword_m32>
			eeprom_write_dword((unsigned long*)(210+(count_i*4)),(unsigned long)timer2_stop[count_i]);
    27c6:	40 91 cf 05 	lds	r20, 0x05CF
    27ca:	50 91 d0 05 	lds	r21, 0x05D0
    27ce:	60 91 d1 05 	lds	r22, 0x05D1
    27d2:	70 91 d2 05 	lds	r23, 0x05D2
    27d6:	86 ee       	ldi	r24, 0xE6	; 230
    27d8:	90 e0       	ldi	r25, 0x00	; 0
    27da:	0e 94 a8 30 	call	0x6150	; 0x6150 <__eewr_dword_m32>
			eeprom_write_dword((unsigned long*)(246+(count_i*4)),(unsigned long)timer3_stop[count_i]);
    27de:	40 91 17 06 	lds	r20, 0x0617
    27e2:	50 91 18 06 	lds	r21, 0x0618
    27e6:	60 91 19 06 	lds	r22, 0x0619
    27ea:	70 91 1a 06 	lds	r23, 0x061A
    27ee:	8a e0       	ldi	r24, 0x0A	; 10
    27f0:	91 e0       	ldi	r25, 0x01	; 1
    27f2:	d4 c0       	rjmp	.+424    	; 0x299c <save_option_eeprom+0x7be>
		}break;
		case 10:
		{
			count_i=6;
			eeprom_write_dword((unsigned long*)(66+(count_i*4)), (unsigned long)timer1_start[count_i]);
    27f4:	40 91 67 05 	lds	r20, 0x0567
    27f8:	50 91 68 05 	lds	r21, 0x0568
    27fc:	60 91 69 05 	lds	r22, 0x0569
    2800:	70 91 6a 05 	lds	r23, 0x056A
    2804:	8a e5       	ldi	r24, 0x5A	; 90
    2806:	90 e0       	ldi	r25, 0x00	; 0
    2808:	0e 94 a8 30 	call	0x6150	; 0x6150 <__eewr_dword_m32>
			eeprom_write_dword((unsigned long*)(102+(count_i*4)),(unsigned long)timer2_start[count_i]);
    280c:	40 91 af 05 	lds	r20, 0x05AF
    2810:	50 91 b0 05 	lds	r21, 0x05B0
    2814:	60 91 b1 05 	lds	r22, 0x05B1
    2818:	70 91 b2 05 	lds	r23, 0x05B2
    281c:	8e e7       	ldi	r24, 0x7E	; 126
    281e:	90 e0       	ldi	r25, 0x00	; 0
    2820:	0e 94 a8 30 	call	0x6150	; 0x6150 <__eewr_dword_m32>
			eeprom_write_dword((unsigned long*)(138+(count_i*4)),(unsigned long)timer3_start[count_i]);
    2824:	40 91 f7 05 	lds	r20, 0x05F7
    2828:	50 91 f8 05 	lds	r21, 0x05F8
    282c:	60 91 f9 05 	lds	r22, 0x05F9
    2830:	70 91 fa 05 	lds	r23, 0x05FA
    2834:	82 ea       	ldi	r24, 0xA2	; 162
    2836:	90 e0       	ldi	r25, 0x00	; 0
    2838:	0e 94 a8 30 	call	0x6150	; 0x6150 <__eewr_dword_m32>
			eeprom_write_dword((unsigned long*)(174+(count_i*4)),(unsigned long)timer1_stop[count_i]);
    283c:	40 91 8b 05 	lds	r20, 0x058B
    2840:	50 91 8c 05 	lds	r21, 0x058C
    2844:	60 91 8d 05 	lds	r22, 0x058D
    2848:	70 91 8e 05 	lds	r23, 0x058E
    284c:	86 ec       	ldi	r24, 0xC6	; 198
    284e:	90 e0       	ldi	r25, 0x00	; 0
    2850:	0e 94 a8 30 	call	0x6150	; 0x6150 <__eewr_dword_m32>
			eeprom_write_dword((unsigned long*)(210+(count_i*4)),(unsigned long)timer2_stop[count_i]);
    2854:	40 91 d3 05 	lds	r20, 0x05D3
    2858:	50 91 d4 05 	lds	r21, 0x05D4
    285c:	60 91 d5 05 	lds	r22, 0x05D5
    2860:	70 91 d6 05 	lds	r23, 0x05D6
    2864:	8a ee       	ldi	r24, 0xEA	; 234
    2866:	90 e0       	ldi	r25, 0x00	; 0
    2868:	0e 94 a8 30 	call	0x6150	; 0x6150 <__eewr_dword_m32>
			eeprom_write_dword((unsigned long*)(246+(count_i*4)),(unsigned long)timer3_stop[count_i]);
    286c:	40 91 1b 06 	lds	r20, 0x061B
    2870:	50 91 1c 06 	lds	r21, 0x061C
    2874:	60 91 1d 06 	lds	r22, 0x061D
    2878:	70 91 1e 06 	lds	r23, 0x061E
    287c:	8e e0       	ldi	r24, 0x0E	; 14
    287e:	91 e0       	ldi	r25, 0x01	; 1
    2880:	8d c0       	rjmp	.+282    	; 0x299c <save_option_eeprom+0x7be>
		}break;
		case 11:
		{
			count_i=7;
			eeprom_write_dword((unsigned long*)(66+(count_i*4)), (unsigned long)timer1_start[count_i]);
    2882:	40 91 6b 05 	lds	r20, 0x056B
    2886:	50 91 6c 05 	lds	r21, 0x056C
    288a:	60 91 6d 05 	lds	r22, 0x056D
    288e:	70 91 6e 05 	lds	r23, 0x056E
    2892:	8e e5       	ldi	r24, 0x5E	; 94
    2894:	90 e0       	ldi	r25, 0x00	; 0
    2896:	0e 94 a8 30 	call	0x6150	; 0x6150 <__eewr_dword_m32>
			eeprom_write_dword((unsigned long*)(102+(count_i*4)),(unsigned long)timer2_start[count_i]);
    289a:	40 91 b3 05 	lds	r20, 0x05B3
    289e:	50 91 b4 05 	lds	r21, 0x05B4
    28a2:	60 91 b5 05 	lds	r22, 0x05B5
    28a6:	70 91 b6 05 	lds	r23, 0x05B6
    28aa:	82 e8       	ldi	r24, 0x82	; 130
    28ac:	90 e0       	ldi	r25, 0x00	; 0
    28ae:	0e 94 a8 30 	call	0x6150	; 0x6150 <__eewr_dword_m32>
			eeprom_write_dword((unsigned long*)(138+(count_i*4)),(unsigned long)timer3_start[count_i]);
    28b2:	40 91 fb 05 	lds	r20, 0x05FB
    28b6:	50 91 fc 05 	lds	r21, 0x05FC
    28ba:	60 91 fd 05 	lds	r22, 0x05FD
    28be:	70 91 fe 05 	lds	r23, 0x05FE
    28c2:	86 ea       	ldi	r24, 0xA6	; 166
    28c4:	90 e0       	ldi	r25, 0x00	; 0
    28c6:	0e 94 a8 30 	call	0x6150	; 0x6150 <__eewr_dword_m32>
			eeprom_write_dword((unsigned long*)(174+(count_i*4)),(unsigned long)timer1_stop[count_i]);
    28ca:	40 91 8f 05 	lds	r20, 0x058F
    28ce:	50 91 90 05 	lds	r21, 0x0590
    28d2:	60 91 91 05 	lds	r22, 0x0591
    28d6:	70 91 92 05 	lds	r23, 0x0592
    28da:	8a ec       	ldi	r24, 0xCA	; 202
    28dc:	90 e0       	ldi	r25, 0x00	; 0
    28de:	0e 94 a8 30 	call	0x6150	; 0x6150 <__eewr_dword_m32>
			eeprom_write_dword((unsigned long*)(210+(count_i*4)),(unsigned long)timer2_stop[count_i]);
    28e2:	40 91 d7 05 	lds	r20, 0x05D7
    28e6:	50 91 d8 05 	lds	r21, 0x05D8
    28ea:	60 91 d9 05 	lds	r22, 0x05D9
    28ee:	70 91 da 05 	lds	r23, 0x05DA
    28f2:	8e ee       	ldi	r24, 0xEE	; 238
    28f4:	90 e0       	ldi	r25, 0x00	; 0
    28f6:	0e 94 a8 30 	call	0x6150	; 0x6150 <__eewr_dword_m32>
			eeprom_write_dword((unsigned long*)(246+(count_i*4)),(unsigned long)timer3_stop[count_i]);
    28fa:	40 91 1f 06 	lds	r20, 0x061F
    28fe:	50 91 20 06 	lds	r21, 0x0620
    2902:	60 91 21 06 	lds	r22, 0x0621
    2906:	70 91 22 06 	lds	r23, 0x0622
    290a:	82 e1       	ldi	r24, 0x12	; 18
    290c:	91 e0       	ldi	r25, 0x01	; 1
    290e:	46 c0       	rjmp	.+140    	; 0x299c <save_option_eeprom+0x7be>
		}break;
		case 12:
		{
			count_i=8;
			eeprom_write_dword((unsigned long*)(66+(count_i*4)), (unsigned long)timer1_start[count_i]);
    2910:	40 91 6f 05 	lds	r20, 0x056F
    2914:	50 91 70 05 	lds	r21, 0x0570
    2918:	60 91 71 05 	lds	r22, 0x0571
    291c:	70 91 72 05 	lds	r23, 0x0572
    2920:	82 e6       	ldi	r24, 0x62	; 98
    2922:	90 e0       	ldi	r25, 0x00	; 0
    2924:	0e 94 a8 30 	call	0x6150	; 0x6150 <__eewr_dword_m32>
			eeprom_write_dword((unsigned long*)(102+(count_i*4)),(unsigned long)timer2_start[count_i]);
    2928:	40 91 b7 05 	lds	r20, 0x05B7
    292c:	50 91 b8 05 	lds	r21, 0x05B8
    2930:	60 91 b9 05 	lds	r22, 0x05B9
    2934:	70 91 ba 05 	lds	r23, 0x05BA
    2938:	86 e8       	ldi	r24, 0x86	; 134
    293a:	90 e0       	ldi	r25, 0x00	; 0
    293c:	0e 94 a8 30 	call	0x6150	; 0x6150 <__eewr_dword_m32>
			eeprom_write_dword((unsigned long*)(138+(count_i*4)),(unsigned long)timer3_start[count_i]);
    2940:	40 91 ff 05 	lds	r20, 0x05FF
    2944:	50 91 00 06 	lds	r21, 0x0600
    2948:	60 91 01 06 	lds	r22, 0x0601
    294c:	70 91 02 06 	lds	r23, 0x0602
    2950:	8a ea       	ldi	r24, 0xAA	; 170
    2952:	90 e0       	ldi	r25, 0x00	; 0
    2954:	0e 94 a8 30 	call	0x6150	; 0x6150 <__eewr_dword_m32>
			eeprom_write_dword((unsigned long*)(174+(count_i*4)),(unsigned long)timer1_stop[count_i]);
    2958:	40 91 93 05 	lds	r20, 0x0593
    295c:	50 91 94 05 	lds	r21, 0x0594
    2960:	60 91 95 05 	lds	r22, 0x0595
    2964:	70 91 96 05 	lds	r23, 0x0596
    2968:	8e ec       	ldi	r24, 0xCE	; 206
    296a:	90 e0       	ldi	r25, 0x00	; 0
    296c:	0e 94 a8 30 	call	0x6150	; 0x6150 <__eewr_dword_m32>
			eeprom_write_dword((unsigned long*)(210+(count_i*4)),(unsigned long)timer2_stop[count_i]);
    2970:	40 91 db 05 	lds	r20, 0x05DB
    2974:	50 91 dc 05 	lds	r21, 0x05DC
    2978:	60 91 dd 05 	lds	r22, 0x05DD
    297c:	70 91 de 05 	lds	r23, 0x05DE
    2980:	82 ef       	ldi	r24, 0xF2	; 242
    2982:	90 e0       	ldi	r25, 0x00	; 0
    2984:	0e 94 a8 30 	call	0x6150	; 0x6150 <__eewr_dword_m32>
			eeprom_write_dword((unsigned long*)(246+(count_i*4)),(unsigned long)timer3_stop[count_i]);
    2988:	40 91 23 06 	lds	r20, 0x0623
    298c:	50 91 24 06 	lds	r21, 0x0624
    2990:	60 91 25 06 	lds	r22, 0x0625
    2994:	70 91 26 06 	lds	r23, 0x0626
    2998:	86 e1       	ldi	r24, 0x16	; 22
    299a:	91 e0       	ldi	r25, 0x01	; 1
    299c:	0e 94 a8 30 	call	0x6150	; 0x6150 <__eewr_dword_m32>
    29a0:	08 95       	ret
		}break;
		case 13:
		{
			eeprom_write_byte((unsigned char*)282,produv);
    29a2:	8a e1       	ldi	r24, 0x1A	; 26
    29a4:	91 e0       	ldi	r25, 0x01	; 1
    29a6:	60 91 e9 04 	lds	r22, 0x04E9
    29aa:	0e 94 9b 30 	call	0x6136	; 0x6136 <__eewr_byte_m32>
			eeprom_write_dword((unsigned long*)283,timer_produv_time);
    29ae:	40 91 79 04 	lds	r20, 0x0479
    29b2:	50 91 7a 04 	lds	r21, 0x047A
    29b6:	60 91 7b 04 	lds	r22, 0x047B
    29ba:	70 91 7c 04 	lds	r23, 0x047C
    29be:	8b e1       	ldi	r24, 0x1B	; 27
    29c0:	91 e0       	ldi	r25, 0x01	; 1
    29c2:	0e 94 a8 30 	call	0x6150	; 0x6150 <__eewr_dword_m32>
			eeprom_write_byte((unsigned char*)287,timer_produv_period);
    29c6:	60 91 7d 04 	lds	r22, 0x047D
    29ca:	8f e1       	ldi	r24, 0x1F	; 31
    29cc:	91 e0       	ldi	r25, 0x01	; 1
    29ce:	0e 94 9b 30 	call	0x6136	; 0x6136 <__eewr_byte_m32>
			eeprom_write_byte((unsigned char*)288,co2);
    29d2:	80 e2       	ldi	r24, 0x20	; 32
    29d4:	91 e0       	ldi	r25, 0x01	; 1
    29d6:	60 91 ee 04 	lds	r22, 0x04EE
    29da:	0e 94 9b 30 	call	0x6136	; 0x6136 <__eewr_byte_m32>
			eeprom_write_word((unsigned int*)289,ph_high);
    29de:	60 91 71 04 	lds	r22, 0x0471
    29e2:	70 91 72 04 	lds	r23, 0x0472
    29e6:	81 e2       	ldi	r24, 0x21	; 33
    29e8:	91 e0       	ldi	r25, 0x01	; 1
    29ea:	0e 94 b0 30 	call	0x6160	; 0x6160 <__eewr_word_m32>
			eeprom_write_word((unsigned int*)291,ph_low);
    29ee:	60 91 73 04 	lds	r22, 0x0473
    29f2:	70 91 74 04 	lds	r23, 0x0474
    29f6:	83 e2       	ldi	r24, 0x23	; 35
    29f8:	91 e0       	ldi	r25, 0x01	; 1
    29fa:	0e 94 b0 30 	call	0x6160	; 0x6160 <__eewr_word_m32>
			eeprom_write_dword((unsigned long*)293,co2_stop);
    29fe:	40 91 92 04 	lds	r20, 0x0492
    2a02:	50 91 93 04 	lds	r21, 0x0493
    2a06:	60 91 94 04 	lds	r22, 0x0494
    2a0a:	70 91 95 04 	lds	r23, 0x0495
    2a0e:	85 e2       	ldi	r24, 0x25	; 37
    2a10:	91 e0       	ldi	r25, 0x01	; 1
    2a12:	0e 94 a8 30 	call	0x6150	; 0x6150 <__eewr_dword_m32>
			eeprom_write_dword((unsigned long*)297,co2_start);
    2a16:	40 91 8e 04 	lds	r20, 0x048E
    2a1a:	50 91 8f 04 	lds	r21, 0x048F
    2a1e:	60 91 90 04 	lds	r22, 0x0490
    2a22:	70 91 91 04 	lds	r23, 0x0491
    2a26:	89 e2       	ldi	r24, 0x29	; 41
    2a28:	91 e0       	ldi	r25, 0x01	; 1
    2a2a:	0e 94 a8 30 	call	0x6150	; 0x6150 <__eewr_dword_m32>
			eeprom_write_byte((unsigned char*)301,heater_timer_status);
    2a2e:	8d e2       	ldi	r24, 0x2D	; 45
    2a30:	91 e0       	ldi	r25, 0x01	; 1
    2a32:	60 91 3a 06 	lds	r22, 0x063A
    2a36:	0e 94 9b 30 	call	0x6136	; 0x6136 <__eewr_byte_m32>
		}
		case 14:
		{
			eeprom_write_byte((unsigned char*)302,co2_timer_status);
    2a3a:	8e e2       	ldi	r24, 0x2E	; 46
    2a3c:	91 e0       	ldi	r25, 0x01	; 1
    2a3e:	60 91 3b 06 	lds	r22, 0x063B
    2a42:	0e 94 9b 30 	call	0x6136	; 0x6136 <__eewr_byte_m32>
			eeprom_write_byte((unsigned char*)303,co2_set);
    2a46:	8f e2       	ldi	r24, 0x2F	; 47
    2a48:	91 e0       	ldi	r25, 0x01	; 1
    2a4a:	60 91 ef 04 	lds	r22, 0x04EF
    2a4e:	0e 94 9b 30 	call	0x6136	; 0x6136 <__eewr_byte_m32>
			eeprom_write_word((unsigned int*)304,water_lvl);
    2a52:	60 91 20 05 	lds	r22, 0x0520
    2a56:	70 91 21 05 	lds	r23, 0x0521
    2a5a:	80 e3       	ldi	r24, 0x30	; 48
    2a5c:	91 e0       	ldi	r25, 0x01	; 1
    2a5e:	0e 94 b0 30 	call	0x6160	; 0x6160 <__eewr_word_m32>
			eeprom_write_word((unsigned int*)306,doliv_porog1);
    2a62:	60 91 fc 04 	lds	r22, 0x04FC
    2a66:	70 91 fd 04 	lds	r23, 0x04FD
    2a6a:	82 e3       	ldi	r24, 0x32	; 50
    2a6c:	91 e0       	ldi	r25, 0x01	; 1
    2a6e:	0e 94 b0 30 	call	0x6160	; 0x6160 <__eewr_word_m32>
			eeprom_write_word((unsigned int*)308,doliv_porog2);
    2a72:	60 91 fe 04 	lds	r22, 0x04FE
    2a76:	70 91 ff 04 	lds	r23, 0x04FF
    2a7a:	84 e3       	ldi	r24, 0x34	; 52
    2a7c:	91 e0       	ldi	r25, 0x01	; 1
    2a7e:	0e 94 b0 30 	call	0x6160	; 0x6160 <__eewr_word_m32>
			eeprom_write_byte((unsigned char*)310,water_lvl_status);
    2a82:	86 e3       	ldi	r24, 0x36	; 54
    2a84:	91 e0       	ldi	r25, 0x01	; 1
    2a86:	60 91 03 05 	lds	r22, 0x0503
    2a8a:	0e 94 9b 30 	call	0x6136	; 0x6136 <__eewr_byte_m32>
			eeprom_write_byte((unsigned char*)311,co2_status);
    2a8e:	87 e3       	ldi	r24, 0x37	; 55
    2a90:	91 e0       	ldi	r25, 0x01	; 1
    2a92:	60 91 04 05 	lds	r22, 0x0504
    2a96:	0e 94 9b 30 	call	0x6136	; 0x6136 <__eewr_byte_m32>
			eeprom_write_byte((unsigned char*)312,doliv);
    2a9a:	88 e3       	ldi	r24, 0x38	; 56
    2a9c:	91 e0       	ldi	r25, 0x01	; 1
    2a9e:	60 91 fa 04 	lds	r22, 0x04FA
    2aa2:	0e 94 9b 30 	call	0x6136	; 0x6136 <__eewr_byte_m32>
			eeprom_write_byte((unsigned char*)313,heater_chanel_status);
    2aa6:	89 e3       	ldi	r24, 0x39	; 57
    2aa8:	91 e0       	ldi	r25, 0x01	; 1
    2aaa:	60 91 40 06 	lds	r22, 0x0640
    2aae:	0e 94 9b 30 	call	0x6136	; 0x6136 <__eewr_byte_m32>
			EEPROM_WRITE=0;
    2ab2:	10 92 43 06 	sts	0x0643, r1
    2ab6:	08 95       	ret

00002ab8 <main>:
	*d=dec;	// Десятичное
	*s=sig;	// Знак
}

int main(void)
{
    2ab8:	2f 92       	push	r2
    2aba:	3f 92       	push	r3
    2abc:	4f 92       	push	r4
    2abe:	5f 92       	push	r5
    2ac0:	6f 92       	push	r6
    2ac2:	7f 92       	push	r7
    2ac4:	8f 92       	push	r8
    2ac6:	9f 92       	push	r9
    2ac8:	af 92       	push	r10
    2aca:	bf 92       	push	r11
    2acc:	cf 92       	push	r12
    2ace:	df 92       	push	r13
    2ad0:	ef 92       	push	r14
    2ad2:	ff 92       	push	r15
    2ad4:	0f 93       	push	r16
    2ad6:	1f 93       	push	r17
    2ad8:	df 93       	push	r29
    2ada:	cf 93       	push	r28
    2adc:	cd b7       	in	r28, 0x3d	; 61
    2ade:	de b7       	in	r29, 0x3e	; 62
    2ae0:	6b 97       	sbiw	r28, 0x1b	; 27
    2ae2:	0f b6       	in	r0, 0x3f	; 63
    2ae4:	f8 94       	cli
    2ae6:	de bf       	out	0x3e, r29	; 62
    2ae8:	0f be       	out	0x3f, r0	; 63
    2aea:	cd bf       	out	0x3d, r28	; 61
		uint8_t		s_m;	//	состояние
		uint16_t	m_t;	//	температура
	} ST[3]; // 3 датчика
	
	// преобразованные данные температуры
	uint16_t sb=0,mb=0;
    2aec:	1b 82       	std	Y+3, r1	; 0x03
    2aee:	1a 82       	std	Y+2, r1	; 0x02
    2af0:	1d 82       	std	Y+5, r1	; 0x05
    2af2:	1c 82       	std	Y+4, r1	; 0x04
	uint8_t s=0;
    2af4:	19 82       	std	Y+1, r1	; 0x01
} 

static inline void InitController(void) // инициализация контроллера
{	
	// отключить прерывания
	cli();	
    2af6:	f8 94       	cli
	// конфигурация выводов	
	LCD_DATA_DDR|=0xF0;	
    2af8:	8a b3       	in	r24, 0x1a	; 26
    2afa:	80 6f       	ori	r24, 0xF0	; 240
    2afc:	8a bb       	out	0x1a, r24	; 26
	LCD_SYGNAL_DDR|=0xC0;
    2afe:	84 b3       	in	r24, 0x14	; 20
    2b00:	80 6c       	ori	r24, 0xC0	; 192
    2b02:	84 bb       	out	0x14, r24	; 20
	// ADC
	ADC_DDR&=~ADC_chanel;
    2b04:	8a b3       	in	r24, 0x1a	; 26
    2b06:	88 7f       	andi	r24, 0xF8	; 248
    2b08:	8a bb       	out	0x1a, r24	; 26
	ADMUX=0b01000000;
    2b0a:	80 e4       	ldi	r24, 0x40	; 64
    2b0c:	87 b9       	out	0x07, r24	; 7
	// включение модуля, выбор режима Free Running, делитель 8
	ADCSRA=(1<<ADEN)|(1<<ADATE)|(1<<ADPS0)|(1<<ADPS1);
    2b0e:	83 ea       	ldi	r24, 0xA3	; 163
    2b10:	86 b9       	out	0x06, r24	; 6
	ADCSRA|=(1<<ADSC); // команда начала преобразований АЦП
    2b12:	36 9a       	sbi	0x06, 6	; 6
	// RELE
	RELE_DDR_1 |=RELE_1|RELE_2|RELE_3|RELE_4;
    2b14:	81 b3       	in	r24, 0x11	; 17
    2b16:	80 6f       	ori	r24, 0xF0	; 240
    2b18:	81 bb       	out	0x11, r24	; 17
	RELE_DDR_2 |=RELE_5|RELE_6|RELE_7|RELE_8;
    2b1a:	84 b3       	in	r24, 0x14	; 20
    2b1c:	8f 60       	ori	r24, 0x0F	; 15
    2b1e:	84 bb       	out	0x14, r24	; 20
	RELE_PORT_1&=~(RELE_1|RELE_2|RELE_3|RELE_4);
    2b20:	82 b3       	in	r24, 0x12	; 18
    2b22:	8f 70       	andi	r24, 0x0F	; 15
    2b24:	82 bb       	out	0x12, r24	; 18
	RELE_PORT_2&=~(RELE_5|RELE_6|RELE_7|RELE_8);
    2b26:	85 b3       	in	r24, 0x15	; 21
    2b28:	80 7f       	andi	r24, 0xF0	; 240
    2b2a:	85 bb       	out	0x15, r24	; 21
	// LED
	LCD_LED_DDR |=LCD_LED;
    2b2c:	a5 9a       	sbi	0x14, 5	; 20
	LED_DDR |=LED;
    2b2e:	a4 9a       	sbi	0x14, 4	; 20
	LCD_LED_PORT|=LCD_LED;
    2b30:	ad 9a       	sbi	0x15, 5	; 21
	LED_PORT&=~LED;
    2b32:	ac 98       	cbi	0x15, 4	; 21
	// WDI
	WDI_DDR|=WDI;
    2b34:	d3 9a       	sbi	0x1a, 3	; 26
	WDI_PORT&=~WDI;
    2b36:	db 98       	cbi	0x1b, 3	; 27
	// WDI стартовый импульс
	WDI_PORT|=WDI;
    2b38:	db 9a       	sbi	0x1b, 3	; 27
    2b3a:	84 e1       	ldi	r24, 0x14	; 20
    2b3c:	91 e0       	ldi	r25, 0x01	; 1
    2b3e:	01 97       	sbiw	r24, 0x01	; 1
    2b40:	f1 f7       	brne	.-4      	; 0x2b3e <main+0x86>
	_delay_us(100);
	WDI_PORT&=~WDI;
    2b42:	db 98       	cbi	0x1b, 3	; 27
	// вывод PWM
	DDRB|= _BV(PB3);
    2b44:	bb 9a       	sbi	0x17, 3	; 23
    2b46:	88 ee       	ldi	r24, 0xE8	; 232
    2b48:	93 e0       	ldi	r25, 0x03	; 3
    2b4a:	24 e1       	ldi	r18, 0x14	; 20
    2b4c:	31 e0       	ldi	r19, 0x01	; 1
    2b4e:	f9 01       	movw	r30, r18
    2b50:	31 97       	sbiw	r30, 0x01	; 1
    2b52:	f1 f7       	brne	.-4      	; 0x2b50 <main+0x98>
		{
			// wait 1/10 ms
			_delay_loop_2(((F_CPU) / 4e3) / 10);
			__ticks --;
    2b54:	01 97       	sbiw	r24, 0x01	; 1
		__ticks = 1;
	else if (__tmp > 65535)
	{
		//	__ticks = requested delay in 1/10 ms
		__ticks = (uint16_t) (__ms * 10.0);
		while(__ticks)
    2b56:	d9 f7       	brne	.-10     	; 0x2b4e <main+0x96>
	// инициализация ЖКИ
	_delay_ms(100);
	init_LCD();
    2b58:	0e 94 8a 04 	call	0x914	; 0x914 <init_LCD>
	// системный таймер
	TIMSK = _BV(TOIE2); // разрешаем прерывания по переполнению таймера
    2b5c:	80 e4       	ldi	r24, 0x40	; 64
    2b5e:	89 bf       	out	0x39, r24	; 57
	TCCR2 = _BV(CS21);	// устанавливаем предделение
    2b60:	82 e0       	ldi	r24, 0x02	; 2
    2b62:	85 bd       	out	0x25, r24	; 37
	// Fast PWM, очистить OC0 при совпадении, предделение 8
	TCCR0 = (1<<CS01)|(1<<WGM01)|(1<<WGM00)|(1<<COM01)|(0<<COM00);
    2b64:	8a e6       	ldi	r24, 0x6A	; 106
    2b66:	83 bf       	out	0x33, r24	; 51
	OCR0  = 0;
    2b68:	1c be       	out	0x3c, r1	; 60
	TCNT0 = 0;
    2b6a:	12 be       	out	0x32, r1	; 50
    TCNT2 = 31; // необходимо для получения интервала 0.333 с	
    2b6c:	8f e1       	ldi	r24, 0x1F	; 31
    2b6e:	84 bd       	out	0x24, r24	; 36
	// включить прерывания
	sei();
    2b70:	78 94       	sei
	uint16_t sb=0,mb=0;
	uint8_t s=0;

	// инициализация
	InitController(); // МК
	usart_init(); // USART
    2b72:	0e 94 6d 03 	call	0x6da	; 0x6da <usart_init>
	DS1307_init(); // часы DS1307N
    2b76:	0e 94 0b 03 	call	0x616	; 0x616 <DS1307_init>

	temp_req=0; // выбор опрашваемого температурного датчика
    2b7a:	10 92 13 05 	sts	0x0513, r1

	// если в EEPROM записаны настройки - считать
	if(eeprom_read_word((unsigned int*)1000)==0x1d) 
    2b7e:	88 ee       	ldi	r24, 0xE8	; 232
    2b80:	93 e0       	ldi	r25, 0x03	; 3
    2b82:	0e 94 95 30 	call	0x612a	; 0x612a <__eerd_word_m32>
    2b86:	4d 97       	sbiw	r24, 0x1d	; 29
    2b88:	11 f4       	brne	.+4      	; 0x2b8e <main+0xd6>
	{
		load_option_eeprom();
    2b8a:	0e 94 cf 0e 	call	0x1d9e	; 0x1d9e <load_option_eeprom>
	}
	// если перед выключением кулер был выбран в ручном режиме
	if(cooler_start_pulse[0]>0) cooler_hand_start=1; // формировать стартовый импульс
    2b8e:	80 91 4a 05 	lds	r24, 0x054A
    2b92:	88 23       	and	r24, r24
    2b94:	21 f0       	breq	.+8      	; 0x2b9e <main+0xe6>
    2b96:	81 e0       	ldi	r24, 0x01	; 1
    2b98:	80 93 05 05 	sts	0x0505, r24
    2b9c:	02 c0       	rjmp	.+4      	; 0x2ba2 <main+0xea>
	else cooler_hand_start=0;
    2b9e:	10 92 05 05 	sts	0x0505, r1
	// для других режимов - обнулить стартовый импульс
	cooler_start_pulse[1]=0;
    2ba2:	10 92 4b 05 	sts	0x054B, r1
	cooler_start_pulse[2]=0;
    2ba6:	10 92 4c 05 	sts	0x054C, r1
	cooler_start_pulse[3]=0;
    2baa:	10 92 4d 05 	sts	0x054D, r1
	
	while(1)
	{
		if (FlagsFastCount & _BV(7)) // ~ 41 ms
    2bae:	80 91 11 05 	lds	r24, 0x0511
    2bb2:	90 91 12 05 	lds	r25, 0x0512
    2bb6:	87 ff       	sbrs	r24, 7
    2bb8:	33 c0       	rjmp	.+102    	; 0x2c20 <main+0x168>
		{   
			// ----- поочередное отображение строк ЖКИ ----- //
			string_to_print++;
    2bba:	80 91 3d 06 	lds	r24, 0x063D
    2bbe:	8f 5f       	subi	r24, 0xFF	; 255
    2bc0:	80 93 3d 06 	sts	0x063D, r24
			switch(string_to_print)
    2bc4:	82 30       	cpi	r24, 0x02	; 2
    2bc6:	79 f0       	breq	.+30     	; 0x2be6 <main+0x12e>
    2bc8:	83 30       	cpi	r24, 0x03	; 3
    2bca:	18 f4       	brcc	.+6      	; 0x2bd2 <main+0x11a>
    2bcc:	81 30       	cpi	r24, 0x01	; 1
    2bce:	f9 f4       	brne	.+62     	; 0x2c0e <main+0x156>
    2bd0:	05 c0       	rjmp	.+10     	; 0x2bdc <main+0x124>
    2bd2:	83 30       	cpi	r24, 0x03	; 3
    2bd4:	79 f0       	breq	.+30     	; 0x2bf4 <main+0x13c>
    2bd6:	84 30       	cpi	r24, 0x04	; 4
    2bd8:	d1 f4       	brne	.+52     	; 0x2c0e <main+0x156>
    2bda:	11 c0       	rjmp	.+34     	; 0x2bfe <main+0x146>
			{
				case 1: string_to_LCD(1,0,string_1); break;
    2bdc:	81 e0       	ldi	r24, 0x01	; 1
    2bde:	60 e0       	ldi	r22, 0x00	; 0
    2be0:	47 e9       	ldi	r20, 0x97	; 151
    2be2:	54 e0       	ldi	r21, 0x04	; 4
    2be4:	04 c0       	rjmp	.+8      	; 0x2bee <main+0x136>
				case 2:	string_to_LCD(2,0,string_2); break;
    2be6:	82 e0       	ldi	r24, 0x02	; 2
    2be8:	60 e0       	ldi	r22, 0x00	; 0
    2bea:	4b ea       	ldi	r20, 0xAB	; 171
    2bec:	54 e0       	ldi	r21, 0x04	; 4
    2bee:	0e 94 d5 04 	call	0x9aa	; 0x9aa <string_to_LCD>
    2bf2:	0d c0       	rjmp	.+26     	; 0x2c0e <main+0x156>
				case 3:	string_to_LCD(3,0,string_3); break;
    2bf4:	83 e0       	ldi	r24, 0x03	; 3
    2bf6:	60 e0       	ldi	r22, 0x00	; 0
    2bf8:	4f eb       	ldi	r20, 0xBF	; 191
    2bfa:	54 e0       	ldi	r21, 0x04	; 4
    2bfc:	f8 cf       	rjmp	.-16     	; 0x2bee <main+0x136>
				case 4:	{string_to_LCD(4,0,string_4); string_to_print=0;} break;
    2bfe:	84 e0       	ldi	r24, 0x04	; 4
    2c00:	60 e0       	ldi	r22, 0x00	; 0
    2c02:	43 ed       	ldi	r20, 0xD3	; 211
    2c04:	54 e0       	ldi	r21, 0x04	; 4
    2c06:	0e 94 d5 04 	call	0x9aa	; 0x9aa <string_to_LCD>
    2c0a:	10 92 3d 06 	sts	0x063D, r1
				default:; break;
			}
			FlagsFastCount &= ~_BV(7); // сбросить флаг
    2c0e:	80 91 11 05 	lds	r24, 0x0511
    2c12:	90 91 12 05 	lds	r25, 0x0512
    2c16:	8f 77       	andi	r24, 0x7F	; 127
    2c18:	90 93 12 05 	sts	0x0512, r25
    2c1c:	80 93 11 05 	sts	0x0511, r24
		};

		if (FlagsFastCount & _BV(9)) // ~ 167 ms
    2c20:	80 91 11 05 	lds	r24, 0x0511
    2c24:	90 91 12 05 	lds	r25, 0x0512
    2c28:	91 ff       	sbrs	r25, 1
    2c2a:	9c c2       	rjmp	.+1336   	; 0x3164 <main+0x6ac>
		{	
			// ----- опрос температурных датчиков ----- //
			switch(temp_req)
    2c2c:	80 91 13 05 	lds	r24, 0x0513
    2c30:	88 23       	and	r24, r24
    2c32:	19 f0       	breq	.+6      	; 0x2c3a <main+0x182>
    2c34:	81 30       	cpi	r24, 0x01	; 1
    2c36:	b9 f5       	brne	.+110    	; 0x2ca6 <main+0x1ee>
    2c38:	16 c0       	rjmp	.+44     	; 0x2c66 <main+0x1ae>
			{
				case 0: // начать преобразование
					ST[0].s_p = DS18B20_start_meas( DS18X20_POWER_EXTERN, 'b', 4);
    2c3a:	81 e0       	ldi	r24, 0x01	; 1
    2c3c:	62 e6       	ldi	r22, 0x62	; 98
    2c3e:	44 e0       	ldi	r20, 0x04	; 4
    2c40:	0e 94 25 02 	call	0x44a	; 0x44a <DS18B20_start_meas>
    2c44:	8e 83       	std	Y+6, r24	; 0x06
					ST[1].s_p = DS18B20_start_meas( DS18X20_POWER_EXTERN, 'b', 2);
    2c46:	81 e0       	ldi	r24, 0x01	; 1
    2c48:	62 e6       	ldi	r22, 0x62	; 98
    2c4a:	42 e0       	ldi	r20, 0x02	; 2
    2c4c:	0e 94 25 02 	call	0x44a	; 0x44a <DS18B20_start_meas>
    2c50:	8a 87       	std	Y+10, r24	; 0x0a
					ST[2].s_p = DS18B20_start_meas( DS18X20_POWER_EXTERN, 'b', 1);
    2c52:	81 e0       	ldi	r24, 0x01	; 1
    2c54:	62 e6       	ldi	r22, 0x62	; 98
    2c56:	41 e0       	ldi	r20, 0x01	; 1
    2c58:	0e 94 25 02 	call	0x44a	; 0x44a <DS18B20_start_meas>
    2c5c:	8e 87       	std	Y+14, r24	; 0x0e
					temp_req =1;
    2c5e:	81 e0       	ldi	r24, 0x01	; 1
    2c60:	80 93 13 05 	sts	0x0513, r24
    2c64:	20 c0       	rjmp	.+64     	; 0x2ca6 <main+0x1ee>
				break;
				case 1:
					temp_start_pulse++;
    2c66:	80 91 4e 05 	lds	r24, 0x054E
    2c6a:	8f 5f       	subi	r24, 0xFF	; 255
    2c6c:	80 93 4e 05 	sts	0x054E, r24
					if(temp_start_pulse==20) // отсчет времени перед считыванием
    2c70:	84 31       	cpi	r24, 0x14	; 20
    2c72:	c9 f4       	brne	.+50     	; 0x2ca6 <main+0x1ee>
					{
						ST[0].s_m = DS18B20_read_meas_single(&ST[0].m_t, 'b', 4);
    2c74:	ce 01       	movw	r24, r28
    2c76:	08 96       	adiw	r24, 0x08	; 8
    2c78:	62 e6       	ldi	r22, 0x62	; 98
    2c7a:	44 e0       	ldi	r20, 0x04	; 4
    2c7c:	0e 94 d0 01 	call	0x3a0	; 0x3a0 <DS18B20_read_meas_single>
    2c80:	8f 83       	std	Y+7, r24	; 0x07
						ST[1].s_m = DS18B20_read_meas_single(&ST[1].m_t, 'b', 2);
    2c82:	ce 01       	movw	r24, r28
    2c84:	0c 96       	adiw	r24, 0x0c	; 12
    2c86:	62 e6       	ldi	r22, 0x62	; 98
    2c88:	42 e0       	ldi	r20, 0x02	; 2
    2c8a:	0e 94 d0 01 	call	0x3a0	; 0x3a0 <DS18B20_read_meas_single>
    2c8e:	8b 87       	std	Y+11, r24	; 0x0b
						ST[2].s_m = DS18B20_read_meas_single(&ST[2].m_t, 'b', 1);
    2c90:	ce 01       	movw	r24, r28
    2c92:	40 96       	adiw	r24, 0x10	; 16
    2c94:	62 e6       	ldi	r22, 0x62	; 98
    2c96:	41 e0       	ldi	r20, 0x01	; 1
    2c98:	0e 94 d0 01 	call	0x3a0	; 0x3a0 <DS18B20_read_meas_single>
    2c9c:	8f 87       	std	Y+15, r24	; 0x0f
						temp_req = 0;
    2c9e:	10 92 13 05 	sts	0x0513, r1
						temp_start_pulse=0;
    2ca2:	10 92 4e 05 	sts	0x054E, r1
				break;
				default:; break;
			}
			// ----- преобразование температуры ----- //
			// 1-й датчик
			if(ST[0].s_m == DS18X20_OK) // датчик активен
    2ca6:	8f 81       	ldd	r24, Y+7	; 0x07
    2ca8:	88 23       	and	r24, r24
    2caa:	d9 f5       	brne	.+118    	; 0x2d22 <main+0x26a>
			{
				sb=0;mb=0;s=' ';							
    2cac:	1b 82       	std	Y+3, r1	; 0x03
    2cae:	1a 82       	std	Y+2, r1	; 0x02
    2cb0:	1d 82       	std	Y+5, r1	; 0x05
    2cb2:	1c 82       	std	Y+4, r1	; 0x04
    2cb4:	20 e2       	ldi	r18, 0x20	; 32
    2cb6:	29 83       	std	Y+1, r18	; 0x01
				scale_t(ST[0].m_t, &sb, &mb, &s); // преобразование					
    2cb8:	88 85       	ldd	r24, Y+8	; 0x08
    2cba:	99 85       	ldd	r25, Y+9	; 0x09
    2cbc:	be 01       	movw	r22, r28
    2cbe:	6e 5f       	subi	r22, 0xFE	; 254
    2cc0:	7f 4f       	sbci	r23, 0xFF	; 255
    2cc2:	ae 01       	movw	r20, r28
    2cc4:	4c 5f       	subi	r20, 0xFC	; 252
    2cc6:	5f 4f       	sbci	r21, 0xFF	; 255
    2cc8:	9e 01       	movw	r18, r28
    2cca:	2f 5f       	subi	r18, 0xFF	; 255
    2ccc:	3f 4f       	sbci	r19, 0xFF	; 255
    2cce:	0e 94 39 05 	call	0xa72	; 0xa72 <scale_t>
				// запись в переменную для отображения
				string_2[5] = (((sb/10) % 10)+0x30);
    2cd2:	2a 81       	ldd	r18, Y+2	; 0x02
    2cd4:	3b 81       	ldd	r19, Y+3	; 0x03
    2cd6:	c9 01       	movw	r24, r18
    2cd8:	6a e0       	ldi	r22, 0x0A	; 10
    2cda:	70 e0       	ldi	r23, 0x00	; 0
    2cdc:	0e 94 23 30 	call	0x6046	; 0x6046 <__udivmodhi4>
    2ce0:	cb 01       	movw	r24, r22
    2ce2:	6a e0       	ldi	r22, 0x0A	; 10
    2ce4:	70 e0       	ldi	r23, 0x00	; 0
    2ce6:	0e 94 23 30 	call	0x6046	; 0x6046 <__udivmodhi4>
    2cea:	80 5d       	subi	r24, 0xD0	; 208
    2cec:	80 93 b0 04 	sts	0x04B0, r24
				string_2[6] = ((sb % 10) + 0x30);			
    2cf0:	c9 01       	movw	r24, r18
    2cf2:	6a e0       	ldi	r22, 0x0A	; 10
    2cf4:	70 e0       	ldi	r23, 0x00	; 0
    2cf6:	0e 94 23 30 	call	0x6046	; 0x6046 <__udivmodhi4>
    2cfa:	80 5d       	subi	r24, 0xD0	; 208
    2cfc:	80 93 b1 04 	sts	0x04B1, r24
				string_2[7] = ('.');						
    2d00:	3e e2       	ldi	r19, 0x2E	; 46
    2d02:	30 93 b2 04 	sts	0x04B2, r19
				string_2[8] = (((mb/1000) % 10)+0x30);
    2d06:	8c 81       	ldd	r24, Y+4	; 0x04
    2d08:	9d 81       	ldd	r25, Y+5	; 0x05
    2d0a:	68 ee       	ldi	r22, 0xE8	; 232
    2d0c:	73 e0       	ldi	r23, 0x03	; 3
    2d0e:	0e 94 23 30 	call	0x6046	; 0x6046 <__udivmodhi4>
    2d12:	cb 01       	movw	r24, r22
    2d14:	6a e0       	ldi	r22, 0x0A	; 10
    2d16:	70 e0       	ldi	r23, 0x00	; 0
    2d18:	0e 94 23 30 	call	0x6046	; 0x6046 <__udivmodhi4>
    2d1c:	80 5d       	subi	r24, 0xD0	; 208
    2d1e:	80 93 b3 04 	sts	0x04B3, r24
			};
			// 2-й датчик
			if(ST[1].s_m == DS18X20_OK) // датчик активен
    2d22:	8b 85       	ldd	r24, Y+11	; 0x0b
    2d24:	88 23       	and	r24, r24
    2d26:	d9 f5       	brne	.+118    	; 0x2d9e <main+0x2e6>
			{
				sb=0;mb=0;s=' ';							
    2d28:	1b 82       	std	Y+3, r1	; 0x03
    2d2a:	1a 82       	std	Y+2, r1	; 0x02
    2d2c:	1d 82       	std	Y+5, r1	; 0x05
    2d2e:	1c 82       	std	Y+4, r1	; 0x04
    2d30:	40 e2       	ldi	r20, 0x20	; 32
    2d32:	49 83       	std	Y+1, r20	; 0x01
				scale_t(ST[1].m_t, &sb, &mb, &s); // преобразование					
    2d34:	8c 85       	ldd	r24, Y+12	; 0x0c
    2d36:	9d 85       	ldd	r25, Y+13	; 0x0d
    2d38:	be 01       	movw	r22, r28
    2d3a:	6e 5f       	subi	r22, 0xFE	; 254
    2d3c:	7f 4f       	sbci	r23, 0xFF	; 255
    2d3e:	ae 01       	movw	r20, r28
    2d40:	4c 5f       	subi	r20, 0xFC	; 252
    2d42:	5f 4f       	sbci	r21, 0xFF	; 255
    2d44:	9e 01       	movw	r18, r28
    2d46:	2f 5f       	subi	r18, 0xFF	; 255
    2d48:	3f 4f       	sbci	r19, 0xFF	; 255
    2d4a:	0e 94 39 05 	call	0xa72	; 0xa72 <scale_t>
				// запись в переменную для отображения
				string_3[5] = (((sb/10) % 10)+0x30);
    2d4e:	2a 81       	ldd	r18, Y+2	; 0x02
    2d50:	3b 81       	ldd	r19, Y+3	; 0x03
    2d52:	c9 01       	movw	r24, r18
    2d54:	6a e0       	ldi	r22, 0x0A	; 10
    2d56:	70 e0       	ldi	r23, 0x00	; 0
    2d58:	0e 94 23 30 	call	0x6046	; 0x6046 <__udivmodhi4>
    2d5c:	cb 01       	movw	r24, r22
    2d5e:	6a e0       	ldi	r22, 0x0A	; 10
    2d60:	70 e0       	ldi	r23, 0x00	; 0
    2d62:	0e 94 23 30 	call	0x6046	; 0x6046 <__udivmodhi4>
    2d66:	80 5d       	subi	r24, 0xD0	; 208
    2d68:	80 93 c4 04 	sts	0x04C4, r24
				string_3[6] = ((sb % 10) + 0x30);		
    2d6c:	c9 01       	movw	r24, r18
    2d6e:	6a e0       	ldi	r22, 0x0A	; 10
    2d70:	70 e0       	ldi	r23, 0x00	; 0
    2d72:	0e 94 23 30 	call	0x6046	; 0x6046 <__udivmodhi4>
    2d76:	80 5d       	subi	r24, 0xD0	; 208
    2d78:	80 93 c5 04 	sts	0x04C5, r24
				string_3[7] = ('.');										
    2d7c:	5e e2       	ldi	r21, 0x2E	; 46
    2d7e:	50 93 c6 04 	sts	0x04C6, r21
				string_3[8] = (((mb/1000) % 10)+0x30);					
    2d82:	8c 81       	ldd	r24, Y+4	; 0x04
    2d84:	9d 81       	ldd	r25, Y+5	; 0x05
    2d86:	68 ee       	ldi	r22, 0xE8	; 232
    2d88:	73 e0       	ldi	r23, 0x03	; 3
    2d8a:	0e 94 23 30 	call	0x6046	; 0x6046 <__udivmodhi4>
    2d8e:	cb 01       	movw	r24, r22
    2d90:	6a e0       	ldi	r22, 0x0A	; 10
    2d92:	70 e0       	ldi	r23, 0x00	; 0
    2d94:	0e 94 23 30 	call	0x6046	; 0x6046 <__udivmodhi4>
    2d98:	80 5d       	subi	r24, 0xD0	; 208
    2d9a:	80 93 c7 04 	sts	0x04C7, r24
			};
			// 3-й датчик
			if(ST[2].s_m == DS18X20_OK) // датчик активен
    2d9e:	8f 85       	ldd	r24, Y+15	; 0x0f
    2da0:	88 23       	and	r24, r24
    2da2:	d9 f5       	brne	.+118    	; 0x2e1a <main+0x362>
			{
				sb=0;mb=0;s=' ';							
    2da4:	1b 82       	std	Y+3, r1	; 0x03
    2da6:	1a 82       	std	Y+2, r1	; 0x02
    2da8:	1d 82       	std	Y+5, r1	; 0x05
    2daa:	1c 82       	std	Y+4, r1	; 0x04
    2dac:	80 e2       	ldi	r24, 0x20	; 32
    2dae:	89 83       	std	Y+1, r24	; 0x01
				scale_t(ST[2].m_t, &sb, &mb, &s); // преобразование				
    2db0:	88 89       	ldd	r24, Y+16	; 0x10
    2db2:	99 89       	ldd	r25, Y+17	; 0x11
    2db4:	be 01       	movw	r22, r28
    2db6:	6e 5f       	subi	r22, 0xFE	; 254
    2db8:	7f 4f       	sbci	r23, 0xFF	; 255
    2dba:	ae 01       	movw	r20, r28
    2dbc:	4c 5f       	subi	r20, 0xFC	; 252
    2dbe:	5f 4f       	sbci	r21, 0xFF	; 255
    2dc0:	9e 01       	movw	r18, r28
    2dc2:	2f 5f       	subi	r18, 0xFF	; 255
    2dc4:	3f 4f       	sbci	r19, 0xFF	; 255
    2dc6:	0e 94 39 05 	call	0xa72	; 0xa72 <scale_t>
				// запись в переменную для отображения
				string_4[5] = (((sb/10) % 10)+0x30);
    2dca:	2a 81       	ldd	r18, Y+2	; 0x02
    2dcc:	3b 81       	ldd	r19, Y+3	; 0x03
    2dce:	c9 01       	movw	r24, r18
    2dd0:	6a e0       	ldi	r22, 0x0A	; 10
    2dd2:	70 e0       	ldi	r23, 0x00	; 0
    2dd4:	0e 94 23 30 	call	0x6046	; 0x6046 <__udivmodhi4>
    2dd8:	cb 01       	movw	r24, r22
    2dda:	6a e0       	ldi	r22, 0x0A	; 10
    2ddc:	70 e0       	ldi	r23, 0x00	; 0
    2dde:	0e 94 23 30 	call	0x6046	; 0x6046 <__udivmodhi4>
    2de2:	80 5d       	subi	r24, 0xD0	; 208
    2de4:	80 93 d8 04 	sts	0x04D8, r24
				string_4[6] = ((sb % 10) + 0x30);		
    2de8:	c9 01       	movw	r24, r18
    2dea:	6a e0       	ldi	r22, 0x0A	; 10
    2dec:	70 e0       	ldi	r23, 0x00	; 0
    2dee:	0e 94 23 30 	call	0x6046	; 0x6046 <__udivmodhi4>
    2df2:	80 5d       	subi	r24, 0xD0	; 208
    2df4:	80 93 d9 04 	sts	0x04D9, r24
				string_4[7] = ('.');										
    2df8:	9e e2       	ldi	r25, 0x2E	; 46
    2dfa:	90 93 da 04 	sts	0x04DA, r25
				string_4[8] = (((mb/1000) % 10)+0x30);					
    2dfe:	8c 81       	ldd	r24, Y+4	; 0x04
    2e00:	9d 81       	ldd	r25, Y+5	; 0x05
    2e02:	68 ee       	ldi	r22, 0xE8	; 232
    2e04:	73 e0       	ldi	r23, 0x03	; 3
    2e06:	0e 94 23 30 	call	0x6046	; 0x6046 <__udivmodhi4>
    2e0a:	cb 01       	movw	r24, r22
    2e0c:	6a e0       	ldi	r22, 0x0A	; 10
    2e0e:	70 e0       	ldi	r23, 0x00	; 0
    2e10:	0e 94 23 30 	call	0x6046	; 0x6046 <__udivmodhi4>
    2e14:	80 5d       	subi	r24, 0xD0	; 208
    2e16:	80 93 db 04 	sts	0x04DB, r24
			};
            
			// ----- текущее время ----- //
            DS1307(); // опрос DS1307N
    2e1a:	0e 94 20 03 	call	0x640	; 0x640 <DS1307>
			// преобразование и запись в переменную для отображения
			// часы
			string_1[0]=((((buffer_ds[2]&0xF0)>>4)*10)+(buffer_ds[2]&0x0F))/10+0x30; // HEX to BIN, вывод на LCD
    2e1e:	40 91 52 06 	lds	r20, 0x0652
    2e22:	84 2f       	mov	r24, r20
    2e24:	82 95       	swap	r24
    2e26:	8f 70       	andi	r24, 0x0F	; 15
    2e28:	90 e0       	ldi	r25, 0x00	; 0
    2e2a:	9c 01       	movw	r18, r24
    2e2c:	13 e0       	ldi	r17, 0x03	; 3
    2e2e:	22 0f       	add	r18, r18
    2e30:	33 1f       	adc	r19, r19
    2e32:	1a 95       	dec	r17
    2e34:	e1 f7       	brne	.-8      	; 0x2e2e <main+0x376>
    2e36:	88 0f       	add	r24, r24
    2e38:	99 1f       	adc	r25, r25
    2e3a:	28 0f       	add	r18, r24
    2e3c:	39 1f       	adc	r19, r25
    2e3e:	4f 70       	andi	r20, 0x0F	; 15
    2e40:	24 0f       	add	r18, r20
    2e42:	31 1d       	adc	r19, r1
    2e44:	c9 01       	movw	r24, r18
    2e46:	6a e0       	ldi	r22, 0x0A	; 10
    2e48:	70 e0       	ldi	r23, 0x00	; 0
    2e4a:	0e 94 37 30 	call	0x606e	; 0x606e <__divmodhi4>
    2e4e:	60 5d       	subi	r22, 0xD0	; 208
    2e50:	60 93 97 04 	sts	0x0497, r22
			string_1[1]=((((buffer_ds[2]&0xF0)>>4)*10)+(buffer_ds[2]&0x0F))%10+0x30;
    2e54:	c9 01       	movw	r24, r18
    2e56:	6a e0       	ldi	r22, 0x0A	; 10
    2e58:	70 e0       	ldi	r23, 0x00	; 0
    2e5a:	0e 94 37 30 	call	0x606e	; 0x606e <__divmodhi4>
    2e5e:	80 5d       	subi	r24, 0xD0	; 208
    2e60:	80 93 98 04 	sts	0x0498, r24
			string_1[2]=0x3A; 
    2e64:	aa e3       	ldi	r26, 0x3A	; 58
    2e66:	a0 93 99 04 	sts	0x0499, r26
			// минуты
			string_1[3]=((((buffer_ds[1]&0xF0)>>4)*10)+(buffer_ds[1]&0x0F))/10+0x30; // HEX to BIN, вывод на LCD
    2e6a:	40 91 51 06 	lds	r20, 0x0651
    2e6e:	84 2f       	mov	r24, r20
    2e70:	82 95       	swap	r24
    2e72:	8f 70       	andi	r24, 0x0F	; 15
    2e74:	90 e0       	ldi	r25, 0x00	; 0
    2e76:	9c 01       	movw	r18, r24
    2e78:	a3 e0       	ldi	r26, 0x03	; 3
    2e7a:	22 0f       	add	r18, r18
    2e7c:	33 1f       	adc	r19, r19
    2e7e:	aa 95       	dec	r26
    2e80:	e1 f7       	brne	.-8      	; 0x2e7a <main+0x3c2>
    2e82:	88 0f       	add	r24, r24
    2e84:	99 1f       	adc	r25, r25
    2e86:	28 0f       	add	r18, r24
    2e88:	39 1f       	adc	r19, r25
    2e8a:	4f 70       	andi	r20, 0x0F	; 15
    2e8c:	24 0f       	add	r18, r20
    2e8e:	31 1d       	adc	r19, r1
    2e90:	c9 01       	movw	r24, r18
    2e92:	6a e0       	ldi	r22, 0x0A	; 10
    2e94:	70 e0       	ldi	r23, 0x00	; 0
    2e96:	0e 94 37 30 	call	0x606e	; 0x606e <__divmodhi4>
    2e9a:	60 5d       	subi	r22, 0xD0	; 208
    2e9c:	60 93 9a 04 	sts	0x049A, r22
			string_1[4]=((((buffer_ds[1]&0xF0)>>4)*10)+(buffer_ds[1]&0x0F))%10+0x30;
    2ea0:	c9 01       	movw	r24, r18
    2ea2:	6a e0       	ldi	r22, 0x0A	; 10
    2ea4:	70 e0       	ldi	r23, 0x00	; 0
    2ea6:	0e 94 37 30 	call	0x606e	; 0x606e <__divmodhi4>
    2eaa:	80 5d       	subi	r24, 0xD0	; 208
    2eac:	80 93 9b 04 	sts	0x049B, r24
			string_1[5]=0x3A; 
    2eb0:	ba e3       	ldi	r27, 0x3A	; 58
    2eb2:	b0 93 9c 04 	sts	0x049C, r27
			// секунды
			string_1[6]=((((buffer_ds[0]&0xF0)>>4)*10)+(buffer_ds[0]&0x0F))/10+0x30; // HEX to BIN, вывод на LCD
    2eb6:	40 91 50 06 	lds	r20, 0x0650
    2eba:	84 2f       	mov	r24, r20
    2ebc:	82 95       	swap	r24
    2ebe:	8f 70       	andi	r24, 0x0F	; 15
    2ec0:	90 e0       	ldi	r25, 0x00	; 0
    2ec2:	9c 01       	movw	r18, r24
    2ec4:	e3 e0       	ldi	r30, 0x03	; 3
    2ec6:	22 0f       	add	r18, r18
    2ec8:	33 1f       	adc	r19, r19
    2eca:	ea 95       	dec	r30
    2ecc:	e1 f7       	brne	.-8      	; 0x2ec6 <main+0x40e>
    2ece:	88 0f       	add	r24, r24
    2ed0:	99 1f       	adc	r25, r25
    2ed2:	28 0f       	add	r18, r24
    2ed4:	39 1f       	adc	r19, r25
    2ed6:	4f 70       	andi	r20, 0x0F	; 15
    2ed8:	24 0f       	add	r18, r20
    2eda:	31 1d       	adc	r19, r1
    2edc:	c9 01       	movw	r24, r18
    2ede:	6a e0       	ldi	r22, 0x0A	; 10
    2ee0:	70 e0       	ldi	r23, 0x00	; 0
    2ee2:	0e 94 37 30 	call	0x606e	; 0x606e <__divmodhi4>
    2ee6:	60 5d       	subi	r22, 0xD0	; 208
    2ee8:	60 93 9d 04 	sts	0x049D, r22
			string_1[7]=((((buffer_ds[0]&0xF0)>>4)*10)+(buffer_ds[0]&0x0F))%10+0x30;
    2eec:	c9 01       	movw	r24, r18
    2eee:	6a e0       	ldi	r22, 0x0A	; 10
    2ef0:	70 e0       	ldi	r23, 0x00	; 0
    2ef2:	0e 94 37 30 	call	0x606e	; 0x606e <__divmodhi4>
    2ef6:	80 5d       	subi	r24, 0xD0	; 208
    2ef8:	80 93 9e 04 	sts	0x049E, r24
				
			// ----- опрос линий ADC ----- //
			adc_count++;
    2efc:	20 91 39 05 	lds	r18, 0x0539
    2f00:	2f 5f       	subi	r18, 0xFF	; 255
    2f02:	20 93 39 05 	sts	0x0539, r18
			// чтение регистров, хранящих оцифрованное значение
			dl=ADCL;
    2f06:	94 b1       	in	r25, 0x04	; 4
    2f08:	90 93 4c 06 	sts	0x064C, r25
			dh=ADCH;
    2f0c:	85 b1       	in	r24, 0x05	; 5
    2f0e:	80 93 48 06 	sts	0x0648, r24
			adc_data =(dh<<8)+dl; // общее оцифрованное значение
    2f12:	8b 8f       	std	Y+27, r24	; 0x1b
    2f14:	1a 8e       	std	Y+26, r1	; 0x1a
    2f16:	ea 8d       	ldd	r30, Y+26	; 0x1a
    2f18:	fb 8d       	ldd	r31, Y+27	; 0x1b
    2f1a:	e9 0f       	add	r30, r25
    2f1c:	f1 1d       	adc	r31, r1
    2f1e:	af 01       	movw	r20, r30
    2f20:	66 27       	eor	r22, r22
    2f22:	57 fd       	sbrc	r21, 7
    2f24:	60 95       	com	r22
    2f26:	76 2f       	mov	r23, r22
    2f28:	40 93 14 05 	sts	0x0514, r20
    2f2c:	50 93 15 05 	sts	0x0515, r21
    2f30:	60 93 16 05 	sts	0x0516, r22
    2f34:	70 93 17 05 	sts	0x0517, r23
			// переключение каналов
			if(adc_count==1)	
    2f38:	21 30       	cpi	r18, 0x01	; 1
    2f3a:	59 f4       	brne	.+22     	; 0x2f52 <main+0x49a>
			{
				ph=adc_data; // значение PH
    2f3c:	40 93 18 05 	sts	0x0518, r20
    2f40:	50 93 19 05 	sts	0x0519, r21
    2f44:	60 93 1a 05 	sts	0x051A, r22
    2f48:	70 93 1b 05 	sts	0x051B, r23
				ADMUX=0b01000001;
    2f4c:	f1 e4       	ldi	r31, 0x41	; 65
    2f4e:	f7 b9       	out	0x07, r31	; 7
				ADCSRA|=(1<<ADSC); // команда начала преобразований АЦП
    2f50:	36 9a       	sbi	0x06, 6	; 6
			}
			if(adc_count==2)	
    2f52:	80 91 39 05 	lds	r24, 0x0539
    2f56:	82 30       	cpi	r24, 0x02	; 2
    2f58:	99 f4       	brne	.+38     	; 0x2f80 <main+0x4c8>
			{
				redox=adc_data; // значение redox
    2f5a:	80 91 14 05 	lds	r24, 0x0514
    2f5e:	90 91 15 05 	lds	r25, 0x0515
    2f62:	a0 91 16 05 	lds	r26, 0x0516
    2f66:	b0 91 17 05 	lds	r27, 0x0517
    2f6a:	80 93 1c 05 	sts	0x051C, r24
    2f6e:	90 93 1d 05 	sts	0x051D, r25
    2f72:	a0 93 1e 05 	sts	0x051E, r26
    2f76:	b0 93 1f 05 	sts	0x051F, r27
				ADMUX=0b01000010;
    2f7a:	22 e4       	ldi	r18, 0x42	; 66
    2f7c:	27 b9       	out	0x07, r18	; 7
				ADCSRA|=(1<<ADSC); // команда начала преобразований АЦП
    2f7e:	36 9a       	sbi	0x06, 6	; 6
			}
			if(adc_count==3)	
    2f80:	80 91 39 05 	lds	r24, 0x0539
    2f84:	83 30       	cpi	r24, 0x03	; 3
    2f86:	69 f4       	brne	.+26     	; 0x2fa2 <main+0x4ea>
			{
				water_lvl=adc_data; // значение уровня воды
    2f88:	80 91 14 05 	lds	r24, 0x0514
    2f8c:	90 91 15 05 	lds	r25, 0x0515
    2f90:	90 93 21 05 	sts	0x0521, r25
    2f94:	80 93 20 05 	sts	0x0520, r24
				ADMUX=0b01000000;
    2f98:	30 e4       	ldi	r19, 0x40	; 64
    2f9a:	37 b9       	out	0x07, r19	; 7
				ADCSRA|=(1<<ADSC); // команда начала преобразований АЦП
    2f9c:	36 9a       	sbi	0x06, 6	; 6
				adc_count=0;
    2f9e:	10 92 39 05 	sts	0x0539, r1
			}
			
			// ----- преобразование и запись в переменные для отображение ----- //
			// PH, с учетом каллибровочных коэффицинтов
			data_ph=(ph*k1+k2)/1000;
    2fa2:	60 91 65 04 	lds	r22, 0x0465
    2fa6:	70 91 66 04 	lds	r23, 0x0466
    2faa:	80 91 67 04 	lds	r24, 0x0467
    2fae:	90 91 68 04 	lds	r25, 0x0468
    2fb2:	20 91 18 05 	lds	r18, 0x0518
    2fb6:	30 91 19 05 	lds	r19, 0x0519
    2fba:	40 91 1a 05 	lds	r20, 0x051A
    2fbe:	50 91 1b 05 	lds	r21, 0x051B
    2fc2:	0e 94 f8 2f 	call	0x5ff0	; 0x5ff0 <__mulsi3>
    2fc6:	9b 01       	movw	r18, r22
    2fc8:	ac 01       	movw	r20, r24
    2fca:	60 91 69 04 	lds	r22, 0x0469
    2fce:	70 91 6a 04 	lds	r23, 0x046A
    2fd2:	80 91 6b 04 	lds	r24, 0x046B
    2fd6:	90 91 6c 04 	lds	r25, 0x046C
    2fda:	62 0f       	add	r22, r18
    2fdc:	73 1f       	adc	r23, r19
    2fde:	84 1f       	adc	r24, r20
    2fe0:	95 1f       	adc	r25, r21
    2fe2:	28 ee       	ldi	r18, 0xE8	; 232
    2fe4:	33 e0       	ldi	r19, 0x03	; 3
    2fe6:	40 e0       	ldi	r20, 0x00	; 0
    2fe8:	50 e0       	ldi	r21, 0x00	; 0
    2fea:	0e 94 4a 30 	call	0x6094	; 0x6094 <__udivmodsi4>
    2fee:	ca 01       	movw	r24, r20
    2ff0:	20 93 30 06 	sts	0x0630, r18
    2ff4:	30 93 31 06 	sts	0x0631, r19
    2ff8:	40 93 32 06 	sts	0x0632, r20
    2ffc:	90 93 33 06 	sts	0x0633, r25
			string_2[15]=data_ph/1000+0x30; 
    3000:	b9 01       	movw	r22, r18
    3002:	28 ee       	ldi	r18, 0xE8	; 232
    3004:	33 e0       	ldi	r19, 0x03	; 3
    3006:	40 e0       	ldi	r20, 0x00	; 0
    3008:	50 e0       	ldi	r21, 0x00	; 0
    300a:	0e 94 4a 30 	call	0x6094	; 0x6094 <__udivmodsi4>
    300e:	20 5d       	subi	r18, 0xD0	; 208
    3010:	20 93 ba 04 	sts	0x04BA, r18
			string_2[16]=(data_ph%1000)/100+0x30; 
    3014:	60 91 30 06 	lds	r22, 0x0630
    3018:	70 91 31 06 	lds	r23, 0x0631
    301c:	80 91 32 06 	lds	r24, 0x0632
    3020:	90 91 33 06 	lds	r25, 0x0633
    3024:	28 ee       	ldi	r18, 0xE8	; 232
    3026:	33 e0       	ldi	r19, 0x03	; 3
    3028:	40 e0       	ldi	r20, 0x00	; 0
    302a:	50 e0       	ldi	r21, 0x00	; 0
    302c:	0e 94 4a 30 	call	0x6094	; 0x6094 <__udivmodsi4>
    3030:	7b 01       	movw	r14, r22
    3032:	8c 01       	movw	r16, r24
    3034:	24 e6       	ldi	r18, 0x64	; 100
    3036:	30 e0       	ldi	r19, 0x00	; 0
    3038:	40 e0       	ldi	r20, 0x00	; 0
    303a:	50 e0       	ldi	r21, 0x00	; 0
    303c:	0e 94 4a 30 	call	0x6094	; 0x6094 <__udivmodsi4>
    3040:	20 5d       	subi	r18, 0xD0	; 208
    3042:	20 93 bb 04 	sts	0x04BB, r18
			string_2[17]='.';
    3046:	4e e2       	ldi	r20, 0x2E	; 46
    3048:	40 93 bc 04 	sts	0x04BC, r20
			string_2[18]=((data_ph%1000)%100)/10+0x30; 
    304c:	c8 01       	movw	r24, r16
    304e:	b7 01       	movw	r22, r14
    3050:	24 e6       	ldi	r18, 0x64	; 100
    3052:	30 e0       	ldi	r19, 0x00	; 0
    3054:	40 e0       	ldi	r20, 0x00	; 0
    3056:	50 e0       	ldi	r21, 0x00	; 0
    3058:	0e 94 4a 30 	call	0x6094	; 0x6094 <__udivmodsi4>
    305c:	7b 01       	movw	r14, r22
    305e:	8c 01       	movw	r16, r24
    3060:	2a e0       	ldi	r18, 0x0A	; 10
    3062:	30 e0       	ldi	r19, 0x00	; 0
    3064:	40 e0       	ldi	r20, 0x00	; 0
    3066:	50 e0       	ldi	r21, 0x00	; 0
    3068:	0e 94 4a 30 	call	0x6094	; 0x6094 <__udivmodsi4>
    306c:	20 5d       	subi	r18, 0xD0	; 208
    306e:	20 93 bd 04 	sts	0x04BD, r18
			string_2[19]=((data_ph%1000)%100)%10+0x30; 
    3072:	c8 01       	movw	r24, r16
    3074:	b7 01       	movw	r22, r14
    3076:	2a e0       	ldi	r18, 0x0A	; 10
    3078:	30 e0       	ldi	r19, 0x00	; 0
    307a:	40 e0       	ldi	r20, 0x00	; 0
    307c:	50 e0       	ldi	r21, 0x00	; 0
    307e:	0e 94 4a 30 	call	0x6094	; 0x6094 <__udivmodsi4>
    3082:	60 5d       	subi	r22, 0xD0	; 208
    3084:	60 93 be 04 	sts	0x04BE, r22
			// redox, с учетом каллибровочного коэффицинта
			data_redox=redox*k/1000;
    3088:	60 91 6d 04 	lds	r22, 0x046D
    308c:	70 91 6e 04 	lds	r23, 0x046E
    3090:	80 91 6f 04 	lds	r24, 0x046F
    3094:	90 91 70 04 	lds	r25, 0x0470
    3098:	20 91 1c 05 	lds	r18, 0x051C
    309c:	30 91 1d 05 	lds	r19, 0x051D
    30a0:	40 91 1e 05 	lds	r20, 0x051E
    30a4:	50 91 1f 05 	lds	r21, 0x051F
    30a8:	0e 94 f8 2f 	call	0x5ff0	; 0x5ff0 <__mulsi3>
    30ac:	28 ee       	ldi	r18, 0xE8	; 232
    30ae:	33 e0       	ldi	r19, 0x03	; 3
    30b0:	40 e0       	ldi	r20, 0x00	; 0
    30b2:	50 e0       	ldi	r21, 0x00	; 0
    30b4:	0e 94 4a 30 	call	0x6094	; 0x6094 <__udivmodsi4>
    30b8:	ca 01       	movw	r24, r20
    30ba:	20 93 34 06 	sts	0x0634, r18
    30be:	30 93 35 06 	sts	0x0635, r19
    30c2:	40 93 36 06 	sts	0x0636, r20
    30c6:	90 93 37 06 	sts	0x0637, r25
			string_3[15]=data_redox/1000+0x30; 
    30ca:	b9 01       	movw	r22, r18
    30cc:	28 ee       	ldi	r18, 0xE8	; 232
    30ce:	33 e0       	ldi	r19, 0x03	; 3
    30d0:	40 e0       	ldi	r20, 0x00	; 0
    30d2:	50 e0       	ldi	r21, 0x00	; 0
    30d4:	0e 94 4a 30 	call	0x6094	; 0x6094 <__udivmodsi4>
    30d8:	20 5d       	subi	r18, 0xD0	; 208
    30da:	20 93 ce 04 	sts	0x04CE, r18
			string_3[16]='.';
    30de:	5e e2       	ldi	r21, 0x2E	; 46
    30e0:	50 93 cf 04 	sts	0x04CF, r21
			string_3[17]=(data_redox%1000)/100+0x30; 
    30e4:	60 91 34 06 	lds	r22, 0x0634
    30e8:	70 91 35 06 	lds	r23, 0x0635
    30ec:	80 91 36 06 	lds	r24, 0x0636
    30f0:	90 91 37 06 	lds	r25, 0x0637
    30f4:	28 ee       	ldi	r18, 0xE8	; 232
    30f6:	33 e0       	ldi	r19, 0x03	; 3
    30f8:	40 e0       	ldi	r20, 0x00	; 0
    30fa:	50 e0       	ldi	r21, 0x00	; 0
    30fc:	0e 94 4a 30 	call	0x6094	; 0x6094 <__udivmodsi4>
    3100:	7b 01       	movw	r14, r22
    3102:	8c 01       	movw	r16, r24
    3104:	24 e6       	ldi	r18, 0x64	; 100
    3106:	30 e0       	ldi	r19, 0x00	; 0
    3108:	40 e0       	ldi	r20, 0x00	; 0
    310a:	50 e0       	ldi	r21, 0x00	; 0
    310c:	0e 94 4a 30 	call	0x6094	; 0x6094 <__udivmodsi4>
    3110:	20 5d       	subi	r18, 0xD0	; 208
    3112:	20 93 d0 04 	sts	0x04D0, r18
			string_3[18]=((data_redox%1000)%100)/10+0x30; 
    3116:	c8 01       	movw	r24, r16
    3118:	b7 01       	movw	r22, r14
    311a:	24 e6       	ldi	r18, 0x64	; 100
    311c:	30 e0       	ldi	r19, 0x00	; 0
    311e:	40 e0       	ldi	r20, 0x00	; 0
    3120:	50 e0       	ldi	r21, 0x00	; 0
    3122:	0e 94 4a 30 	call	0x6094	; 0x6094 <__udivmodsi4>
    3126:	7b 01       	movw	r14, r22
    3128:	8c 01       	movw	r16, r24
    312a:	2a e0       	ldi	r18, 0x0A	; 10
    312c:	30 e0       	ldi	r19, 0x00	; 0
    312e:	40 e0       	ldi	r20, 0x00	; 0
    3130:	50 e0       	ldi	r21, 0x00	; 0
    3132:	0e 94 4a 30 	call	0x6094	; 0x6094 <__udivmodsi4>
    3136:	20 5d       	subi	r18, 0xD0	; 208
    3138:	20 93 d1 04 	sts	0x04D1, r18
			string_3[19]=((data_redox%1000)%100)%10+0x30; 
    313c:	c8 01       	movw	r24, r16
    313e:	b7 01       	movw	r22, r14
    3140:	2a e0       	ldi	r18, 0x0A	; 10
    3142:	30 e0       	ldi	r19, 0x00	; 0
    3144:	40 e0       	ldi	r20, 0x00	; 0
    3146:	50 e0       	ldi	r21, 0x00	; 0
    3148:	0e 94 4a 30 	call	0x6094	; 0x6094 <__udivmodsi4>
    314c:	60 5d       	subi	r22, 0xD0	; 208
    314e:	60 93 d2 04 	sts	0x04D2, r22
            
			FlagsFastCount &= ~_BV(9); // сбросить флаг
    3152:	80 91 11 05 	lds	r24, 0x0511
    3156:	90 91 12 05 	lds	r25, 0x0512
    315a:	9d 7f       	andi	r25, 0xFD	; 253
    315c:	90 93 12 05 	sts	0x0512, r25
    3160:	80 93 11 05 	sts	0x0511, r24
		};	
		
		if (FlagsFastCount & _BV(10)) // ~ 333 ms
    3164:	80 91 11 05 	lds	r24, 0x0511
    3168:	90 91 12 05 	lds	r25, 0x0512
    316c:	92 fd       	sbrc	r25, 2
    316e:	02 c0       	rjmp	.+4      	; 0x3174 <main+0x6bc>
    3170:	0c 94 dd 2a 	jmp	0x55ba	; 0x55ba <main+0x2b02>
		{
			// ----- обработка входящих данных ----- //
			// ----- данные передаются в виде строки ----- //
			if(usart_data_in[0]==0x3B) // принято начало пакета данных
    3174:	80 91 65 02 	lds	r24, 0x0265
    3178:	8b 33       	cpi	r24, 0x3B	; 59
    317a:	09 f0       	breq	.+2      	; 0x317e <main+0x6c6>
    317c:	36 c7       	rjmp	.+3692   	; 0x3fea <main+0x1532>
			{
				switch(usart_data_in[1]) // определение команды
    317e:	80 91 66 02 	lds	r24, 0x0266
    3182:	90 e0       	ldi	r25, 0x00	; 0
    3184:	fc 01       	movw	r30, r24
    3186:	31 97       	sbiw	r30, 0x01	; 1
    3188:	e9 31       	cpi	r30, 0x19	; 25
    318a:	f1 05       	cpc	r31, r1
    318c:	08 f0       	brcs	.+2      	; 0x3190 <main+0x6d8>
    318e:	2d c7       	rjmp	.+3674   	; 0x3fea <main+0x1532>
    3190:	e6 5d       	subi	r30, 0xD6	; 214
    3192:	ff 4f       	sbci	r31, 0xFF	; 255
    3194:	ee 0f       	add	r30, r30
    3196:	ff 1f       	adc	r31, r31
    3198:	05 90       	lpm	r0, Z+
    319a:	f4 91       	lpm	r31, Z+
    319c:	e0 2d       	mov	r30, r0
    319e:	09 94       	ijmp
					// ----- данные вкладки <Отображение информации> AquaControl ----- //
					
					case 0x01: // ручной режим, временные ограничения
					{
						// ручное управление каналами
						if(usart_data_in[22]==0xB3) // принят конец пакета данных
    31a0:	80 91 7b 02 	lds	r24, 0x027B
    31a4:	83 3b       	cpi	r24, 0xB3	; 179
    31a6:	09 f0       	breq	.+2      	; 0x31aa <main+0x6f2>
    31a8:	61 c0       	rjmp	.+194    	; 0x326c <main+0x7b4>
						{
							if(usart_data_in[2]==0x31) rele_set[0]=1; // освещение 1
    31aa:	80 91 67 02 	lds	r24, 0x0267
    31ae:	81 33       	cpi	r24, 0x31	; 49
    31b0:	21 f4       	brne	.+8      	; 0x31ba <main+0x702>
    31b2:	81 e0       	ldi	r24, 0x01	; 1
    31b4:	80 93 f0 04 	sts	0x04F0, r24
    31b8:	02 c0       	rjmp	.+4      	; 0x31be <main+0x706>
							else rele_set[0]=0;
    31ba:	10 92 f0 04 	sts	0x04F0, r1
							if(usart_data_in[3]==0x31) rele_set[1]=1; // освещение 2
    31be:	80 91 68 02 	lds	r24, 0x0268
    31c2:	81 33       	cpi	r24, 0x31	; 49
    31c4:	21 f4       	brne	.+8      	; 0x31ce <main+0x716>
    31c6:	81 e0       	ldi	r24, 0x01	; 1
    31c8:	80 93 f1 04 	sts	0x04F1, r24
    31cc:	02 c0       	rjmp	.+4      	; 0x31d2 <main+0x71a>
							else rele_set[1]=0;
    31ce:	10 92 f1 04 	sts	0x04F1, r1
							if(usart_data_in[4]==0x31) rele_set[2]=1; // освещение 3
    31d2:	80 91 69 02 	lds	r24, 0x0269
    31d6:	81 33       	cpi	r24, 0x31	; 49
    31d8:	21 f4       	brne	.+8      	; 0x31e2 <main+0x72a>
    31da:	81 e0       	ldi	r24, 0x01	; 1
    31dc:	80 93 f2 04 	sts	0x04F2, r24
    31e0:	02 c0       	rjmp	.+4      	; 0x31e6 <main+0x72e>
							else rele_set[2]=0;
    31e2:	10 92 f2 04 	sts	0x04F2, r1
							if(usart_data_in[5]==0x31) rele_set[3]=1; // освещение 4
    31e6:	80 91 6a 02 	lds	r24, 0x026A
    31ea:	81 33       	cpi	r24, 0x31	; 49
    31ec:	21 f4       	brne	.+8      	; 0x31f6 <main+0x73e>
    31ee:	81 e0       	ldi	r24, 0x01	; 1
    31f0:	80 93 f3 04 	sts	0x04F3, r24
    31f4:	02 c0       	rjmp	.+4      	; 0x31fa <main+0x742>
							else rele_set[3]=0;
    31f6:	10 92 f3 04 	sts	0x04F3, r1
							if(usart_data_in[6]==0x31) rele_set[4]=1; // компрессор
    31fa:	80 91 6b 02 	lds	r24, 0x026B
    31fe:	81 33       	cpi	r24, 0x31	; 49
    3200:	21 f4       	brne	.+8      	; 0x320a <main+0x752>
    3202:	81 e0       	ldi	r24, 0x01	; 1
    3204:	80 93 f4 04 	sts	0x04F4, r24
    3208:	02 c0       	rjmp	.+4      	; 0x320e <main+0x756>
							else rele_set[4]=0;
    320a:	10 92 f4 04 	sts	0x04F4, r1
							if(usart_data_in[7]==0x31) // --- нагреватель
    320e:	80 91 6c 02 	lds	r24, 0x026C
    3212:	81 33       	cpi	r24, 0x31	; 49
    3214:	39 f4       	brne	.+14     	; 0x3224 <main+0x76c>
							{
								rele_set[5]=1; // нагреватель включить
    3216:	81 e0       	ldi	r24, 0x01	; 1
    3218:	80 93 f5 04 	sts	0x04F5, r24
								heater_chanel_status=0x32; // флаг - нагреватель в ручном режиме
    321c:	82 e3       	ldi	r24, 0x32	; 50
    321e:	80 93 40 06 	sts	0x0640, r24
    3222:	04 c0       	rjmp	.+8      	; 0x322c <main+0x774>
							}
							else 
							{
								rele_set[5]=0; // нагреватель отключить
    3224:	10 92 f5 04 	sts	0x04F5, r1
								heater_chanel_status=0; // сбросить флаг
    3228:	10 92 40 06 	sts	0x0640, r1
							}
							if(usart_data_in[8]==0x31) // --- клапан СО2
    322c:	80 91 6d 02 	lds	r24, 0x026D
    3230:	81 33       	cpi	r24, 0x31	; 49
    3232:	39 f4       	brne	.+14     	; 0x3242 <main+0x78a>
							{
								rele_set[6]=1; // клапан СО2 включить
    3234:	81 e0       	ldi	r24, 0x01	; 1
    3236:	80 93 f6 04 	sts	0x04F6, r24
								co2_status=0x32; // флаг - электроклапан в ручном режиме
    323a:	82 e3       	ldi	r24, 0x32	; 50
    323c:	80 93 04 05 	sts	0x0504, r24
    3240:	04 c0       	rjmp	.+8      	; 0x324a <main+0x792>
							}
							else 
							{
								rele_set[6]=0; // клапан СО2 отключить
    3242:	10 92 f6 04 	sts	0x04F6, r1
								co2_status=0; // сбросить флаг
    3246:	10 92 04 05 	sts	0x0504, r1
							}
							if(usart_data_in[9]==0x31) // --- помпа
    324a:	80 91 6e 02 	lds	r24, 0x026E
    324e:	81 33       	cpi	r24, 0x31	; 49
    3250:	39 f4       	brne	.+14     	; 0x3260 <main+0x7a8>
							{
								rele_set[7]=1; // помпу включить
    3252:	81 e0       	ldi	r24, 0x01	; 1
    3254:	80 93 f7 04 	sts	0x04F7, r24
								water_lvl_status=0x32; // флаг - помпа в ручном режиме
    3258:	82 e3       	ldi	r24, 0x32	; 50
    325a:	80 93 03 05 	sts	0x0503, r24
    325e:	04 c0       	rjmp	.+8      	; 0x3268 <main+0x7b0>
							}
							else 
							{
								rele_set[7]=0; // помпу отключить
    3260:	10 92 f7 04 	sts	0x04F7, r1
								water_lvl_status=0; // сбросить флаг
    3264:	10 92 03 05 	sts	0x0503, r1
							}
							usart_data_in[22]=0; // пакет данных обработан
    3268:	10 92 7b 02 	sts	0x027B, r1
						}
							
						// ручное управление кулерами
						if(usart_data_in[10]==0x31)
    326c:	80 91 6f 02 	lds	r24, 0x026F
    3270:	81 33       	cpi	r24, 0x31	; 49
    3272:	09 f0       	breq	.+2      	; 0x3276 <main+0x7be>
    3274:	72 c0       	rjmp	.+228    	; 0x335a <main+0x8a2>
						{
							cooler_start_pulse[0]++; // отсчет времени стартового импульса
    3276:	80 91 4a 05 	lds	r24, 0x054A
    327a:	8f 5f       	subi	r24, 0xFF	; 255
    327c:	80 93 4a 05 	sts	0x054A, r24
							// ~3.33 с - устанавливаем заданную мощность
							if(cooler_start_pulse[0]==10) 
    3280:	8a 30       	cpi	r24, 0x0A	; 10
    3282:	09 f0       	breq	.+2      	; 0x3286 <main+0x7ce>
    3284:	4f c0       	rjmp	.+158    	; 0x3324 <main+0x86c>
							{
								// получение значения мощности кулеров
								cooler_data[0]=(usart_data_in[11]*100+usart_data_in[12]*10+usart_data_in[13])*2.55;
    3286:	60 91 70 02 	lds	r22, 0x0270
    328a:	20 91 71 02 	lds	r18, 0x0271
    328e:	50 91 72 02 	lds	r21, 0x0272
    3292:	44 e6       	ldi	r20, 0x64	; 100
    3294:	64 9f       	mul	r22, r20
    3296:	b0 01       	movw	r22, r0
    3298:	11 24       	eor	r1, r1
    329a:	28 9f       	mul	r18, r24
    329c:	90 01       	movw	r18, r0
    329e:	11 24       	eor	r1, r1
    32a0:	62 0f       	add	r22, r18
    32a2:	73 1f       	adc	r23, r19
    32a4:	65 0f       	add	r22, r21
    32a6:	71 1d       	adc	r23, r1
    32a8:	88 27       	eor	r24, r24
    32aa:	77 fd       	sbrc	r23, 7
    32ac:	80 95       	com	r24
    32ae:	98 2f       	mov	r25, r24
    32b0:	0e 94 e5 2e 	call	0x5dca	; 0x5dca <__floatsisf>
    32b4:	23 e3       	ldi	r18, 0x33	; 51
    32b6:	33 e3       	ldi	r19, 0x33	; 51
    32b8:	43 e2       	ldi	r20, 0x23	; 35
    32ba:	50 e4       	ldi	r21, 0x40	; 64
    32bc:	0e 94 95 2f 	call	0x5f2a	; 0x5f2a <__mulsf3>
    32c0:	60 93 3a 05 	sts	0x053A, r22
    32c4:	70 93 3b 05 	sts	0x053B, r23
    32c8:	80 93 3c 05 	sts	0x053C, r24
    32cc:	90 93 3d 05 	sts	0x053D, r25
								cooler_start_pulse[0]=9; // продолжаем выполнять условие
    32d0:	29 e0       	ldi	r18, 0x09	; 9
    32d2:	20 93 4a 05 	sts	0x054A, r18
								// если мощности кулеров меньше минимальной
								if(cooler_data[0]<cooler_min) cooler_data[0]=cooler_min;
    32d6:	60 90 75 04 	lds	r6, 0x0475
    32da:	70 90 76 04 	lds	r7, 0x0476
    32de:	80 90 77 04 	lds	r8, 0x0477
    32e2:	90 90 78 04 	lds	r9, 0x0478
    32e6:	a4 01       	movw	r20, r8
    32e8:	93 01       	movw	r18, r6
    32ea:	0e 94 4b 2e 	call	0x5c96	; 0x5c96 <__cmpsf2>
    32ee:	88 23       	and	r24, r24
    32f0:	44 f4       	brge	.+16     	; 0x3302 <main+0x84a>
    32f2:	60 92 3a 05 	sts	0x053A, r6
    32f6:	70 92 3b 05 	sts	0x053B, r7
    32fa:	80 92 3c 05 	sts	0x053C, r8
    32fe:	90 92 3d 05 	sts	0x053D, r9
								// использовать текущую заданную мощность для режима таймеров
								cooler_data[2]=cooler_data[0];
    3302:	80 91 3a 05 	lds	r24, 0x053A
    3306:	90 91 3b 05 	lds	r25, 0x053B
    330a:	a0 91 3c 05 	lds	r26, 0x053C
    330e:	b0 91 3d 05 	lds	r27, 0x053D
    3312:	80 93 42 05 	sts	0x0542, r24
    3316:	90 93 43 05 	sts	0x0543, r25
    331a:	a0 93 44 05 	sts	0x0544, r26
    331e:	b0 93 45 05 	sts	0x0545, r27
    3322:	0c c0       	rjmp	.+24     	; 0x333c <main+0x884>
							}
							// мощность кулеров на максимум
							else cooler_data[0]=255;
    3324:	80 e0       	ldi	r24, 0x00	; 0
    3326:	90 e0       	ldi	r25, 0x00	; 0
    3328:	af e7       	ldi	r26, 0x7F	; 127
    332a:	b3 e4       	ldi	r27, 0x43	; 67
    332c:	80 93 3a 05 	sts	0x053A, r24
    3330:	90 93 3b 05 	sts	0x053B, r25
    3334:	a0 93 3c 05 	sts	0x053C, r26
    3338:	b0 93 3d 05 	sts	0x053D, r27
							OCR0=cooler_data[0]; // задать PWM
    333c:	60 91 3a 05 	lds	r22, 0x053A
    3340:	70 91 3b 05 	lds	r23, 0x053B
    3344:	80 91 3c 05 	lds	r24, 0x053C
    3348:	90 91 3d 05 	lds	r25, 0x053D
    334c:	0e 94 b7 2e 	call	0x5d6e	; 0x5d6e <__fixunssfsi>
    3350:	6c bf       	out	0x3c, r22	; 60
							cooler_chanel_status=0x32; // флаг - кулера в ручном режиме
    3352:	82 e3       	ldi	r24, 0x32	; 50
    3354:	80 93 3f 06 	sts	0x063F, r24
    3358:	07 c0       	rjmp	.+14     	; 0x3368 <main+0x8b0>
						}
						else 
						{
							// сбросить PWM
							OCR0=0; 
    335a:	1c be       	out	0x3c, r1	; 60
							cooler_start_pulse[0]=0;
    335c:	10 92 4a 05 	sts	0x054A, r1
							cooler_chanel_status=0;
    3360:	10 92 3f 06 	sts	0x063F, r1
							cooler_hand_start=0;
    3364:	10 92 05 05 	sts	0x0505, r1
						}
						
						// установить временные интервалы для подсветки ЖКИ и кулеров (числовое представление данных)
						lcd_led_stop=(((unsigned long)usart_data_in[14]-0x30)*10+((unsigned long)usart_data_in[15]-0x30))*10000;
    3368:	60 91 73 02 	lds	r22, 0x0273
    336c:	10 91 74 02 	lds	r17, 0x0274
    3370:	70 e0       	ldi	r23, 0x00	; 0
    3372:	80 e0       	ldi	r24, 0x00	; 0
    3374:	90 e0       	ldi	r25, 0x00	; 0
    3376:	2a e0       	ldi	r18, 0x0A	; 10
    3378:	30 e0       	ldi	r19, 0x00	; 0
    337a:	40 e0       	ldi	r20, 0x00	; 0
    337c:	50 e0       	ldi	r21, 0x00	; 0
    337e:	0e 94 f8 2f 	call	0x5ff0	; 0x5ff0 <__mulsi3>
    3382:	61 0f       	add	r22, r17
    3384:	71 1d       	adc	r23, r1
    3386:	81 1d       	adc	r24, r1
    3388:	91 1d       	adc	r25, r1
    338a:	20 e1       	ldi	r18, 0x10	; 16
    338c:	37 e2       	ldi	r19, 0x27	; 39
    338e:	40 e0       	ldi	r20, 0x00	; 0
    3390:	50 e0       	ldi	r21, 0x00	; 0
    3392:	0e 94 f8 2f 	call	0x5ff0	; 0x5ff0 <__mulsi3>
    3396:	60 50       	subi	r22, 0x00	; 0
    3398:	71 49       	sbci	r23, 0x91	; 145
    339a:	80 45       	sbci	r24, 0x50	; 80
    339c:	90 40       	sbci	r25, 0x00	; 0
    339e:	60 93 82 04 	sts	0x0482, r22
    33a2:	70 93 83 04 	sts	0x0483, r23
    33a6:	80 93 84 04 	sts	0x0484, r24
    33aa:	90 93 85 04 	sts	0x0485, r25
						lcd_led_start=(((unsigned long)usart_data_in[16]-0x30)*10+((unsigned long)usart_data_in[17]-0x30))*10000;
    33ae:	60 91 75 02 	lds	r22, 0x0275
    33b2:	10 91 76 02 	lds	r17, 0x0276
    33b6:	70 e0       	ldi	r23, 0x00	; 0
    33b8:	80 e0       	ldi	r24, 0x00	; 0
    33ba:	90 e0       	ldi	r25, 0x00	; 0
    33bc:	2a e0       	ldi	r18, 0x0A	; 10
    33be:	30 e0       	ldi	r19, 0x00	; 0
    33c0:	40 e0       	ldi	r20, 0x00	; 0
    33c2:	50 e0       	ldi	r21, 0x00	; 0
    33c4:	0e 94 f8 2f 	call	0x5ff0	; 0x5ff0 <__mulsi3>
    33c8:	61 0f       	add	r22, r17
    33ca:	71 1d       	adc	r23, r1
    33cc:	81 1d       	adc	r24, r1
    33ce:	91 1d       	adc	r25, r1
    33d0:	20 e1       	ldi	r18, 0x10	; 16
    33d2:	37 e2       	ldi	r19, 0x27	; 39
    33d4:	40 e0       	ldi	r20, 0x00	; 0
    33d6:	50 e0       	ldi	r21, 0x00	; 0
    33d8:	0e 94 f8 2f 	call	0x5ff0	; 0x5ff0 <__mulsi3>
    33dc:	60 50       	subi	r22, 0x00	; 0
    33de:	71 49       	sbci	r23, 0x91	; 145
    33e0:	80 45       	sbci	r24, 0x50	; 80
    33e2:	90 40       	sbci	r25, 0x00	; 0
    33e4:	60 93 7e 04 	sts	0x047E, r22
    33e8:	70 93 7f 04 	sts	0x047F, r23
    33ec:	80 93 80 04 	sts	0x0480, r24
    33f0:	90 93 81 04 	sts	0x0481, r25
						cooler_stop=(((unsigned long)usart_data_in[18]-0x30)*10+((unsigned long)usart_data_in[19]-0x30))*10000;
    33f4:	60 91 77 02 	lds	r22, 0x0277
    33f8:	10 91 78 02 	lds	r17, 0x0278
    33fc:	70 e0       	ldi	r23, 0x00	; 0
    33fe:	80 e0       	ldi	r24, 0x00	; 0
    3400:	90 e0       	ldi	r25, 0x00	; 0
    3402:	2a e0       	ldi	r18, 0x0A	; 10
    3404:	30 e0       	ldi	r19, 0x00	; 0
    3406:	40 e0       	ldi	r20, 0x00	; 0
    3408:	50 e0       	ldi	r21, 0x00	; 0
    340a:	0e 94 f8 2f 	call	0x5ff0	; 0x5ff0 <__mulsi3>
    340e:	61 0f       	add	r22, r17
    3410:	71 1d       	adc	r23, r1
    3412:	81 1d       	adc	r24, r1
    3414:	91 1d       	adc	r25, r1
    3416:	20 e1       	ldi	r18, 0x10	; 16
    3418:	37 e2       	ldi	r19, 0x27	; 39
    341a:	40 e0       	ldi	r20, 0x00	; 0
    341c:	50 e0       	ldi	r21, 0x00	; 0
    341e:	0e 94 f8 2f 	call	0x5ff0	; 0x5ff0 <__mulsi3>
    3422:	60 50       	subi	r22, 0x00	; 0
    3424:	71 49       	sbci	r23, 0x91	; 145
    3426:	80 45       	sbci	r24, 0x50	; 80
    3428:	90 40       	sbci	r25, 0x00	; 0
    342a:	60 93 8a 04 	sts	0x048A, r22
    342e:	70 93 8b 04 	sts	0x048B, r23
    3432:	80 93 8c 04 	sts	0x048C, r24
    3436:	90 93 8d 04 	sts	0x048D, r25
						cooler_start=(((unsigned long)usart_data_in[20]-0x30)*10+((unsigned long)usart_data_in[21]-0x30))*10000;	
    343a:	60 91 79 02 	lds	r22, 0x0279
    343e:	10 91 7a 02 	lds	r17, 0x027A
    3442:	70 e0       	ldi	r23, 0x00	; 0
    3444:	80 e0       	ldi	r24, 0x00	; 0
    3446:	90 e0       	ldi	r25, 0x00	; 0
    3448:	2a e0       	ldi	r18, 0x0A	; 10
    344a:	30 e0       	ldi	r19, 0x00	; 0
    344c:	40 e0       	ldi	r20, 0x00	; 0
    344e:	50 e0       	ldi	r21, 0x00	; 0
    3450:	0e 94 f8 2f 	call	0x5ff0	; 0x5ff0 <__mulsi3>
    3454:	61 0f       	add	r22, r17
    3456:	71 1d       	adc	r23, r1
    3458:	81 1d       	adc	r24, r1
    345a:	91 1d       	adc	r25, r1
    345c:	20 e1       	ldi	r18, 0x10	; 16
    345e:	37 e2       	ldi	r19, 0x27	; 39
    3460:	40 e0       	ldi	r20, 0x00	; 0
    3462:	50 e0       	ldi	r21, 0x00	; 0
    3464:	0e 94 f8 2f 	call	0x5ff0	; 0x5ff0 <__mulsi3>
    3468:	60 50       	subi	r22, 0x00	; 0
    346a:	71 49       	sbci	r23, 0x91	; 145
    346c:	80 45       	sbci	r24, 0x50	; 80
    346e:	90 40       	sbci	r25, 0x00	; 0
    3470:	60 93 86 04 	sts	0x0486, r22
    3474:	70 93 87 04 	sts	0x0487, r23
    3478:	80 93 88 04 	sts	0x0488, r24
    347c:	90 93 89 04 	sts	0x0489, r25
    3480:	b4 c5       	rjmp	.+2920   	; 0x3fea <main+0x1532>
					}break;
					
					case 0x02: // синхронизация часов DS1307N с ПК
					{
						// получение времени с ПК
						buffer_time[0]=(usart_data_in[2]-0x30)*10+(usart_data_in[3]-0x30); // часы
    3482:	80 91 67 02 	lds	r24, 0x0267
    3486:	20 91 68 02 	lds	r18, 0x0268
    348a:	20 51       	subi	r18, 0x10	; 16
    348c:	3a e0       	ldi	r19, 0x0A	; 10
    348e:	83 9f       	mul	r24, r19
    3490:	c0 01       	movw	r24, r0
    3492:	11 24       	eor	r1, r1
    3494:	28 0f       	add	r18, r24
    3496:	20 93 4d 06 	sts	0x064D, r18
						buffer_time[1]=(usart_data_in[4]-0x30)*10+(usart_data_in[5]-0x30); // минуты
    349a:	80 91 69 02 	lds	r24, 0x0269
    349e:	20 91 6a 02 	lds	r18, 0x026A
    34a2:	20 51       	subi	r18, 0x10	; 16
    34a4:	83 9f       	mul	r24, r19
    34a6:	c0 01       	movw	r24, r0
    34a8:	11 24       	eor	r1, r1
    34aa:	28 0f       	add	r18, r24
    34ac:	20 93 4e 06 	sts	0x064E, r18
						buffer_time[2]=(usart_data_in[6]-0x30)*10+(usart_data_in[7]-0x30); // секунды
    34b0:	80 91 6b 02 	lds	r24, 0x026B
    34b4:	20 91 6c 02 	lds	r18, 0x026C
    34b8:	20 51       	subi	r18, 0x10	; 16
    34ba:	83 9f       	mul	r24, r19
    34bc:	c0 01       	movw	r24, r0
    34be:	11 24       	eor	r1, r1
    34c0:	28 0f       	add	r18, r24
    34c2:	20 93 4f 06 	sts	0x064F, r18
						
						DS1307_set_time(); // запись в часы
    34c6:	0e 94 54 03 	call	0x6a8	; 0x6a8 <DS1307_set_time>
						if(usart_data_in[8]==0xb3) 
    34ca:	80 91 6d 02 	lds	r24, 0x026D
    34ce:	83 3b       	cpi	r24, 0xB3	; 179
    34d0:	09 f0       	breq	.+2      	; 0x34d4 <main+0xa1c>
    34d2:	8b c5       	rjmp	.+2838   	; 0x3fea <main+0x1532>
						{
							// выйти из обработки
							usart_data_in[8]=0x00; 
    34d4:	10 92 6d 02 	sts	0x026D, r1
    34d8:	86 c5       	rjmp	.+2828   	; 0x3fe6 <main+0x152e>
						}
					}break;
					
					case 0x13: // сохранить настройки в EEPROM
					{
						eeprom_count=0;
    34da:	10 92 42 06 	sts	0x0642, r1
						EEPROM_WRITE=1;
    34de:	81 e0       	ldi	r24, 0x01	; 1
    34e0:	80 93 43 06 	sts	0x0643, r24
    34e4:	3d c4       	rjmp	.+2170   	; 0x3d60 <main+0x12a8>
					
					// ----- данные вкладки <Режимы/События> AquaControl ----- //
					
					case 0x03: // установить температурный режим
					{
						temp_control=1; // флаг - установить температурный режим
    34e6:	81 e0       	ldi	r24, 0x01	; 1
    34e8:	80 93 e8 04 	sts	0x04E8, r24
						// получение данных режима 
						set_temp_sensor=usart_data_in[2]-0x30; // выбор датчика 
    34ec:	80 91 67 02 	lds	r24, 0x0267
    34f0:	80 53       	subi	r24, 0x30	; 48
    34f2:	80 93 96 04 	sts	0x0496, r24
						set_temp=((usart_data_in[3]-0x30)*10+(usart_data_in[4]-0x30))*10; // заданная температура
    34f6:	80 91 68 02 	lds	r24, 0x0268
    34fa:	20 91 69 02 	lds	r18, 0x0269
    34fe:	e4 e6       	ldi	r30, 0x64	; 100
    3500:	8e 9f       	mul	r24, r30
    3502:	c0 01       	movw	r24, r0
    3504:	11 24       	eor	r1, r1
    3506:	fa e0       	ldi	r31, 0x0A	; 10
    3508:	2f 9f       	mul	r18, r31
    350a:	90 01       	movw	r18, r0
    350c:	11 24       	eor	r1, r1
    350e:	82 0f       	add	r24, r18
    3510:	93 1f       	adc	r25, r19
    3512:	80 5a       	subi	r24, 0xA0	; 160
    3514:	94 41       	sbci	r25, 0x14	; 20
    3516:	90 93 61 00 	sts	0x0061, r25
    351a:	80 93 60 00 	sts	0x0060, r24
						set_temp_dec=usart_data_in[5]-0x30; // порог срабатывания 
    351e:	80 91 6a 02 	lds	r24, 0x026A
    3522:	80 53       	subi	r24, 0x30	; 48
    3524:	80 93 64 00 	sts	0x0064, r24
						cooler_set=((usart_data_in[6]-0x30)*100+(usart_data_in[7]-0x30)*10+(usart_data_in[8]-0x30))*2.55; // мошность кулеров
    3528:	20 91 6b 02 	lds	r18, 0x026B
    352c:	40 91 6c 02 	lds	r20, 0x026C
    3530:	60 91 6d 02 	lds	r22, 0x026D
    3534:	70 e0       	ldi	r23, 0x00	; 0
    3536:	60 5d       	subi	r22, 0xD0	; 208
    3538:	74 41       	sbci	r23, 0x14	; 20
    353a:	2e 9f       	mul	r18, r30
    353c:	90 01       	movw	r18, r0
    353e:	11 24       	eor	r1, r1
    3540:	62 0f       	add	r22, r18
    3542:	73 1f       	adc	r23, r19
    3544:	4f 9f       	mul	r20, r31
    3546:	a0 01       	movw	r20, r0
    3548:	11 24       	eor	r1, r1
    354a:	64 0f       	add	r22, r20
    354c:	75 1f       	adc	r23, r21
    354e:	88 27       	eor	r24, r24
    3550:	77 fd       	sbrc	r23, 7
    3552:	80 95       	com	r24
    3554:	98 2f       	mov	r25, r24
    3556:	0e 94 e5 2e 	call	0x5dca	; 0x5dca <__floatsisf>
    355a:	23 e3       	ldi	r18, 0x33	; 51
    355c:	33 e3       	ldi	r19, 0x33	; 51
    355e:	43 e2       	ldi	r20, 0x23	; 35
    3560:	50 e4       	ldi	r21, 0x40	; 64
    3562:	0e 94 95 2f 	call	0x5f2a	; 0x5f2a <__mulsf3>
    3566:	0e 94 b7 2e 	call	0x5d6e	; 0x5d6e <__fixunssfsi>
    356a:	70 93 63 00 	sts	0x0063, r23
    356e:	60 93 62 00 	sts	0x0062, r22
						if(usart_data_in[9]==0xb3) 
    3572:	80 91 6e 02 	lds	r24, 0x026E
    3576:	83 3b       	cpi	r24, 0xB3	; 179
    3578:	09 f0       	breq	.+2      	; 0x357c <main+0xac4>
    357a:	37 c5       	rjmp	.+2670   	; 0x3fea <main+0x1532>
						{
							// выйти из обработки
							usart_data_in[9]=0x00; 
    357c:	10 92 6e 02 	sts	0x026E, r1
    3580:	32 c5       	rjmp	.+2660   	; 0x3fe6 <main+0x152e>
						}
					}break;
					
					case 0x04: // отключить температурный режим 
					{
						temp_control=2; // флаг - отключить температурный режим
    3582:	82 e0       	ldi	r24, 0x02	; 2
    3584:	80 93 e8 04 	sts	0x04E8, r24
						// сбросить переменные
						cooler=0; // кулера
    3588:	10 92 ed 04 	sts	0x04ED, r1
						heater=0; // нагреватель
    358c:	10 92 ec 04 	sts	0x04EC, r1
						cooler_start_pulse[1]=0; // стартовый импульс
    3590:	10 92 4b 05 	sts	0x054B, r1
    3594:	e5 c3       	rjmp	.+1994   	; 0x3d60 <main+0x12a8>
						}
					}break;
					
					case 0x06: // установить режим продувки крышки
					{
						produv=1; // флаг - продувать крышку
    3596:	81 e0       	ldi	r24, 0x01	; 1
    3598:	80 93 e9 04 	sts	0x04E9, r24
						// получение времени продувки
						timer_produv_time=(((unsigned long)usart_data_in[2]-0x30)*10+((unsigned long)usart_data_in[3]-0x30))*100
    359c:	e0 90 67 02 	lds	r14, 0x0267
    35a0:	d0 90 68 02 	lds	r13, 0x0268
    35a4:	60 91 69 02 	lds	r22, 0x0269
    35a8:	80 91 6a 02 	lds	r24, 0x026A
    35ac:	68 2e       	mov	r6, r24
    35ae:	77 24       	eor	r7, r7
    35b0:	88 24       	eor	r8, r8
    35b2:	99 24       	eor	r9, r9
    35b4:	80 eb       	ldi	r24, 0xB0	; 176
    35b6:	9f e2       	ldi	r25, 0x2F	; 47
    35b8:	af ef       	ldi	r26, 0xFF	; 255
    35ba:	bf ef       	ldi	r27, 0xFF	; 255
    35bc:	68 0e       	add	r6, r24
    35be:	79 1e       	adc	r7, r25
    35c0:	8a 1e       	adc	r8, r26
    35c2:	9b 1e       	adc	r9, r27
    35c4:	70 e0       	ldi	r23, 0x00	; 0
    35c6:	80 e0       	ldi	r24, 0x00	; 0
    35c8:	90 e0       	ldi	r25, 0x00	; 0
    35ca:	2a e0       	ldi	r18, 0x0A	; 10
    35cc:	30 e0       	ldi	r19, 0x00	; 0
    35ce:	40 e0       	ldi	r20, 0x00	; 0
    35d0:	50 e0       	ldi	r21, 0x00	; 0
    35d2:	0e 94 f8 2f 	call	0x5ff0	; 0x5ff0 <__mulsi3>
    35d6:	66 0e       	add	r6, r22
    35d8:	77 1e       	adc	r7, r23
    35da:	88 1e       	adc	r8, r24
    35dc:	99 1e       	adc	r9, r25
    35de:	ff 24       	eor	r15, r15
    35e0:	00 e0       	ldi	r16, 0x00	; 0
    35e2:	10 e0       	ldi	r17, 0x00	; 0
    35e4:	c8 01       	movw	r24, r16
    35e6:	b7 01       	movw	r22, r14
    35e8:	0e 94 f8 2f 	call	0x5ff0	; 0x5ff0 <__mulsi3>
    35ec:	6d 0d       	add	r22, r13
    35ee:	71 1d       	adc	r23, r1
    35f0:	81 1d       	adc	r24, r1
    35f2:	91 1d       	adc	r25, r1
    35f4:	24 e6       	ldi	r18, 0x64	; 100
    35f6:	30 e0       	ldi	r19, 0x00	; 0
    35f8:	40 e0       	ldi	r20, 0x00	; 0
    35fa:	50 e0       	ldi	r21, 0x00	; 0
    35fc:	0e 94 f8 2f 	call	0x5ff0	; 0x5ff0 <__mulsi3>
    3600:	66 0e       	add	r6, r22
    3602:	77 1e       	adc	r7, r23
    3604:	88 1e       	adc	r8, r24
    3606:	99 1e       	adc	r9, r25
    3608:	60 92 79 04 	sts	0x0479, r6
    360c:	70 92 7a 04 	sts	0x047A, r7
    3610:	80 92 7b 04 	sts	0x047B, r8
    3614:	90 92 7c 04 	sts	0x047C, r9
										+((unsigned long)usart_data_in[4]-0x30)*10+((unsigned long)usart_data_in[5]-0x30);
						// получение периода включения продувки
						timer_produv_period=usart_data_in[6]-0x30;
    3618:	80 91 6b 02 	lds	r24, 0x026B
    361c:	80 53       	subi	r24, 0x30	; 48
    361e:	80 93 7d 04 	sts	0x047D, r24
						// получение минимального значения мощности кулеров
						cooler_min=((usart_data_in[7]-0x30)*100+(usart_data_in[8]-0x30)*10+(usart_data_in[9]-0x30))*2.55;
    3622:	20 91 6c 02 	lds	r18, 0x026C
    3626:	e0 91 6d 02 	lds	r30, 0x026D
    362a:	60 91 6e 02 	lds	r22, 0x026E
    362e:	70 e0       	ldi	r23, 0x00	; 0
    3630:	60 5d       	subi	r22, 0xD0	; 208
    3632:	74 41       	sbci	r23, 0x14	; 20
    3634:	44 e6       	ldi	r20, 0x64	; 100
    3636:	24 9f       	mul	r18, r20
    3638:	90 01       	movw	r18, r0
    363a:	11 24       	eor	r1, r1
    363c:	62 0f       	add	r22, r18
    363e:	73 1f       	adc	r23, r19
    3640:	2a e0       	ldi	r18, 0x0A	; 10
    3642:	e2 9f       	mul	r30, r18
    3644:	f0 01       	movw	r30, r0
    3646:	11 24       	eor	r1, r1
    3648:	6e 0f       	add	r22, r30
    364a:	7f 1f       	adc	r23, r31
    364c:	88 27       	eor	r24, r24
    364e:	77 fd       	sbrc	r23, 7
    3650:	80 95       	com	r24
    3652:	98 2f       	mov	r25, r24
    3654:	0e 94 e5 2e 	call	0x5dca	; 0x5dca <__floatsisf>
    3658:	23 e3       	ldi	r18, 0x33	; 51
    365a:	33 e3       	ldi	r19, 0x33	; 51
    365c:	43 e2       	ldi	r20, 0x23	; 35
    365e:	50 e4       	ldi	r21, 0x40	; 64
    3660:	0e 94 95 2f 	call	0x5f2a	; 0x5f2a <__mulsf3>
    3664:	60 93 75 04 	sts	0x0475, r22
    3668:	70 93 76 04 	sts	0x0476, r23
    366c:	80 93 77 04 	sts	0x0477, r24
    3670:	90 93 78 04 	sts	0x0478, r25
						if(usart_data_in[10]==0xb3) 
    3674:	80 91 6f 02 	lds	r24, 0x026F
    3678:	83 3b       	cpi	r24, 0xB3	; 179
    367a:	09 f0       	breq	.+2      	; 0x367e <main+0xbc6>
    367c:	b6 c4       	rjmp	.+2412   	; 0x3fea <main+0x1532>
						{
							// выйти из обработки
							usart_data_in[10]=0x00; 
    367e:	10 92 6f 02 	sts	0x026F, r1
    3682:	b1 c4       	rjmp	.+2402   	; 0x3fe6 <main+0x152e>
						}
					}break;
					
					case 0x07: // отключить режим продувки крышки
					{
						produv=2; // флаг - отключить продувку крышки
    3684:	82 e0       	ldi	r24, 0x02	; 2
    3686:	80 93 e9 04 	sts	0x04E9, r24
						cooler_start_pulse[3]=0; // сбросить стартовый импульс
    368a:	10 92 4d 05 	sts	0x054D, r1
    368e:	68 c3       	rjmp	.+1744   	; 0x3d60 <main+0x12a8>
						}
					}break;
					
					case 0x11: // установить режим СО2/РН
					{
						co2=1; // флаг - установить режим CO2/PH
    3690:	81 e0       	ldi	r24, 0x01	; 1
    3692:	80 93 ee 04 	sts	0x04EE, r24
						// получить данные режима
						// порог включения СО2
						ph_high=(usart_data_in[2]-0x30)*100+(usart_data_in[3]-0x30)*10+(usart_data_in[4]-0x30);
    3696:	20 91 67 02 	lds	r18, 0x0267
    369a:	40 91 68 02 	lds	r20, 0x0268
    369e:	80 91 69 02 	lds	r24, 0x0269
    36a2:	90 e0       	ldi	r25, 0x00	; 0
    36a4:	80 5d       	subi	r24, 0xD0	; 208
    36a6:	94 41       	sbci	r25, 0x14	; 20
    36a8:	74 e6       	ldi	r23, 0x64	; 100
    36aa:	27 9f       	mul	r18, r23
    36ac:	90 01       	movw	r18, r0
    36ae:	11 24       	eor	r1, r1
    36b0:	82 0f       	add	r24, r18
    36b2:	93 1f       	adc	r25, r19
    36b4:	6a e0       	ldi	r22, 0x0A	; 10
    36b6:	46 9f       	mul	r20, r22
    36b8:	a0 01       	movw	r20, r0
    36ba:	11 24       	eor	r1, r1
    36bc:	84 0f       	add	r24, r20
    36be:	95 1f       	adc	r25, r21
    36c0:	90 93 72 04 	sts	0x0472, r25
    36c4:	80 93 71 04 	sts	0x0471, r24
						// порог отключения СО2
						ph_low=(usart_data_in[5]-0x30)*100+(usart_data_in[6]-0x30)*10+(usart_data_in[7]-0x30);
    36c8:	20 91 6a 02 	lds	r18, 0x026A
    36cc:	40 91 6b 02 	lds	r20, 0x026B
    36d0:	80 91 6c 02 	lds	r24, 0x026C
    36d4:	90 e0       	ldi	r25, 0x00	; 0
    36d6:	80 5d       	subi	r24, 0xD0	; 208
    36d8:	94 41       	sbci	r25, 0x14	; 20
    36da:	27 9f       	mul	r18, r23
    36dc:	90 01       	movw	r18, r0
    36de:	11 24       	eor	r1, r1
    36e0:	82 0f       	add	r24, r18
    36e2:	93 1f       	adc	r25, r19
    36e4:	46 9f       	mul	r20, r22
    36e6:	a0 01       	movw	r20, r0
    36e8:	11 24       	eor	r1, r1
    36ea:	84 0f       	add	r24, r20
    36ec:	95 1f       	adc	r25, r21
    36ee:	90 93 74 04 	sts	0x0474, r25
    36f2:	80 93 73 04 	sts	0x0473, r24
						// временные ограничения СО2
						co2_stop=(((unsigned long)usart_data_in[8]-0x30)*10+((unsigned long)usart_data_in[9]-0x30))*10000;
    36f6:	60 91 6d 02 	lds	r22, 0x026D
    36fa:	10 91 6e 02 	lds	r17, 0x026E
    36fe:	70 e0       	ldi	r23, 0x00	; 0
    3700:	80 e0       	ldi	r24, 0x00	; 0
    3702:	90 e0       	ldi	r25, 0x00	; 0
    3704:	2a e0       	ldi	r18, 0x0A	; 10
    3706:	30 e0       	ldi	r19, 0x00	; 0
    3708:	40 e0       	ldi	r20, 0x00	; 0
    370a:	50 e0       	ldi	r21, 0x00	; 0
    370c:	0e 94 f8 2f 	call	0x5ff0	; 0x5ff0 <__mulsi3>
    3710:	61 0f       	add	r22, r17
    3712:	71 1d       	adc	r23, r1
    3714:	81 1d       	adc	r24, r1
    3716:	91 1d       	adc	r25, r1
    3718:	20 e1       	ldi	r18, 0x10	; 16
    371a:	37 e2       	ldi	r19, 0x27	; 39
    371c:	40 e0       	ldi	r20, 0x00	; 0
    371e:	50 e0       	ldi	r21, 0x00	; 0
    3720:	0e 94 f8 2f 	call	0x5ff0	; 0x5ff0 <__mulsi3>
    3724:	60 50       	subi	r22, 0x00	; 0
    3726:	71 49       	sbci	r23, 0x91	; 145
    3728:	80 45       	sbci	r24, 0x50	; 80
    372a:	90 40       	sbci	r25, 0x00	; 0
    372c:	60 93 92 04 	sts	0x0492, r22
    3730:	70 93 93 04 	sts	0x0493, r23
    3734:	80 93 94 04 	sts	0x0494, r24
    3738:	90 93 95 04 	sts	0x0495, r25
						co2_start=(((unsigned long)usart_data_in[10]-0x30)*10+((unsigned long)usart_data_in[11]-0x30))*10000;
    373c:	60 91 6f 02 	lds	r22, 0x026F
    3740:	10 91 70 02 	lds	r17, 0x0270
    3744:	70 e0       	ldi	r23, 0x00	; 0
    3746:	80 e0       	ldi	r24, 0x00	; 0
    3748:	90 e0       	ldi	r25, 0x00	; 0
    374a:	2a e0       	ldi	r18, 0x0A	; 10
    374c:	30 e0       	ldi	r19, 0x00	; 0
    374e:	40 e0       	ldi	r20, 0x00	; 0
    3750:	50 e0       	ldi	r21, 0x00	; 0
    3752:	0e 94 f8 2f 	call	0x5ff0	; 0x5ff0 <__mulsi3>
    3756:	61 0f       	add	r22, r17
    3758:	71 1d       	adc	r23, r1
    375a:	81 1d       	adc	r24, r1
    375c:	91 1d       	adc	r25, r1
    375e:	20 e1       	ldi	r18, 0x10	; 16
    3760:	37 e2       	ldi	r19, 0x27	; 39
    3762:	40 e0       	ldi	r20, 0x00	; 0
    3764:	50 e0       	ldi	r21, 0x00	; 0
    3766:	0e 94 f8 2f 	call	0x5ff0	; 0x5ff0 <__mulsi3>
    376a:	60 50       	subi	r22, 0x00	; 0
    376c:	71 49       	sbci	r23, 0x91	; 145
    376e:	80 45       	sbci	r24, 0x50	; 80
    3770:	90 40       	sbci	r25, 0x00	; 0
    3772:	60 93 8e 04 	sts	0x048E, r22
    3776:	70 93 8f 04 	sts	0x048F, r23
    377a:	80 93 90 04 	sts	0x0490, r24
    377e:	90 93 91 04 	sts	0x0491, r25
						if(usart_data_in[12]==0xb3) 
    3782:	80 91 71 02 	lds	r24, 0x0271
    3786:	83 3b       	cpi	r24, 0xB3	; 179
    3788:	09 f0       	breq	.+2      	; 0x378c <main+0xcd4>
    378a:	2f c4       	rjmp	.+2142   	; 0x3fea <main+0x1532>
						{
							// выйти из обработки
							usart_data_in[12]=0x00; 
    378c:	10 92 71 02 	sts	0x0271, r1
    3790:	2a c4       	rjmp	.+2132   	; 0x3fe6 <main+0x152e>
						}
					}break;
					
					case 0x12: // отключить режим СО2/РН
					{
						co2=0; // флаг - отключить режим СО2/РН
    3792:	10 92 ee 04 	sts	0x04EE, r1
						// если канал не задан таймерами - отключить электроклапан
						if(co2_timer_status==0) RELE_PORT_2&=~RELE_7;
    3796:	80 91 3b 06 	lds	r24, 0x063B
    379a:	88 23       	and	r24, r24
    379c:	09 f0       	breq	.+2      	; 0x37a0 <main+0xce8>
    379e:	e0 c2       	rjmp	.+1472   	; 0x3d60 <main+0x12a8>
    37a0:	aa 98       	cbi	0x15, 2	; 21
    37a2:	de c2       	rjmp	.+1468   	; 0x3d60 <main+0x12a8>
						}
					}break;
					
					case 0x15: // установить режим автоматического долива воды
					{
						doliv=1; // флаг - установить автодолив
    37a4:	81 e0       	ldi	r24, 0x01	; 1
    37a6:	80 93 fa 04 	sts	0x04FA, r24
						water_lvl_last=water_lvl; // обновить предыдущее значение уровня воды
    37aa:	80 91 20 05 	lds	r24, 0x0520
    37ae:	90 91 21 05 	lds	r25, 0x0521
    37b2:	90 93 23 05 	sts	0x0523, r25
    37b6:	80 93 22 05 	sts	0x0522, r24
						WATER_ERROR_POMPA=0;
    37ba:	10 92 01 05 	sts	0x0501, r1
    37be:	d0 c2       	rjmp	.+1440   	; 0x3d60 <main+0x12a8>
						}
					}break;
					
					case 0x16: // отключить режим автоматического долива воды
					{
						pompa=0;
    37c0:	10 92 fb 04 	sts	0x04FB, r1
						doliv=2; // флаг - отключить автодолив
    37c4:	82 e0       	ldi	r24, 0x02	; 2
    37c6:	80 93 fa 04 	sts	0x04FA, r24
    37ca:	ca c2       	rjmp	.+1428   	; 0x3d60 <main+0x12a8>
						}
					}break;
					
					case 0x17: // установить порог 1 датчика автодолива
					{
						doliv_porog1=water_lvl; // считать значение
    37cc:	80 91 20 05 	lds	r24, 0x0520
    37d0:	90 91 21 05 	lds	r25, 0x0521
    37d4:	90 93 fd 04 	sts	0x04FD, r25
    37d8:	80 93 fc 04 	sts	0x04FC, r24
    37dc:	c1 c2       	rjmp	.+1410   	; 0x3d60 <main+0x12a8>
						}
					}break;
					
					case 0x18: // установить порог 2 датчика автодолива
					{
						doliv_porog2=water_lvl; // считать значение
    37de:	80 91 20 05 	lds	r24, 0x0520
    37e2:	90 91 21 05 	lds	r25, 0x0521
    37e6:	90 93 ff 04 	sts	0x04FF, r25
    37ea:	80 93 fe 04 	sts	0x04FE, r24
    37ee:	b8 c2       	rjmp	.+1392   	; 0x3d60 <main+0x12a8>
						}
					}break;
					
					case 0x19: // передача текущих данных исполняемых режимов
					{
						events_data_to_uart(); // отправить значения
    37f0:	0e 94 ac 0c 	call	0x1958	; 0x1958 <events_data_to_uart>
    37f4:	b5 c2       	rjmp	.+1386   	; 0x3d60 <main+0x12a8>
						if(usart_data_in[2]==0xb3) 
						{
							// выйти из обработки
							usart_data_in[2]=0x00; 
							usart_data_in[1]=0x00; 
    37f6:	1d 8a       	std	Y+21, r1	; 0x15
    37f8:	1c 8a       	std	Y+20, r1	; 0x14
    37fa:	1b 8a       	std	Y+19, r1	; 0x13
    37fc:	1a 8a       	std	Y+18, r1	; 0x12
					case 0x05: // установить значение таймеров
					{
						for(int i=0;i<9;i++) // для 9 каналов (включая PWM-канал)
						{
							// значения времени преобразуются в числовое значение
							timer1_start[i]=(((unsigned long)usart_data_in[2+36*i]-0x30)*10+((unsigned long)usart_data_in[3+36*i]-0x30))*10000
    37fe:	ea 89       	ldd	r30, Y+18	; 0x12
    3800:	fb 89       	ldd	r31, Y+19	; 0x13
    3802:	e9 59       	subi	r30, 0x99	; 153
    3804:	fd 4f       	sbci	r31, 0xFD	; 253
    3806:	e0 80       	ld	r14, Z
    3808:	ea 89       	ldd	r30, Y+18	; 0x12
    380a:	fb 89       	ldd	r31, Y+19	; 0x13
    380c:	e8 59       	subi	r30, 0x98	; 152
    380e:	fd 4f       	sbci	r31, 0xFD	; 253
    3810:	90 80       	ld	r9, Z
    3812:	ea 89       	ldd	r30, Y+18	; 0x12
    3814:	fb 89       	ldd	r31, Y+19	; 0x13
    3816:	e7 59       	subi	r30, 0x97	; 151
    3818:	fd 4f       	sbci	r31, 0xFD	; 253
    381a:	a0 80       	ld	r10, Z
    381c:	ea 89       	ldd	r30, Y+18	; 0x12
    381e:	fb 89       	ldd	r31, Y+19	; 0x13
    3820:	e6 59       	subi	r30, 0x96	; 150
    3822:	fd 4f       	sbci	r31, 0xFD	; 253
    3824:	80 80       	ld	r8, Z
    3826:	ea 89       	ldd	r30, Y+18	; 0x12
    3828:	fb 89       	ldd	r31, Y+19	; 0x13
    382a:	e5 59       	subi	r30, 0x95	; 149
    382c:	fd 4f       	sbci	r31, 0xFD	; 253
    382e:	60 81       	ld	r22, Z
    3830:	ea 89       	ldd	r30, Y+18	; 0x12
    3832:	fb 89       	ldd	r31, Y+19	; 0x13
    3834:	e4 59       	subi	r30, 0x94	; 148
    3836:	fd 4f       	sbci	r31, 0xFD	; 253
    3838:	e0 81       	ld	r30, Z
    383a:	4e 2e       	mov	r4, r30
    383c:	55 24       	eor	r5, r5
    383e:	66 24       	eor	r6, r6
    3840:	77 24       	eor	r7, r7
    3842:	20 eb       	ldi	r18, 0xB0	; 176
    3844:	3e e9       	ldi	r19, 0x9E	; 158
    3846:	4e ea       	ldi	r20, 0xAE	; 174
    3848:	5f ef       	ldi	r21, 0xFF	; 255
    384a:	42 0e       	add	r4, r18
    384c:	53 1e       	adc	r5, r19
    384e:	64 1e       	adc	r6, r20
    3850:	75 1e       	adc	r7, r21
    3852:	70 e0       	ldi	r23, 0x00	; 0
    3854:	80 e0       	ldi	r24, 0x00	; 0
    3856:	90 e0       	ldi	r25, 0x00	; 0
    3858:	2a e0       	ldi	r18, 0x0A	; 10
    385a:	30 e0       	ldi	r19, 0x00	; 0
    385c:	40 e0       	ldi	r20, 0x00	; 0
    385e:	50 e0       	ldi	r21, 0x00	; 0
    3860:	0e 94 f8 2f 	call	0x5ff0	; 0x5ff0 <__mulsi3>
    3864:	46 0e       	add	r4, r22
    3866:	57 1e       	adc	r5, r23
    3868:	68 1e       	adc	r6, r24
    386a:	79 1e       	adc	r7, r25
    386c:	ff 24       	eor	r15, r15
    386e:	00 e0       	ldi	r16, 0x00	; 0
    3870:	10 e0       	ldi	r17, 0x00	; 0
    3872:	c8 01       	movw	r24, r16
    3874:	b7 01       	movw	r22, r14
    3876:	0e 94 f8 2f 	call	0x5ff0	; 0x5ff0 <__mulsi3>
    387a:	69 0d       	add	r22, r9
    387c:	71 1d       	adc	r23, r1
    387e:	81 1d       	adc	r24, r1
    3880:	91 1d       	adc	r25, r1
    3882:	20 e1       	ldi	r18, 0x10	; 16
    3884:	37 e2       	ldi	r19, 0x27	; 39
    3886:	40 e0       	ldi	r20, 0x00	; 0
    3888:	50 e0       	ldi	r21, 0x00	; 0
    388a:	0e 94 f8 2f 	call	0x5ff0	; 0x5ff0 <__mulsi3>
    388e:	46 0e       	add	r4, r22
    3890:	57 1e       	adc	r5, r23
    3892:	68 1e       	adc	r6, r24
    3894:	79 1e       	adc	r7, r25
    3896:	bb 24       	eor	r11, r11
    3898:	cc 24       	eor	r12, r12
    389a:	dd 24       	eor	r13, r13
    389c:	c6 01       	movw	r24, r12
    389e:	b5 01       	movw	r22, r10
    38a0:	2a e0       	ldi	r18, 0x0A	; 10
    38a2:	30 e0       	ldi	r19, 0x00	; 0
    38a4:	40 e0       	ldi	r20, 0x00	; 0
    38a6:	50 e0       	ldi	r21, 0x00	; 0
    38a8:	0e 94 f8 2f 	call	0x5ff0	; 0x5ff0 <__mulsi3>
    38ac:	68 0d       	add	r22, r8
    38ae:	71 1d       	adc	r23, r1
    38b0:	81 1d       	adc	r24, r1
    38b2:	91 1d       	adc	r25, r1
    38b4:	24 e6       	ldi	r18, 0x64	; 100
    38b6:	30 e0       	ldi	r19, 0x00	; 0
    38b8:	40 e0       	ldi	r20, 0x00	; 0
    38ba:	50 e0       	ldi	r21, 0x00	; 0
    38bc:	0e 94 f8 2f 	call	0x5ff0	; 0x5ff0 <__mulsi3>
    38c0:	46 0e       	add	r4, r22
    38c2:	57 1e       	adc	r5, r23
    38c4:	68 1e       	adc	r6, r24
    38c6:	79 1e       	adc	r7, r25
    38c8:	8c 88       	ldd	r8, Y+20	; 0x14
    38ca:	9d 88       	ldd	r9, Y+21	; 0x15
    38cc:	88 0c       	add	r8, r8
    38ce:	99 1c       	adc	r9, r9
    38d0:	88 0c       	add	r8, r8
    38d2:	99 1c       	adc	r9, r9
    38d4:	f4 01       	movw	r30, r8
    38d6:	e1 5b       	subi	r30, 0xB1	; 177
    38d8:	fa 4f       	sbci	r31, 0xFA	; 250
    38da:	40 82       	st	Z, r4
    38dc:	51 82       	std	Z+1, r5	; 0x01
    38de:	62 82       	std	Z+2, r6	; 0x02
    38e0:	73 82       	std	Z+3, r7	; 0x03
										+(((unsigned long)usart_data_in[4+36*i]-0x30)*10+((unsigned long)usart_data_in[5+36*i]-0x30))*100
										+(((unsigned long)usart_data_in[6+36*i]-0x30)*10+((unsigned long)usart_data_in[7+36*i]-0x30));
							timer1_stop[i]=(((unsigned long)usart_data_in[8+36*i]-0x30)*10+((unsigned long)usart_data_in[9+36*i]-0x30))*10000
    38e2:	ea 89       	ldd	r30, Y+18	; 0x12
    38e4:	fb 89       	ldd	r31, Y+19	; 0x13
    38e6:	e3 59       	subi	r30, 0x93	; 147
    38e8:	fd 4f       	sbci	r31, 0xFD	; 253
    38ea:	e0 80       	ld	r14, Z
    38ec:	ea 89       	ldd	r30, Y+18	; 0x12
    38ee:	fb 89       	ldd	r31, Y+19	; 0x13
    38f0:	e2 59       	subi	r30, 0x92	; 146
    38f2:	fd 4f       	sbci	r31, 0xFD	; 253
    38f4:	70 80       	ld	r7, Z
    38f6:	ea 89       	ldd	r30, Y+18	; 0x12
    38f8:	fb 89       	ldd	r31, Y+19	; 0x13
    38fa:	e1 59       	subi	r30, 0x91	; 145
    38fc:	fd 4f       	sbci	r31, 0xFD	; 253
    38fe:	a0 80       	ld	r10, Z
    3900:	ea 89       	ldd	r30, Y+18	; 0x12
    3902:	fb 89       	ldd	r31, Y+19	; 0x13
    3904:	e0 59       	subi	r30, 0x90	; 144
    3906:	fd 4f       	sbci	r31, 0xFD	; 253
    3908:	60 80       	ld	r6, Z
    390a:	ea 89       	ldd	r30, Y+18	; 0x12
    390c:	fb 89       	ldd	r31, Y+19	; 0x13
    390e:	ef 58       	subi	r30, 0x8F	; 143
    3910:	fd 4f       	sbci	r31, 0xFD	; 253
    3912:	60 81       	ld	r22, Z
    3914:	ea 89       	ldd	r30, Y+18	; 0x12
    3916:	fb 89       	ldd	r31, Y+19	; 0x13
    3918:	ee 58       	subi	r30, 0x8E	; 142
    391a:	fd 4f       	sbci	r31, 0xFD	; 253
    391c:	e0 81       	ld	r30, Z
    391e:	2e 2e       	mov	r2, r30
    3920:	33 24       	eor	r3, r3
    3922:	44 24       	eor	r4, r4
    3924:	55 24       	eor	r5, r5
    3926:	80 eb       	ldi	r24, 0xB0	; 176
    3928:	9e e9       	ldi	r25, 0x9E	; 158
    392a:	ae ea       	ldi	r26, 0xAE	; 174
    392c:	bf ef       	ldi	r27, 0xFF	; 255
    392e:	28 0e       	add	r2, r24
    3930:	39 1e       	adc	r3, r25
    3932:	4a 1e       	adc	r4, r26
    3934:	5b 1e       	adc	r5, r27
    3936:	70 e0       	ldi	r23, 0x00	; 0
    3938:	80 e0       	ldi	r24, 0x00	; 0
    393a:	90 e0       	ldi	r25, 0x00	; 0
    393c:	2a e0       	ldi	r18, 0x0A	; 10
    393e:	30 e0       	ldi	r19, 0x00	; 0
    3940:	40 e0       	ldi	r20, 0x00	; 0
    3942:	50 e0       	ldi	r21, 0x00	; 0
    3944:	0e 94 f8 2f 	call	0x5ff0	; 0x5ff0 <__mulsi3>
    3948:	26 0e       	add	r2, r22
    394a:	37 1e       	adc	r3, r23
    394c:	48 1e       	adc	r4, r24
    394e:	59 1e       	adc	r5, r25
    3950:	ff 24       	eor	r15, r15
    3952:	00 e0       	ldi	r16, 0x00	; 0
    3954:	10 e0       	ldi	r17, 0x00	; 0
    3956:	c8 01       	movw	r24, r16
    3958:	b7 01       	movw	r22, r14
    395a:	0e 94 f8 2f 	call	0x5ff0	; 0x5ff0 <__mulsi3>
    395e:	67 0d       	add	r22, r7
    3960:	71 1d       	adc	r23, r1
    3962:	81 1d       	adc	r24, r1
    3964:	91 1d       	adc	r25, r1
    3966:	20 e1       	ldi	r18, 0x10	; 16
    3968:	37 e2       	ldi	r19, 0x27	; 39
    396a:	40 e0       	ldi	r20, 0x00	; 0
    396c:	50 e0       	ldi	r21, 0x00	; 0
    396e:	0e 94 f8 2f 	call	0x5ff0	; 0x5ff0 <__mulsi3>
    3972:	26 0e       	add	r2, r22
    3974:	37 1e       	adc	r3, r23
    3976:	48 1e       	adc	r4, r24
    3978:	59 1e       	adc	r5, r25
    397a:	bb 24       	eor	r11, r11
    397c:	cc 24       	eor	r12, r12
    397e:	dd 24       	eor	r13, r13
    3980:	c6 01       	movw	r24, r12
    3982:	b5 01       	movw	r22, r10
    3984:	2a e0       	ldi	r18, 0x0A	; 10
    3986:	30 e0       	ldi	r19, 0x00	; 0
    3988:	40 e0       	ldi	r20, 0x00	; 0
    398a:	50 e0       	ldi	r21, 0x00	; 0
    398c:	0e 94 f8 2f 	call	0x5ff0	; 0x5ff0 <__mulsi3>
    3990:	66 0d       	add	r22, r6
    3992:	71 1d       	adc	r23, r1
    3994:	81 1d       	adc	r24, r1
    3996:	91 1d       	adc	r25, r1
    3998:	24 e6       	ldi	r18, 0x64	; 100
    399a:	30 e0       	ldi	r19, 0x00	; 0
    399c:	40 e0       	ldi	r20, 0x00	; 0
    399e:	50 e0       	ldi	r21, 0x00	; 0
    39a0:	0e 94 f8 2f 	call	0x5ff0	; 0x5ff0 <__mulsi3>
    39a4:	26 0e       	add	r2, r22
    39a6:	37 1e       	adc	r3, r23
    39a8:	48 1e       	adc	r4, r24
    39aa:	59 1e       	adc	r5, r25
    39ac:	f4 01       	movw	r30, r8
    39ae:	ed 58       	subi	r30, 0x8D	; 141
    39b0:	fa 4f       	sbci	r31, 0xFA	; 250
    39b2:	20 82       	st	Z, r2
    39b4:	31 82       	std	Z+1, r3	; 0x01
    39b6:	42 82       	std	Z+2, r4	; 0x02
    39b8:	53 82       	std	Z+3, r5	; 0x03
										+(((unsigned long)usart_data_in[10+36*i]-0x30)*10+((unsigned long)usart_data_in[11+36*i]-0x30))*100
										+(((unsigned long)usart_data_in[12+36*i]-0x30)*10+((unsigned long)usart_data_in[13+36*i]-0x30));
							timer2_start[i]=(((unsigned long)usart_data_in[14+36*i]-0x30)*10+((unsigned long)usart_data_in[15+36*i]-0x30))*10000
    39ba:	ea 89       	ldd	r30, Y+18	; 0x12
    39bc:	fb 89       	ldd	r31, Y+19	; 0x13
    39be:	ed 58       	subi	r30, 0x8D	; 141
    39c0:	fd 4f       	sbci	r31, 0xFD	; 253
    39c2:	e0 80       	ld	r14, Z
    39c4:	ea 89       	ldd	r30, Y+18	; 0x12
    39c6:	fb 89       	ldd	r31, Y+19	; 0x13
    39c8:	ec 58       	subi	r30, 0x8C	; 140
    39ca:	fd 4f       	sbci	r31, 0xFD	; 253
    39cc:	70 80       	ld	r7, Z
    39ce:	ea 89       	ldd	r30, Y+18	; 0x12
    39d0:	fb 89       	ldd	r31, Y+19	; 0x13
    39d2:	eb 58       	subi	r30, 0x8B	; 139
    39d4:	fd 4f       	sbci	r31, 0xFD	; 253
    39d6:	a0 80       	ld	r10, Z
    39d8:	ea 89       	ldd	r30, Y+18	; 0x12
    39da:	fb 89       	ldd	r31, Y+19	; 0x13
    39dc:	ea 58       	subi	r30, 0x8A	; 138
    39de:	fd 4f       	sbci	r31, 0xFD	; 253
    39e0:	60 80       	ld	r6, Z
    39e2:	ea 89       	ldd	r30, Y+18	; 0x12
    39e4:	fb 89       	ldd	r31, Y+19	; 0x13
    39e6:	e9 58       	subi	r30, 0x89	; 137
    39e8:	fd 4f       	sbci	r31, 0xFD	; 253
    39ea:	60 81       	ld	r22, Z
    39ec:	ea 89       	ldd	r30, Y+18	; 0x12
    39ee:	fb 89       	ldd	r31, Y+19	; 0x13
    39f0:	e8 58       	subi	r30, 0x88	; 136
    39f2:	fd 4f       	sbci	r31, 0xFD	; 253
    39f4:	e0 81       	ld	r30, Z
    39f6:	2e 2e       	mov	r2, r30
    39f8:	33 24       	eor	r3, r3
    39fa:	44 24       	eor	r4, r4
    39fc:	55 24       	eor	r5, r5
    39fe:	20 eb       	ldi	r18, 0xB0	; 176
    3a00:	3e e9       	ldi	r19, 0x9E	; 158
    3a02:	4e ea       	ldi	r20, 0xAE	; 174
    3a04:	5f ef       	ldi	r21, 0xFF	; 255
    3a06:	22 0e       	add	r2, r18
    3a08:	33 1e       	adc	r3, r19
    3a0a:	44 1e       	adc	r4, r20
    3a0c:	55 1e       	adc	r5, r21
    3a0e:	70 e0       	ldi	r23, 0x00	; 0
    3a10:	80 e0       	ldi	r24, 0x00	; 0
    3a12:	90 e0       	ldi	r25, 0x00	; 0
    3a14:	2a e0       	ldi	r18, 0x0A	; 10
    3a16:	30 e0       	ldi	r19, 0x00	; 0
    3a18:	40 e0       	ldi	r20, 0x00	; 0
    3a1a:	50 e0       	ldi	r21, 0x00	; 0
    3a1c:	0e 94 f8 2f 	call	0x5ff0	; 0x5ff0 <__mulsi3>
    3a20:	26 0e       	add	r2, r22
    3a22:	37 1e       	adc	r3, r23
    3a24:	48 1e       	adc	r4, r24
    3a26:	59 1e       	adc	r5, r25
    3a28:	ff 24       	eor	r15, r15
    3a2a:	00 e0       	ldi	r16, 0x00	; 0
    3a2c:	10 e0       	ldi	r17, 0x00	; 0
    3a2e:	c8 01       	movw	r24, r16
    3a30:	b7 01       	movw	r22, r14
    3a32:	0e 94 f8 2f 	call	0x5ff0	; 0x5ff0 <__mulsi3>
    3a36:	67 0d       	add	r22, r7
    3a38:	71 1d       	adc	r23, r1
    3a3a:	81 1d       	adc	r24, r1
    3a3c:	91 1d       	adc	r25, r1
    3a3e:	20 e1       	ldi	r18, 0x10	; 16
    3a40:	37 e2       	ldi	r19, 0x27	; 39
    3a42:	40 e0       	ldi	r20, 0x00	; 0
    3a44:	50 e0       	ldi	r21, 0x00	; 0
    3a46:	0e 94 f8 2f 	call	0x5ff0	; 0x5ff0 <__mulsi3>
    3a4a:	26 0e       	add	r2, r22
    3a4c:	37 1e       	adc	r3, r23
    3a4e:	48 1e       	adc	r4, r24
    3a50:	59 1e       	adc	r5, r25
    3a52:	bb 24       	eor	r11, r11
    3a54:	cc 24       	eor	r12, r12
    3a56:	dd 24       	eor	r13, r13
    3a58:	c6 01       	movw	r24, r12
    3a5a:	b5 01       	movw	r22, r10
    3a5c:	2a e0       	ldi	r18, 0x0A	; 10
    3a5e:	30 e0       	ldi	r19, 0x00	; 0
    3a60:	40 e0       	ldi	r20, 0x00	; 0
    3a62:	50 e0       	ldi	r21, 0x00	; 0
    3a64:	0e 94 f8 2f 	call	0x5ff0	; 0x5ff0 <__mulsi3>
    3a68:	66 0d       	add	r22, r6
    3a6a:	71 1d       	adc	r23, r1
    3a6c:	81 1d       	adc	r24, r1
    3a6e:	91 1d       	adc	r25, r1
    3a70:	24 e6       	ldi	r18, 0x64	; 100
    3a72:	30 e0       	ldi	r19, 0x00	; 0
    3a74:	40 e0       	ldi	r20, 0x00	; 0
    3a76:	50 e0       	ldi	r21, 0x00	; 0
    3a78:	0e 94 f8 2f 	call	0x5ff0	; 0x5ff0 <__mulsi3>
    3a7c:	26 0e       	add	r2, r22
    3a7e:	37 1e       	adc	r3, r23
    3a80:	48 1e       	adc	r4, r24
    3a82:	59 1e       	adc	r5, r25
    3a84:	f4 01       	movw	r30, r8
    3a86:	e9 56       	subi	r30, 0x69	; 105
    3a88:	fa 4f       	sbci	r31, 0xFA	; 250
    3a8a:	20 82       	st	Z, r2
    3a8c:	31 82       	std	Z+1, r3	; 0x01
    3a8e:	42 82       	std	Z+2, r4	; 0x02
    3a90:	53 82       	std	Z+3, r5	; 0x03
										+(((unsigned long)usart_data_in[16+36*i]-0x30)*10+((unsigned long)usart_data_in[17+36*i]-0x30))*100
										+(((unsigned long)usart_data_in[18+36*i]-0x30)*10+((unsigned long)usart_data_in[19+36*i]-0x30));
							timer2_stop[i]=(((unsigned long)usart_data_in[20+36*i]-0x30)*10+((unsigned long)usart_data_in[21+36*i]-0x30))*10000
    3a92:	ea 89       	ldd	r30, Y+18	; 0x12
    3a94:	fb 89       	ldd	r31, Y+19	; 0x13
    3a96:	e7 58       	subi	r30, 0x87	; 135
    3a98:	fd 4f       	sbci	r31, 0xFD	; 253
    3a9a:	e0 80       	ld	r14, Z
    3a9c:	ea 89       	ldd	r30, Y+18	; 0x12
    3a9e:	fb 89       	ldd	r31, Y+19	; 0x13
    3aa0:	e6 58       	subi	r30, 0x86	; 134
    3aa2:	fd 4f       	sbci	r31, 0xFD	; 253
    3aa4:	70 80       	ld	r7, Z
    3aa6:	ea 89       	ldd	r30, Y+18	; 0x12
    3aa8:	fb 89       	ldd	r31, Y+19	; 0x13
    3aaa:	e5 58       	subi	r30, 0x85	; 133
    3aac:	fd 4f       	sbci	r31, 0xFD	; 253
    3aae:	a0 80       	ld	r10, Z
    3ab0:	ea 89       	ldd	r30, Y+18	; 0x12
    3ab2:	fb 89       	ldd	r31, Y+19	; 0x13
    3ab4:	e4 58       	subi	r30, 0x84	; 132
    3ab6:	fd 4f       	sbci	r31, 0xFD	; 253
    3ab8:	60 80       	ld	r6, Z
    3aba:	ea 89       	ldd	r30, Y+18	; 0x12
    3abc:	fb 89       	ldd	r31, Y+19	; 0x13
    3abe:	e3 58       	subi	r30, 0x83	; 131
    3ac0:	fd 4f       	sbci	r31, 0xFD	; 253
    3ac2:	60 81       	ld	r22, Z
    3ac4:	ea 89       	ldd	r30, Y+18	; 0x12
    3ac6:	fb 89       	ldd	r31, Y+19	; 0x13
    3ac8:	e2 58       	subi	r30, 0x82	; 130
    3aca:	fd 4f       	sbci	r31, 0xFD	; 253
    3acc:	e0 81       	ld	r30, Z
    3ace:	2e 2e       	mov	r2, r30
    3ad0:	33 24       	eor	r3, r3
    3ad2:	44 24       	eor	r4, r4
    3ad4:	55 24       	eor	r5, r5
    3ad6:	80 eb       	ldi	r24, 0xB0	; 176
    3ad8:	9e e9       	ldi	r25, 0x9E	; 158
    3ada:	ae ea       	ldi	r26, 0xAE	; 174
    3adc:	bf ef       	ldi	r27, 0xFF	; 255
    3ade:	28 0e       	add	r2, r24
    3ae0:	39 1e       	adc	r3, r25
    3ae2:	4a 1e       	adc	r4, r26
    3ae4:	5b 1e       	adc	r5, r27
    3ae6:	70 e0       	ldi	r23, 0x00	; 0
    3ae8:	80 e0       	ldi	r24, 0x00	; 0
    3aea:	90 e0       	ldi	r25, 0x00	; 0
    3aec:	2a e0       	ldi	r18, 0x0A	; 10
    3aee:	30 e0       	ldi	r19, 0x00	; 0
    3af0:	40 e0       	ldi	r20, 0x00	; 0
    3af2:	50 e0       	ldi	r21, 0x00	; 0
    3af4:	0e 94 f8 2f 	call	0x5ff0	; 0x5ff0 <__mulsi3>
    3af8:	26 0e       	add	r2, r22
    3afa:	37 1e       	adc	r3, r23
    3afc:	48 1e       	adc	r4, r24
    3afe:	59 1e       	adc	r5, r25
    3b00:	ff 24       	eor	r15, r15
    3b02:	00 e0       	ldi	r16, 0x00	; 0
    3b04:	10 e0       	ldi	r17, 0x00	; 0
    3b06:	c8 01       	movw	r24, r16
    3b08:	b7 01       	movw	r22, r14
    3b0a:	0e 94 f8 2f 	call	0x5ff0	; 0x5ff0 <__mulsi3>
    3b0e:	67 0d       	add	r22, r7
    3b10:	71 1d       	adc	r23, r1
    3b12:	81 1d       	adc	r24, r1
    3b14:	91 1d       	adc	r25, r1
    3b16:	20 e1       	ldi	r18, 0x10	; 16
    3b18:	37 e2       	ldi	r19, 0x27	; 39
    3b1a:	40 e0       	ldi	r20, 0x00	; 0
    3b1c:	50 e0       	ldi	r21, 0x00	; 0
    3b1e:	0e 94 f8 2f 	call	0x5ff0	; 0x5ff0 <__mulsi3>
    3b22:	26 0e       	add	r2, r22
    3b24:	37 1e       	adc	r3, r23
    3b26:	48 1e       	adc	r4, r24
    3b28:	59 1e       	adc	r5, r25
    3b2a:	bb 24       	eor	r11, r11
    3b2c:	cc 24       	eor	r12, r12
    3b2e:	dd 24       	eor	r13, r13
    3b30:	c6 01       	movw	r24, r12
    3b32:	b5 01       	movw	r22, r10
    3b34:	2a e0       	ldi	r18, 0x0A	; 10
    3b36:	30 e0       	ldi	r19, 0x00	; 0
    3b38:	40 e0       	ldi	r20, 0x00	; 0
    3b3a:	50 e0       	ldi	r21, 0x00	; 0
    3b3c:	0e 94 f8 2f 	call	0x5ff0	; 0x5ff0 <__mulsi3>
    3b40:	66 0d       	add	r22, r6
    3b42:	71 1d       	adc	r23, r1
    3b44:	81 1d       	adc	r24, r1
    3b46:	91 1d       	adc	r25, r1
    3b48:	24 e6       	ldi	r18, 0x64	; 100
    3b4a:	30 e0       	ldi	r19, 0x00	; 0
    3b4c:	40 e0       	ldi	r20, 0x00	; 0
    3b4e:	50 e0       	ldi	r21, 0x00	; 0
    3b50:	0e 94 f8 2f 	call	0x5ff0	; 0x5ff0 <__mulsi3>
    3b54:	26 0e       	add	r2, r22
    3b56:	37 1e       	adc	r3, r23
    3b58:	48 1e       	adc	r4, r24
    3b5a:	59 1e       	adc	r5, r25
    3b5c:	f4 01       	movw	r30, r8
    3b5e:	e5 54       	subi	r30, 0x45	; 69
    3b60:	fa 4f       	sbci	r31, 0xFA	; 250
    3b62:	20 82       	st	Z, r2
    3b64:	31 82       	std	Z+1, r3	; 0x01
    3b66:	42 82       	std	Z+2, r4	; 0x02
    3b68:	53 82       	std	Z+3, r5	; 0x03
										+(((unsigned long)usart_data_in[22+36*i]-0x30)*10+((unsigned long)usart_data_in[23+36*i]-0x30))*100
										+(((unsigned long)usart_data_in[24+36*i]-0x30)*10+((unsigned long)usart_data_in[25+36*i]-0x30));
							timer3_start[i]=(((unsigned long)usart_data_in[26+36*i]-0x30)*10+((unsigned long)usart_data_in[27+36*i]-0x30))*10000
    3b6a:	ea 89       	ldd	r30, Y+18	; 0x12
    3b6c:	fb 89       	ldd	r31, Y+19	; 0x13
    3b6e:	e1 58       	subi	r30, 0x81	; 129
    3b70:	fd 4f       	sbci	r31, 0xFD	; 253
    3b72:	e0 80       	ld	r14, Z
    3b74:	ea 89       	ldd	r30, Y+18	; 0x12
    3b76:	fb 89       	ldd	r31, Y+19	; 0x13
    3b78:	e0 58       	subi	r30, 0x80	; 128
    3b7a:	fd 4f       	sbci	r31, 0xFD	; 253
    3b7c:	70 80       	ld	r7, Z
    3b7e:	ea 89       	ldd	r30, Y+18	; 0x12
    3b80:	fb 89       	ldd	r31, Y+19	; 0x13
    3b82:	ef 57       	subi	r30, 0x7F	; 127
    3b84:	fd 4f       	sbci	r31, 0xFD	; 253
    3b86:	a0 80       	ld	r10, Z
    3b88:	ea 89       	ldd	r30, Y+18	; 0x12
    3b8a:	fb 89       	ldd	r31, Y+19	; 0x13
    3b8c:	ee 57       	subi	r30, 0x7E	; 126
    3b8e:	fd 4f       	sbci	r31, 0xFD	; 253
    3b90:	60 80       	ld	r6, Z
    3b92:	ea 89       	ldd	r30, Y+18	; 0x12
    3b94:	fb 89       	ldd	r31, Y+19	; 0x13
    3b96:	ed 57       	subi	r30, 0x7D	; 125
    3b98:	fd 4f       	sbci	r31, 0xFD	; 253
    3b9a:	60 81       	ld	r22, Z
    3b9c:	ea 89       	ldd	r30, Y+18	; 0x12
    3b9e:	fb 89       	ldd	r31, Y+19	; 0x13
    3ba0:	ec 57       	subi	r30, 0x7C	; 124
    3ba2:	fd 4f       	sbci	r31, 0xFD	; 253
    3ba4:	e0 81       	ld	r30, Z
    3ba6:	2e 2e       	mov	r2, r30
    3ba8:	33 24       	eor	r3, r3
    3baa:	44 24       	eor	r4, r4
    3bac:	55 24       	eor	r5, r5
    3bae:	20 eb       	ldi	r18, 0xB0	; 176
    3bb0:	3e e9       	ldi	r19, 0x9E	; 158
    3bb2:	4e ea       	ldi	r20, 0xAE	; 174
    3bb4:	5f ef       	ldi	r21, 0xFF	; 255
    3bb6:	22 0e       	add	r2, r18
    3bb8:	33 1e       	adc	r3, r19
    3bba:	44 1e       	adc	r4, r20
    3bbc:	55 1e       	adc	r5, r21
    3bbe:	70 e0       	ldi	r23, 0x00	; 0
    3bc0:	80 e0       	ldi	r24, 0x00	; 0
    3bc2:	90 e0       	ldi	r25, 0x00	; 0
    3bc4:	2a e0       	ldi	r18, 0x0A	; 10
    3bc6:	30 e0       	ldi	r19, 0x00	; 0
    3bc8:	40 e0       	ldi	r20, 0x00	; 0
    3bca:	50 e0       	ldi	r21, 0x00	; 0
    3bcc:	0e 94 f8 2f 	call	0x5ff0	; 0x5ff0 <__mulsi3>
    3bd0:	26 0e       	add	r2, r22
    3bd2:	37 1e       	adc	r3, r23
    3bd4:	48 1e       	adc	r4, r24
    3bd6:	59 1e       	adc	r5, r25
    3bd8:	ff 24       	eor	r15, r15
    3bda:	00 e0       	ldi	r16, 0x00	; 0
    3bdc:	10 e0       	ldi	r17, 0x00	; 0
    3bde:	c8 01       	movw	r24, r16
    3be0:	b7 01       	movw	r22, r14
    3be2:	0e 94 f8 2f 	call	0x5ff0	; 0x5ff0 <__mulsi3>
    3be6:	67 0d       	add	r22, r7
    3be8:	71 1d       	adc	r23, r1
    3bea:	81 1d       	adc	r24, r1
    3bec:	91 1d       	adc	r25, r1
    3bee:	20 e1       	ldi	r18, 0x10	; 16
    3bf0:	37 e2       	ldi	r19, 0x27	; 39
    3bf2:	40 e0       	ldi	r20, 0x00	; 0
    3bf4:	50 e0       	ldi	r21, 0x00	; 0
    3bf6:	0e 94 f8 2f 	call	0x5ff0	; 0x5ff0 <__mulsi3>
    3bfa:	26 0e       	add	r2, r22
    3bfc:	37 1e       	adc	r3, r23
    3bfe:	48 1e       	adc	r4, r24
    3c00:	59 1e       	adc	r5, r25
    3c02:	bb 24       	eor	r11, r11
    3c04:	cc 24       	eor	r12, r12
    3c06:	dd 24       	eor	r13, r13
    3c08:	c6 01       	movw	r24, r12
    3c0a:	b5 01       	movw	r22, r10
    3c0c:	2a e0       	ldi	r18, 0x0A	; 10
    3c0e:	30 e0       	ldi	r19, 0x00	; 0
    3c10:	40 e0       	ldi	r20, 0x00	; 0
    3c12:	50 e0       	ldi	r21, 0x00	; 0
    3c14:	0e 94 f8 2f 	call	0x5ff0	; 0x5ff0 <__mulsi3>
    3c18:	66 0d       	add	r22, r6
    3c1a:	71 1d       	adc	r23, r1
    3c1c:	81 1d       	adc	r24, r1
    3c1e:	91 1d       	adc	r25, r1
    3c20:	24 e6       	ldi	r18, 0x64	; 100
    3c22:	30 e0       	ldi	r19, 0x00	; 0
    3c24:	40 e0       	ldi	r20, 0x00	; 0
    3c26:	50 e0       	ldi	r21, 0x00	; 0
    3c28:	0e 94 f8 2f 	call	0x5ff0	; 0x5ff0 <__mulsi3>
    3c2c:	26 0e       	add	r2, r22
    3c2e:	37 1e       	adc	r3, r23
    3c30:	48 1e       	adc	r4, r24
    3c32:	59 1e       	adc	r5, r25
    3c34:	f4 01       	movw	r30, r8
    3c36:	e1 52       	subi	r30, 0x21	; 33
    3c38:	fa 4f       	sbci	r31, 0xFA	; 250
    3c3a:	20 82       	st	Z, r2
    3c3c:	31 82       	std	Z+1, r3	; 0x01
    3c3e:	42 82       	std	Z+2, r4	; 0x02
    3c40:	53 82       	std	Z+3, r5	; 0x03
										+(((unsigned long)usart_data_in[28+36*i]-0x30)*10+((unsigned long)usart_data_in[29+36*i]-0x30))*100
										+(((unsigned long)usart_data_in[30+36*i]-0x30)*10+((unsigned long)usart_data_in[31+36*i]-0x30));
							timer3_stop[i]=(((unsigned long)usart_data_in[32+36*i]-0x30)*10+((unsigned long)usart_data_in[33+36*i]-0x30))*10000
    3c42:	ea 89       	ldd	r30, Y+18	; 0x12
    3c44:	fb 89       	ldd	r31, Y+19	; 0x13
    3c46:	eb 57       	subi	r30, 0x7B	; 123
    3c48:	fd 4f       	sbci	r31, 0xFD	; 253
    3c4a:	e0 80       	ld	r14, Z
    3c4c:	ea 89       	ldd	r30, Y+18	; 0x12
    3c4e:	fb 89       	ldd	r31, Y+19	; 0x13
    3c50:	ea 57       	subi	r30, 0x7A	; 122
    3c52:	fd 4f       	sbci	r31, 0xFD	; 253
    3c54:	70 80       	ld	r7, Z
    3c56:	ea 89       	ldd	r30, Y+18	; 0x12
    3c58:	fb 89       	ldd	r31, Y+19	; 0x13
    3c5a:	e9 57       	subi	r30, 0x79	; 121
    3c5c:	fd 4f       	sbci	r31, 0xFD	; 253
    3c5e:	a0 80       	ld	r10, Z
    3c60:	ea 89       	ldd	r30, Y+18	; 0x12
    3c62:	fb 89       	ldd	r31, Y+19	; 0x13
    3c64:	e8 57       	subi	r30, 0x78	; 120
    3c66:	fd 4f       	sbci	r31, 0xFD	; 253
    3c68:	60 80       	ld	r6, Z
    3c6a:	4c 89       	ldd	r20, Y+20	; 0x14
    3c6c:	5d 89       	ldd	r21, Y+21	; 0x15
    3c6e:	4f 5f       	subi	r20, 0xFF	; 255
    3c70:	5f 4f       	sbci	r21, 0xFF	; 255
    3c72:	59 8f       	std	Y+25, r21	; 0x19
    3c74:	48 8f       	std	Y+24, r20	; 0x18
	*d=dec;	// Десятичное
	*s=sig;	// Знак
}

int main(void)
{
    3c76:	8a 89       	ldd	r24, Y+18	; 0x12
    3c78:	9b 89       	ldd	r25, Y+19	; 0x13
    3c7a:	84 96       	adiw	r24, 0x24	; 36
    3c7c:	9f 8b       	std	Y+23, r25	; 0x17
    3c7e:	8e 8b       	std	Y+22, r24	; 0x16
										+(((unsigned long)usart_data_in[22+36*i]-0x30)*10+((unsigned long)usart_data_in[23+36*i]-0x30))*100
										+(((unsigned long)usart_data_in[24+36*i]-0x30)*10+((unsigned long)usart_data_in[25+36*i]-0x30));
							timer3_start[i]=(((unsigned long)usart_data_in[26+36*i]-0x30)*10+((unsigned long)usart_data_in[27+36*i]-0x30))*10000
										+(((unsigned long)usart_data_in[28+36*i]-0x30)*10+((unsigned long)usart_data_in[29+36*i]-0x30))*100
										+(((unsigned long)usart_data_in[30+36*i]-0x30)*10+((unsigned long)usart_data_in[31+36*i]-0x30));
							timer3_stop[i]=(((unsigned long)usart_data_in[32+36*i]-0x30)*10+((unsigned long)usart_data_in[33+36*i]-0x30))*10000
    3c80:	fc 01       	movw	r30, r24
    3c82:	eb 59       	subi	r30, 0x9B	; 155
    3c84:	fd 4f       	sbci	r31, 0xFD	; 253
    3c86:	60 81       	ld	r22, Z
    3c88:	aa 89       	ldd	r26, Y+18	; 0x12
    3c8a:	bb 89       	ldd	r27, Y+19	; 0x13
    3c8c:	a6 57       	subi	r26, 0x76	; 118
    3c8e:	bd 4f       	sbci	r27, 0xFD	; 253
    3c90:	ec 91       	ld	r30, X
    3c92:	2e 2e       	mov	r2, r30
    3c94:	33 24       	eor	r3, r3
    3c96:	44 24       	eor	r4, r4
    3c98:	55 24       	eor	r5, r5
    3c9a:	20 eb       	ldi	r18, 0xB0	; 176
    3c9c:	3e e9       	ldi	r19, 0x9E	; 158
    3c9e:	4e ea       	ldi	r20, 0xAE	; 174
    3ca0:	5f ef       	ldi	r21, 0xFF	; 255
    3ca2:	22 0e       	add	r2, r18
    3ca4:	33 1e       	adc	r3, r19
    3ca6:	44 1e       	adc	r4, r20
    3ca8:	55 1e       	adc	r5, r21
    3caa:	70 e0       	ldi	r23, 0x00	; 0
    3cac:	80 e0       	ldi	r24, 0x00	; 0
    3cae:	90 e0       	ldi	r25, 0x00	; 0
    3cb0:	2a e0       	ldi	r18, 0x0A	; 10
    3cb2:	30 e0       	ldi	r19, 0x00	; 0
    3cb4:	40 e0       	ldi	r20, 0x00	; 0
    3cb6:	50 e0       	ldi	r21, 0x00	; 0
    3cb8:	0e 94 f8 2f 	call	0x5ff0	; 0x5ff0 <__mulsi3>
    3cbc:	26 0e       	add	r2, r22
    3cbe:	37 1e       	adc	r3, r23
    3cc0:	48 1e       	adc	r4, r24
    3cc2:	59 1e       	adc	r5, r25
    3cc4:	ff 24       	eor	r15, r15
    3cc6:	00 e0       	ldi	r16, 0x00	; 0
    3cc8:	10 e0       	ldi	r17, 0x00	; 0
    3cca:	c8 01       	movw	r24, r16
    3ccc:	b7 01       	movw	r22, r14
    3cce:	0e 94 f8 2f 	call	0x5ff0	; 0x5ff0 <__mulsi3>
    3cd2:	67 0d       	add	r22, r7
    3cd4:	71 1d       	adc	r23, r1
    3cd6:	81 1d       	adc	r24, r1
    3cd8:	91 1d       	adc	r25, r1
    3cda:	20 e1       	ldi	r18, 0x10	; 16
    3cdc:	37 e2       	ldi	r19, 0x27	; 39
    3cde:	40 e0       	ldi	r20, 0x00	; 0
    3ce0:	50 e0       	ldi	r21, 0x00	; 0
    3ce2:	0e 94 f8 2f 	call	0x5ff0	; 0x5ff0 <__mulsi3>
    3ce6:	26 0e       	add	r2, r22
    3ce8:	37 1e       	adc	r3, r23
    3cea:	48 1e       	adc	r4, r24
    3cec:	59 1e       	adc	r5, r25
    3cee:	bb 24       	eor	r11, r11
    3cf0:	cc 24       	eor	r12, r12
    3cf2:	dd 24       	eor	r13, r13
    3cf4:	c6 01       	movw	r24, r12
    3cf6:	b5 01       	movw	r22, r10
    3cf8:	2a e0       	ldi	r18, 0x0A	; 10
    3cfa:	30 e0       	ldi	r19, 0x00	; 0
    3cfc:	40 e0       	ldi	r20, 0x00	; 0
    3cfe:	50 e0       	ldi	r21, 0x00	; 0
    3d00:	0e 94 f8 2f 	call	0x5ff0	; 0x5ff0 <__mulsi3>
    3d04:	66 0d       	add	r22, r6
    3d06:	71 1d       	adc	r23, r1
    3d08:	81 1d       	adc	r24, r1
    3d0a:	91 1d       	adc	r25, r1
    3d0c:	24 e6       	ldi	r18, 0x64	; 100
    3d0e:	30 e0       	ldi	r19, 0x00	; 0
    3d10:	40 e0       	ldi	r20, 0x00	; 0
    3d12:	50 e0       	ldi	r21, 0x00	; 0
    3d14:	0e 94 f8 2f 	call	0x5ff0	; 0x5ff0 <__mulsi3>
    3d18:	26 0e       	add	r2, r22
    3d1a:	37 1e       	adc	r3, r23
    3d1c:	48 1e       	adc	r4, r24
    3d1e:	59 1e       	adc	r5, r25
    3d20:	43 e0       	ldi	r20, 0x03	; 3
    3d22:	56 e0       	ldi	r21, 0x06	; 6
    3d24:	84 0e       	add	r8, r20
    3d26:	95 1e       	adc	r9, r21
    3d28:	d4 01       	movw	r26, r8
    3d2a:	2d 92       	st	X+, r2
    3d2c:	3d 92       	st	X+, r3
    3d2e:	4d 92       	st	X+, r4
    3d30:	5c 92       	st	X, r5
    3d32:	13 97       	sbiw	r26, 0x03	; 3
					
					// ----- данные вкладки <Ежедневные таймеры> AquaControl ----- //
					
					case 0x05: // установить значение таймеров
					{
						for(int i=0;i<9;i++) // для 9 каналов (включая PWM-канал)
    3d34:	e8 8d       	ldd	r30, Y+24	; 0x18
    3d36:	f9 8d       	ldd	r31, Y+25	; 0x19
    3d38:	e9 30       	cpi	r30, 0x09	; 9
    3d3a:	f1 05       	cpc	r31, r1
    3d3c:	39 f0       	breq	.+14     	; 0x3d4c <main+0x1294>
    3d3e:	fd 8b       	std	Y+21, r31	; 0x15
    3d40:	ec 8b       	std	Y+20, r30	; 0x14
    3d42:	2e 89       	ldd	r18, Y+22	; 0x16
    3d44:	3f 89       	ldd	r19, Y+23	; 0x17
    3d46:	3b 8b       	std	Y+19, r19	; 0x13
    3d48:	2a 8b       	std	Y+18, r18	; 0x12
    3d4a:	59 cd       	rjmp	.-1358   	; 0x37fe <main+0xd46>
										+(((unsigned long)usart_data_in[30+36*i]-0x30)*10+((unsigned long)usart_data_in[31+36*i]-0x30));
							timer3_stop[i]=(((unsigned long)usart_data_in[32+36*i]-0x30)*10+((unsigned long)usart_data_in[33+36*i]-0x30))*10000
										+(((unsigned long)usart_data_in[34+36*i]-0x30)*10+((unsigned long)usart_data_in[35+36*i]-0x30))*100
										+(((unsigned long)usart_data_in[36+36*i]-0x30)*10+((unsigned long)usart_data_in[37+36*i]-0x30));
						}
						if(usart_data_in[326]==0xb3) 
    3d4c:	80 91 ab 03 	lds	r24, 0x03AB
    3d50:	83 3b       	cpi	r24, 0xB3	; 179
    3d52:	09 f0       	breq	.+2      	; 0x3d56 <main+0x129e>
    3d54:	4a c1       	rjmp	.+660    	; 0x3fea <main+0x1532>
						{
							// выйти из обработки
							usart_data_in[326]=0x00; 
    3d56:	10 92 ab 03 	sts	0x03AB, r1
    3d5a:	45 c1       	rjmp	.+650    	; 0x3fe6 <main+0x152e>
						}
					}break;
					
					case 0x14: // отправить данные таймеров на ПК
					{
						timers_data_to_uart();
    3d5c:	0e 94 23 08 	call	0x1046	; 0x1046 <timers_data_to_uart>
						if(usart_data_in[2]==0xb3) 
    3d60:	80 91 67 02 	lds	r24, 0x0267
    3d64:	83 3b       	cpi	r24, 0xB3	; 179
    3d66:	09 f0       	breq	.+2      	; 0x3d6a <main+0x12b2>
    3d68:	40 c1       	rjmp	.+640    	; 0x3fea <main+0x1532>
						{
							// выйти из обработки
							usart_data_in[2]=0x00; 
    3d6a:	10 92 67 02 	sts	0x0267, r1
    3d6e:	3b c1       	rjmp	.+630    	; 0x3fe6 <main+0x152e>
					
					// ----- данные вкладки <Каллибровка электродов> AquaControl ----- //
					
					case 0x08: // считать значение 1-го калибрующего раствора
					{
						adc_ph_1=ph; // получить значение ADC 1-го раствора
    3d70:	80 91 18 05 	lds	r24, 0x0518
    3d74:	90 91 19 05 	lds	r25, 0x0519
    3d78:	90 93 28 05 	sts	0x0528, r25
    3d7c:	80 93 27 05 	sts	0x0527, r24
						// получить соответствующие номиналы PH каллибровочных растворов
						adc_ph_1_calibr=((unsigned long)usart_data_in[2]-0x30)*1000+((unsigned long)usart_data_in[3]-0x30)*100
    3d80:	60 91 67 02 	lds	r22, 0x0267
    3d84:	e0 90 68 02 	lds	r14, 0x0268
    3d88:	a0 90 69 02 	lds	r10, 0x0269
    3d8c:	80 91 6a 02 	lds	r24, 0x026A
    3d90:	68 2e       	mov	r6, r24
    3d92:	77 24       	eor	r7, r7
    3d94:	88 24       	eor	r8, r8
    3d96:	99 24       	eor	r9, r9
    3d98:	80 eb       	ldi	r24, 0xB0	; 176
    3d9a:	9f e2       	ldi	r25, 0x2F	; 47
    3d9c:	af ef       	ldi	r26, 0xFF	; 255
    3d9e:	bf ef       	ldi	r27, 0xFF	; 255
    3da0:	68 0e       	add	r6, r24
    3da2:	79 1e       	adc	r7, r25
    3da4:	8a 1e       	adc	r8, r26
    3da6:	9b 1e       	adc	r9, r27
    3da8:	70 e0       	ldi	r23, 0x00	; 0
    3daa:	80 e0       	ldi	r24, 0x00	; 0
    3dac:	90 e0       	ldi	r25, 0x00	; 0
    3dae:	28 ee       	ldi	r18, 0xE8	; 232
    3db0:	33 e0       	ldi	r19, 0x03	; 3
    3db2:	40 e0       	ldi	r20, 0x00	; 0
    3db4:	50 e0       	ldi	r21, 0x00	; 0
    3db6:	0e 94 f8 2f 	call	0x5ff0	; 0x5ff0 <__mulsi3>
    3dba:	66 0e       	add	r6, r22
    3dbc:	77 1e       	adc	r7, r23
    3dbe:	88 1e       	adc	r8, r24
    3dc0:	99 1e       	adc	r9, r25
    3dc2:	ff 24       	eor	r15, r15
    3dc4:	00 e0       	ldi	r16, 0x00	; 0
    3dc6:	10 e0       	ldi	r17, 0x00	; 0
    3dc8:	c8 01       	movw	r24, r16
    3dca:	b7 01       	movw	r22, r14
    3dcc:	24 e6       	ldi	r18, 0x64	; 100
    3dce:	30 e0       	ldi	r19, 0x00	; 0
    3dd0:	40 e0       	ldi	r20, 0x00	; 0
    3dd2:	50 e0       	ldi	r21, 0x00	; 0
    3dd4:	0e 94 f8 2f 	call	0x5ff0	; 0x5ff0 <__mulsi3>
    3dd8:	66 0e       	add	r6, r22
    3dda:	77 1e       	adc	r7, r23
    3ddc:	88 1e       	adc	r8, r24
    3dde:	99 1e       	adc	r9, r25
    3de0:	bb 24       	eor	r11, r11
    3de2:	cc 24       	eor	r12, r12
    3de4:	dd 24       	eor	r13, r13
    3de6:	c6 01       	movw	r24, r12
    3de8:	b5 01       	movw	r22, r10
    3dea:	2a e0       	ldi	r18, 0x0A	; 10
    3dec:	30 e0       	ldi	r19, 0x00	; 0
    3dee:	40 e0       	ldi	r20, 0x00	; 0
    3df0:	50 e0       	ldi	r21, 0x00	; 0
    3df2:	0e 94 f8 2f 	call	0x5ff0	; 0x5ff0 <__mulsi3>
    3df6:	66 0e       	add	r6, r22
    3df8:	77 1e       	adc	r7, r23
    3dfa:	88 1e       	adc	r8, r24
    3dfc:	99 1e       	adc	r9, r25
    3dfe:	60 92 2d 05 	sts	0x052D, r6
    3e02:	70 92 2e 05 	sts	0x052E, r7
    3e06:	80 92 2f 05 	sts	0x052F, r8
    3e0a:	90 92 30 05 	sts	0x0530, r9
										+((unsigned long)usart_data_in[4]-0x30)*10+((unsigned long)usart_data_in[5]-0x30);
						adc_ph_2_calibr=((unsigned long)usart_data_in[6]-0x30)*1000+((unsigned long)usart_data_in[7]-0x30)*100
    3e0e:	60 91 6b 02 	lds	r22, 0x026B
    3e12:	e0 90 6c 02 	lds	r14, 0x026C
    3e16:	a0 90 6d 02 	lds	r10, 0x026D
    3e1a:	80 91 6e 02 	lds	r24, 0x026E
    3e1e:	68 2e       	mov	r6, r24
    3e20:	77 24       	eor	r7, r7
    3e22:	88 24       	eor	r8, r8
    3e24:	99 24       	eor	r9, r9
    3e26:	20 eb       	ldi	r18, 0xB0	; 176
    3e28:	3f e2       	ldi	r19, 0x2F	; 47
    3e2a:	4f ef       	ldi	r20, 0xFF	; 255
    3e2c:	5f ef       	ldi	r21, 0xFF	; 255
    3e2e:	62 0e       	add	r6, r18
    3e30:	73 1e       	adc	r7, r19
    3e32:	84 1e       	adc	r8, r20
    3e34:	95 1e       	adc	r9, r21
    3e36:	70 e0       	ldi	r23, 0x00	; 0
    3e38:	80 e0       	ldi	r24, 0x00	; 0
    3e3a:	90 e0       	ldi	r25, 0x00	; 0
    3e3c:	28 ee       	ldi	r18, 0xE8	; 232
    3e3e:	33 e0       	ldi	r19, 0x03	; 3
    3e40:	40 e0       	ldi	r20, 0x00	; 0
    3e42:	50 e0       	ldi	r21, 0x00	; 0
    3e44:	0e 94 f8 2f 	call	0x5ff0	; 0x5ff0 <__mulsi3>
    3e48:	66 0e       	add	r6, r22
    3e4a:	77 1e       	adc	r7, r23
    3e4c:	88 1e       	adc	r8, r24
    3e4e:	99 1e       	adc	r9, r25
    3e50:	ff 24       	eor	r15, r15
    3e52:	00 e0       	ldi	r16, 0x00	; 0
    3e54:	10 e0       	ldi	r17, 0x00	; 0
    3e56:	c8 01       	movw	r24, r16
    3e58:	b7 01       	movw	r22, r14
    3e5a:	24 e6       	ldi	r18, 0x64	; 100
    3e5c:	30 e0       	ldi	r19, 0x00	; 0
    3e5e:	40 e0       	ldi	r20, 0x00	; 0
    3e60:	50 e0       	ldi	r21, 0x00	; 0
    3e62:	0e 94 f8 2f 	call	0x5ff0	; 0x5ff0 <__mulsi3>
    3e66:	66 0e       	add	r6, r22
    3e68:	77 1e       	adc	r7, r23
    3e6a:	88 1e       	adc	r8, r24
    3e6c:	99 1e       	adc	r9, r25
    3e6e:	bb 24       	eor	r11, r11
    3e70:	cc 24       	eor	r12, r12
    3e72:	dd 24       	eor	r13, r13
    3e74:	c6 01       	movw	r24, r12
    3e76:	b5 01       	movw	r22, r10
    3e78:	2a e0       	ldi	r18, 0x0A	; 10
    3e7a:	30 e0       	ldi	r19, 0x00	; 0
    3e7c:	40 e0       	ldi	r20, 0x00	; 0
    3e7e:	50 e0       	ldi	r21, 0x00	; 0
    3e80:	0e 94 f8 2f 	call	0x5ff0	; 0x5ff0 <__mulsi3>
    3e84:	66 0e       	add	r6, r22
    3e86:	77 1e       	adc	r7, r23
    3e88:	88 1e       	adc	r8, r24
    3e8a:	99 1e       	adc	r9, r25
    3e8c:	60 92 31 05 	sts	0x0531, r6
    3e90:	70 92 32 05 	sts	0x0532, r7
    3e94:	80 92 33 05 	sts	0x0533, r8
    3e98:	90 92 34 05 	sts	0x0534, r9
    3e9c:	9e c0       	rjmp	.+316    	; 0x3fda <main+0x1522>
						}
					}break;
					
					case 0x09: // считать значение 2-го калибрующего раствора
					{
						adc_ph_2=ph; // получить значение ADC 2-го раствора
    3e9e:	e0 90 18 05 	lds	r14, 0x0518
    3ea2:	f0 90 19 05 	lds	r15, 0x0519
    3ea6:	f0 92 2a 05 	sts	0x052A, r15
    3eaa:	e0 92 29 05 	sts	0x0529, r14
						// рассчитать коэффициенты PH (уравнение прямой, проходящей через 2 точки)
						// для удобства расчетов используется приведение значений к целому виду (7010 = 7.01 * 1000 PH)
						// в последующем, для режимов работы и отображения используется обратное приведение значений
						
						// пропорциональный коэффициент:
						k1=((long)adc_ph_1_calibr-(long)adc_ph_2_calibr)*1000/((long)adc_ph_1-(long)adc_ph_2);
    3eae:	60 90 2d 05 	lds	r6, 0x052D
    3eb2:	70 90 2e 05 	lds	r7, 0x052E
    3eb6:	80 90 2f 05 	lds	r8, 0x052F
    3eba:	90 90 30 05 	lds	r9, 0x0530
    3ebe:	80 91 31 05 	lds	r24, 0x0531
    3ec2:	90 91 32 05 	lds	r25, 0x0532
    3ec6:	a0 91 33 05 	lds	r26, 0x0533
    3eca:	b0 91 34 05 	lds	r27, 0x0534
    3ece:	a4 01       	movw	r20, r8
    3ed0:	93 01       	movw	r18, r6
    3ed2:	28 1b       	sub	r18, r24
    3ed4:	39 0b       	sbc	r19, r25
    3ed6:	4a 0b       	sbc	r20, r26
    3ed8:	5b 0b       	sbc	r21, r27
    3eda:	ca 01       	movw	r24, r20
    3edc:	b9 01       	movw	r22, r18
    3ede:	28 ee       	ldi	r18, 0xE8	; 232
    3ee0:	33 e0       	ldi	r19, 0x03	; 3
    3ee2:	40 e0       	ldi	r20, 0x00	; 0
    3ee4:	50 e0       	ldi	r21, 0x00	; 0
    3ee6:	0e 94 f8 2f 	call	0x5ff0	; 0x5ff0 <__mulsi3>
    3eea:	a0 90 27 05 	lds	r10, 0x0527
    3eee:	b0 90 28 05 	lds	r11, 0x0528
    3ef2:	cc 24       	eor	r12, r12
    3ef4:	dd 24       	eor	r13, r13
    3ef6:	00 e0       	ldi	r16, 0x00	; 0
    3ef8:	10 e0       	ldi	r17, 0x00	; 0
    3efa:	a6 01       	movw	r20, r12
    3efc:	95 01       	movw	r18, r10
    3efe:	2e 19       	sub	r18, r14
    3f00:	3f 09       	sbc	r19, r15
    3f02:	40 0b       	sbc	r20, r16
    3f04:	51 0b       	sbc	r21, r17
    3f06:	0e 94 6c 30 	call	0x60d8	; 0x60d8 <__divmodsi4>
    3f0a:	52 2e       	mov	r5, r18
    3f0c:	43 2e       	mov	r4, r19
    3f0e:	34 2e       	mov	r3, r20
    3f10:	25 2e       	mov	r2, r21
    3f12:	20 93 65 04 	sts	0x0465, r18
    3f16:	30 93 66 04 	sts	0x0466, r19
    3f1a:	40 93 67 04 	sts	0x0467, r20
    3f1e:	50 93 68 04 	sts	0x0468, r21
						// коэффициент смещения:
						k2=(long)adc_ph_1_calibr*1000-k1*adc_ph_1;
    3f22:	c4 01       	movw	r24, r8
    3f24:	b3 01       	movw	r22, r6
    3f26:	28 ee       	ldi	r18, 0xE8	; 232
    3f28:	33 e0       	ldi	r19, 0x03	; 3
    3f2a:	40 e0       	ldi	r20, 0x00	; 0
    3f2c:	50 e0       	ldi	r21, 0x00	; 0
    3f2e:	0e 94 f8 2f 	call	0x5ff0	; 0x5ff0 <__mulsi3>
    3f32:	7b 01       	movw	r14, r22
    3f34:	8c 01       	movw	r16, r24
    3f36:	65 2d       	mov	r22, r5
    3f38:	74 2d       	mov	r23, r4
    3f3a:	83 2d       	mov	r24, r3
    3f3c:	92 2d       	mov	r25, r2
    3f3e:	a6 01       	movw	r20, r12
    3f40:	95 01       	movw	r18, r10
    3f42:	0e 94 f8 2f 	call	0x5ff0	; 0x5ff0 <__mulsi3>
    3f46:	e6 1a       	sub	r14, r22
    3f48:	f7 0a       	sbc	r15, r23
    3f4a:	08 0b       	sbc	r16, r24
    3f4c:	19 0b       	sbc	r17, r25
    3f4e:	e0 92 69 04 	sts	0x0469, r14
    3f52:	f0 92 6a 04 	sts	0x046A, r15
    3f56:	00 93 6b 04 	sts	0x046B, r16
    3f5a:	10 93 6c 04 	sts	0x046C, r17
    3f5e:	3d c0       	rjmp	.+122    	; 0x3fda <main+0x1522>
						}
					}break;
					
					case 0x10: // считать значение калибрующего раствора redox
					{
						adc_redox=redox; // получить значение ADC раствора
    3f60:	e0 90 1c 05 	lds	r14, 0x051C
    3f64:	f0 90 1d 05 	lds	r15, 0x051D
    3f68:	f0 92 2c 05 	sts	0x052C, r15
    3f6c:	e0 92 2b 05 	sts	0x052B, r14
						// получить соответствующий номинал каллибрующего раствора
						adc_redox_calibr=(usart_data_in[10]-0x30)*100+(usart_data_in[11]-0x30)*10+(usart_data_in[12]-0x30);
    3f70:	20 91 6f 02 	lds	r18, 0x026F
    3f74:	e0 91 70 02 	lds	r30, 0x0270
    3f78:	60 91 71 02 	lds	r22, 0x0271
    3f7c:	70 e0       	ldi	r23, 0x00	; 0
    3f7e:	60 5d       	subi	r22, 0xD0	; 208
    3f80:	74 41       	sbci	r23, 0x14	; 20
    3f82:	44 e6       	ldi	r20, 0x64	; 100
    3f84:	24 9f       	mul	r18, r20
    3f86:	90 01       	movw	r18, r0
    3f88:	11 24       	eor	r1, r1
    3f8a:	62 0f       	add	r22, r18
    3f8c:	73 1f       	adc	r23, r19
    3f8e:	2a e0       	ldi	r18, 0x0A	; 10
    3f90:	e2 9f       	mul	r30, r18
    3f92:	f0 01       	movw	r30, r0
    3f94:	11 24       	eor	r1, r1
    3f96:	6e 0f       	add	r22, r30
    3f98:	7f 1f       	adc	r23, r31
    3f9a:	88 27       	eor	r24, r24
    3f9c:	77 fd       	sbrc	r23, 7
    3f9e:	80 95       	com	r24
    3fa0:	98 2f       	mov	r25, r24
    3fa2:	60 93 35 05 	sts	0x0535, r22
    3fa6:	70 93 36 05 	sts	0x0536, r23
    3faa:	80 93 37 05 	sts	0x0537, r24
    3fae:	90 93 38 05 	sts	0x0538, r25
						// рассчитать коэффициент
						k=(unsigned long)adc_redox_calibr*1000/adc_redox;
    3fb2:	28 ee       	ldi	r18, 0xE8	; 232
    3fb4:	33 e0       	ldi	r19, 0x03	; 3
    3fb6:	40 e0       	ldi	r20, 0x00	; 0
    3fb8:	50 e0       	ldi	r21, 0x00	; 0
    3fba:	0e 94 f8 2f 	call	0x5ff0	; 0x5ff0 <__mulsi3>
    3fbe:	00 e0       	ldi	r16, 0x00	; 0
    3fc0:	10 e0       	ldi	r17, 0x00	; 0
    3fc2:	a8 01       	movw	r20, r16
    3fc4:	97 01       	movw	r18, r14
    3fc6:	0e 94 4a 30 	call	0x6094	; 0x6094 <__udivmodsi4>
    3fca:	20 93 6d 04 	sts	0x046D, r18
    3fce:	30 93 6e 04 	sts	0x046E, r19
    3fd2:	40 93 6f 04 	sts	0x046F, r20
    3fd6:	50 93 70 04 	sts	0x0470, r21
						if(usart_data_in[13]==0xb3) 
    3fda:	80 91 72 02 	lds	r24, 0x0272
    3fde:	83 3b       	cpi	r24, 0xB3	; 179
    3fe0:	21 f4       	brne	.+8      	; 0x3fea <main+0x1532>
						{
							// выйти из обработки
							usart_data_in[13]=0x00; 
    3fe2:	10 92 72 02 	sts	0x0272, r1
							usart_data_in[1]=0x00; 
    3fe6:	10 92 66 02 	sts	0x0266, r1
					default:; break;
				}
			}
			
			// преобразование текущего времени в числовое значение (часы, минуты, секунды)
			time_now=(((unsigned long)string_1[0]-0x30)*10+((unsigned long)string_1[1]-0x30))*10000
    3fea:	60 91 9a 04 	lds	r22, 0x049A
    3fee:	70 e0       	ldi	r23, 0x00	; 0
    3ff0:	80 e0       	ldi	r24, 0x00	; 0
    3ff2:	90 e0       	ldi	r25, 0x00	; 0
    3ff4:	2a e0       	ldi	r18, 0x0A	; 10
    3ff6:	30 e0       	ldi	r19, 0x00	; 0
    3ff8:	40 e0       	ldi	r20, 0x00	; 0
    3ffa:	50 e0       	ldi	r21, 0x00	; 0
    3ffc:	0e 94 f8 2f 	call	0x5ff0	; 0x5ff0 <__mulsi3>
    4000:	20 91 9b 04 	lds	r18, 0x049B
    4004:	62 0f       	add	r22, r18
    4006:	71 1d       	adc	r23, r1
    4008:	81 1d       	adc	r24, r1
    400a:	91 1d       	adc	r25, r1
    400c:	24 e6       	ldi	r18, 0x64	; 100
    400e:	30 e0       	ldi	r19, 0x00	; 0
    4010:	40 e0       	ldi	r20, 0x00	; 0
    4012:	50 e0       	ldi	r21, 0x00	; 0
    4014:	0e 94 f8 2f 	call	0x5ff0	; 0x5ff0 <__mulsi3>
    4018:	5b 01       	movw	r10, r22
    401a:	6c 01       	movw	r12, r24
    401c:	60 91 9d 04 	lds	r22, 0x049D
    4020:	70 e0       	ldi	r23, 0x00	; 0
    4022:	80 e0       	ldi	r24, 0x00	; 0
    4024:	90 e0       	ldi	r25, 0x00	; 0
    4026:	2a e0       	ldi	r18, 0x0A	; 10
    4028:	30 e0       	ldi	r19, 0x00	; 0
    402a:	40 e0       	ldi	r20, 0x00	; 0
    402c:	50 e0       	ldi	r21, 0x00	; 0
    402e:	0e 94 f8 2f 	call	0x5ff0	; 0x5ff0 <__mulsi3>
    4032:	7b 01       	movw	r14, r22
    4034:	8c 01       	movw	r16, r24
    4036:	80 91 9e 04 	lds	r24, 0x049E
    403a:	e8 0e       	add	r14, r24
    403c:	f1 1c       	adc	r15, r1
    403e:	01 1d       	adc	r16, r1
    4040:	11 1d       	adc	r17, r1
    4042:	80 eb       	ldi	r24, 0xB0	; 176
    4044:	9e e9       	ldi	r25, 0x9E	; 158
    4046:	ae ea       	ldi	r26, 0xAE	; 174
    4048:	bf ef       	ldi	r27, 0xFF	; 255
    404a:	e8 0e       	add	r14, r24
    404c:	f9 1e       	adc	r15, r25
    404e:	0a 1f       	adc	r16, r26
    4050:	1b 1f       	adc	r17, r27
    4052:	60 91 97 04 	lds	r22, 0x0497
    4056:	70 e0       	ldi	r23, 0x00	; 0
    4058:	80 e0       	ldi	r24, 0x00	; 0
    405a:	90 e0       	ldi	r25, 0x00	; 0
    405c:	0e 94 f8 2f 	call	0x5ff0	; 0x5ff0 <__mulsi3>
    4060:	20 91 98 04 	lds	r18, 0x0498
    4064:	62 0f       	add	r22, r18
    4066:	71 1d       	adc	r23, r1
    4068:	81 1d       	adc	r24, r1
    406a:	91 1d       	adc	r25, r1
    406c:	20 e1       	ldi	r18, 0x10	; 16
    406e:	37 e2       	ldi	r19, 0x27	; 39
    4070:	40 e0       	ldi	r20, 0x00	; 0
    4072:	50 e0       	ldi	r21, 0x00	; 0
    4074:	0e 94 f8 2f 	call	0x5ff0	; 0x5ff0 <__mulsi3>
    4078:	6e 0d       	add	r22, r14
    407a:	7f 1d       	adc	r23, r15
    407c:	80 1f       	adc	r24, r16
    407e:	91 1f       	adc	r25, r17
    4080:	6a 0d       	add	r22, r10
    4082:	7b 1d       	adc	r23, r11
    4084:	8c 1d       	adc	r24, r12
    4086:	9d 1d       	adc	r25, r13
    4088:	60 93 2c 06 	sts	0x062C, r22
    408c:	70 93 2d 06 	sts	0x062D, r23
    4090:	80 93 2e 06 	sts	0x062E, r24
    4094:	90 93 2f 06 	sts	0x062F, r25
					+(((unsigned long)string_1[3]-0x30)*10+((unsigned long)string_1[4]-0x30))*100
					+(((unsigned long)string_1[6]-0x30)*10+((unsigned long)string_1[7]-0x30));	
			// преобразование текущего времени в числовое значение (минуты, секунды) - для режима продувки кулеров
			time_min_and_sec=(((unsigned long)string_1[3]-0x30)*10+((unsigned long)string_1[4]-0x30))*100
    4098:	20 e0       	ldi	r18, 0x00	; 0
    409a:	31 e9       	ldi	r19, 0x91	; 145
    409c:	40 e5       	ldi	r20, 0x50	; 80
    409e:	50 e0       	ldi	r21, 0x00	; 0
    40a0:	e2 0e       	add	r14, r18
    40a2:	f3 1e       	adc	r15, r19
    40a4:	04 1f       	adc	r16, r20
    40a6:	15 1f       	adc	r17, r21
    40a8:	ea 0c       	add	r14, r10
    40aa:	fb 1c       	adc	r15, r11
    40ac:	0c 1d       	adc	r16, r12
    40ae:	1d 1d       	adc	r17, r13
    40b0:	e0 92 27 06 	sts	0x0627, r14
    40b4:	f0 92 28 06 	sts	0x0628, r15
    40b8:	00 93 29 06 	sts	0x0629, r16
    40bc:	10 93 2a 06 	sts	0x062A, r17
							 +(((unsigned long)string_1[6]-0x30)*10+((unsigned long)string_1[7]-0x30));
				
			// ----- управление каналами RELE ----- //
			LED_PORT&=~LED; // отключить светодиод	
    40c0:	ac 98       	cbi	0x15, 4	; 21
			time_one_sec++; // отсчет временного интервала
    40c2:	80 91 f9 04 	lds	r24, 0x04F9
    40c6:	8f 5f       	subi	r24, 0xFF	; 255
    40c8:	80 93 f9 04 	sts	0x04F9, r24
			if(time_one_sec==3) // 1 c - управление каналами
    40cc:	83 30       	cpi	r24, 0x03	; 3
    40ce:	09 f0       	breq	.+2      	; 0x40d2 <main+0x161a>
    40d0:	76 c6       	rjmp	.+3308   	; 0x4dbe <main+0x2306>
				// если текущее время находится в промежутке заданных интервалов таймеров
				// или задан ручной режим работы канала
				// активировать канал
				// иначе - отключить канал
				
				if (((time_now>=timer1_start[0])&&(time_now<timer1_stop[0])&&(timer1_start[0]!=timer1_stop[0]))||
    40d2:	20 91 2c 06 	lds	r18, 0x062C
    40d6:	30 91 2d 06 	lds	r19, 0x062D
    40da:	40 91 2e 06 	lds	r20, 0x062E
    40de:	50 91 2f 06 	lds	r21, 0x062F
    40e2:	80 91 4f 05 	lds	r24, 0x054F
    40e6:	90 91 50 05 	lds	r25, 0x0550
    40ea:	a0 91 51 05 	lds	r26, 0x0551
    40ee:	b0 91 52 05 	lds	r27, 0x0552
    40f2:	28 17       	cp	r18, r24
    40f4:	39 07       	cpc	r19, r25
    40f6:	4a 07       	cpc	r20, r26
    40f8:	5b 07       	cpc	r21, r27
    40fa:	58 f1       	brcs	.+86     	; 0x4152 <main+0x169a>
    40fc:	20 91 2c 06 	lds	r18, 0x062C
    4100:	30 91 2d 06 	lds	r19, 0x062D
    4104:	40 91 2e 06 	lds	r20, 0x062E
    4108:	50 91 2f 06 	lds	r21, 0x062F
    410c:	80 91 73 05 	lds	r24, 0x0573
    4110:	90 91 74 05 	lds	r25, 0x0574
    4114:	a0 91 75 05 	lds	r26, 0x0575
    4118:	b0 91 76 05 	lds	r27, 0x0576
    411c:	28 17       	cp	r18, r24
    411e:	39 07       	cpc	r19, r25
    4120:	4a 07       	cpc	r20, r26
    4122:	5b 07       	cpc	r21, r27
    4124:	b0 f4       	brcc	.+44     	; 0x4152 <main+0x169a>
    4126:	20 91 4f 05 	lds	r18, 0x054F
    412a:	30 91 50 05 	lds	r19, 0x0550
    412e:	40 91 51 05 	lds	r20, 0x0551
    4132:	50 91 52 05 	lds	r21, 0x0552
    4136:	80 91 73 05 	lds	r24, 0x0573
    413a:	90 91 74 05 	lds	r25, 0x0574
    413e:	a0 91 75 05 	lds	r26, 0x0575
    4142:	b0 91 76 05 	lds	r27, 0x0576
    4146:	28 17       	cp	r18, r24
    4148:	39 07       	cpc	r19, r25
    414a:	4a 07       	cpc	r20, r26
    414c:	5b 07       	cpc	r21, r27
    414e:	09 f0       	breq	.+2      	; 0x4152 <main+0x169a>
    4150:	83 c0       	rjmp	.+262    	; 0x4258 <main+0x17a0>
    4152:	20 91 2c 06 	lds	r18, 0x062C
    4156:	30 91 2d 06 	lds	r19, 0x062D
    415a:	40 91 2e 06 	lds	r20, 0x062E
    415e:	50 91 2f 06 	lds	r21, 0x062F
    4162:	80 91 97 05 	lds	r24, 0x0597
    4166:	90 91 98 05 	lds	r25, 0x0598
    416a:	a0 91 99 05 	lds	r26, 0x0599
    416e:	b0 91 9a 05 	lds	r27, 0x059A
    4172:	28 17       	cp	r18, r24
    4174:	39 07       	cpc	r19, r25
    4176:	4a 07       	cpc	r20, r26
    4178:	5b 07       	cpc	r21, r27
    417a:	58 f1       	brcs	.+86     	; 0x41d2 <main+0x171a>
    417c:	20 91 2c 06 	lds	r18, 0x062C
    4180:	30 91 2d 06 	lds	r19, 0x062D
    4184:	40 91 2e 06 	lds	r20, 0x062E
    4188:	50 91 2f 06 	lds	r21, 0x062F
    418c:	80 91 bb 05 	lds	r24, 0x05BB
    4190:	90 91 bc 05 	lds	r25, 0x05BC
    4194:	a0 91 bd 05 	lds	r26, 0x05BD
    4198:	b0 91 be 05 	lds	r27, 0x05BE
    419c:	28 17       	cp	r18, r24
    419e:	39 07       	cpc	r19, r25
    41a0:	4a 07       	cpc	r20, r26
    41a2:	5b 07       	cpc	r21, r27
    41a4:	b0 f4       	brcc	.+44     	; 0x41d2 <main+0x171a>
    41a6:	20 91 97 05 	lds	r18, 0x0597
    41aa:	30 91 98 05 	lds	r19, 0x0598
    41ae:	40 91 99 05 	lds	r20, 0x0599
    41b2:	50 91 9a 05 	lds	r21, 0x059A
    41b6:	80 91 bb 05 	lds	r24, 0x05BB
    41ba:	90 91 bc 05 	lds	r25, 0x05BC
    41be:	a0 91 bd 05 	lds	r26, 0x05BD
    41c2:	b0 91 be 05 	lds	r27, 0x05BE
    41c6:	28 17       	cp	r18, r24
    41c8:	39 07       	cpc	r19, r25
    41ca:	4a 07       	cpc	r20, r26
    41cc:	5b 07       	cpc	r21, r27
    41ce:	09 f0       	breq	.+2      	; 0x41d2 <main+0x171a>
    41d0:	43 c0       	rjmp	.+134    	; 0x4258 <main+0x17a0>
    41d2:	20 91 2c 06 	lds	r18, 0x062C
    41d6:	30 91 2d 06 	lds	r19, 0x062D
    41da:	40 91 2e 06 	lds	r20, 0x062E
    41de:	50 91 2f 06 	lds	r21, 0x062F
    41e2:	80 91 df 05 	lds	r24, 0x05DF
    41e6:	90 91 e0 05 	lds	r25, 0x05E0
    41ea:	a0 91 e1 05 	lds	r26, 0x05E1
    41ee:	b0 91 e2 05 	lds	r27, 0x05E2
    41f2:	28 17       	cp	r18, r24
    41f4:	39 07       	cpc	r19, r25
    41f6:	4a 07       	cpc	r20, r26
    41f8:	5b 07       	cpc	r21, r27
    41fa:	50 f1       	brcs	.+84     	; 0x4250 <main+0x1798>
    41fc:	20 91 2c 06 	lds	r18, 0x062C
    4200:	30 91 2d 06 	lds	r19, 0x062D
    4204:	40 91 2e 06 	lds	r20, 0x062E
    4208:	50 91 2f 06 	lds	r21, 0x062F
    420c:	80 91 03 06 	lds	r24, 0x0603
    4210:	90 91 04 06 	lds	r25, 0x0604
    4214:	a0 91 05 06 	lds	r26, 0x0605
    4218:	b0 91 06 06 	lds	r27, 0x0606
    421c:	28 17       	cp	r18, r24
    421e:	39 07       	cpc	r19, r25
    4220:	4a 07       	cpc	r20, r26
    4222:	5b 07       	cpc	r21, r27
    4224:	a8 f4       	brcc	.+42     	; 0x4250 <main+0x1798>
    4226:	20 91 df 05 	lds	r18, 0x05DF
    422a:	30 91 e0 05 	lds	r19, 0x05E0
    422e:	40 91 e1 05 	lds	r20, 0x05E1
    4232:	50 91 e2 05 	lds	r21, 0x05E2
    4236:	80 91 03 06 	lds	r24, 0x0603
    423a:	90 91 04 06 	lds	r25, 0x0604
    423e:	a0 91 05 06 	lds	r26, 0x0605
    4242:	b0 91 06 06 	lds	r27, 0x0606
    4246:	28 17       	cp	r18, r24
    4248:	39 07       	cpc	r19, r25
    424a:	4a 07       	cpc	r20, r26
    424c:	5b 07       	cpc	r21, r27
    424e:	21 f4       	brne	.+8      	; 0x4258 <main+0x17a0>
    4250:	80 91 f0 04 	lds	r24, 0x04F0
    4254:	81 30       	cpi	r24, 0x01	; 1
    4256:	11 f4       	brne	.+4      	; 0x425c <main+0x17a4>
					((time_now>=timer2_start[0])&&(time_now<timer2_stop[0])&&(timer2_start[0]!=timer2_stop[0]))||
					((time_now>=timer3_start[0])&&(time_now<timer3_stop[0])&&(timer3_start[0]!=timer3_stop[0]))||
					(rele_set[0]==1)) RELE_PORT_1|=RELE_1;
    4258:	94 9a       	sbi	0x12, 4	; 18
    425a:	03 c0       	rjmp	.+6      	; 0x4262 <main+0x17aa>
				else {RELE_PORT_1&=~RELE_1; rele_set[0]=0;}
    425c:	94 98       	cbi	0x12, 4	; 18
    425e:	10 92 f0 04 	sts	0x04F0, r1
				
				if (((time_now>=timer1_start[1])&&(time_now<timer1_stop[1])&&(timer1_start[1]!=timer1_stop[1]))||
    4262:	20 91 2c 06 	lds	r18, 0x062C
    4266:	30 91 2d 06 	lds	r19, 0x062D
    426a:	40 91 2e 06 	lds	r20, 0x062E
    426e:	50 91 2f 06 	lds	r21, 0x062F
    4272:	80 91 53 05 	lds	r24, 0x0553
    4276:	90 91 54 05 	lds	r25, 0x0554
    427a:	a0 91 55 05 	lds	r26, 0x0555
    427e:	b0 91 56 05 	lds	r27, 0x0556
    4282:	28 17       	cp	r18, r24
    4284:	39 07       	cpc	r19, r25
    4286:	4a 07       	cpc	r20, r26
    4288:	5b 07       	cpc	r21, r27
    428a:	58 f1       	brcs	.+86     	; 0x42e2 <main+0x182a>
    428c:	20 91 2c 06 	lds	r18, 0x062C
    4290:	30 91 2d 06 	lds	r19, 0x062D
    4294:	40 91 2e 06 	lds	r20, 0x062E
    4298:	50 91 2f 06 	lds	r21, 0x062F
    429c:	80 91 77 05 	lds	r24, 0x0577
    42a0:	90 91 78 05 	lds	r25, 0x0578
    42a4:	a0 91 79 05 	lds	r26, 0x0579
    42a8:	b0 91 7a 05 	lds	r27, 0x057A
    42ac:	28 17       	cp	r18, r24
    42ae:	39 07       	cpc	r19, r25
    42b0:	4a 07       	cpc	r20, r26
    42b2:	5b 07       	cpc	r21, r27
    42b4:	b0 f4       	brcc	.+44     	; 0x42e2 <main+0x182a>
    42b6:	20 91 53 05 	lds	r18, 0x0553
    42ba:	30 91 54 05 	lds	r19, 0x0554
    42be:	40 91 55 05 	lds	r20, 0x0555
    42c2:	50 91 56 05 	lds	r21, 0x0556
    42c6:	80 91 77 05 	lds	r24, 0x0577
    42ca:	90 91 78 05 	lds	r25, 0x0578
    42ce:	a0 91 79 05 	lds	r26, 0x0579
    42d2:	b0 91 7a 05 	lds	r27, 0x057A
    42d6:	28 17       	cp	r18, r24
    42d8:	39 07       	cpc	r19, r25
    42da:	4a 07       	cpc	r20, r26
    42dc:	5b 07       	cpc	r21, r27
    42de:	09 f0       	breq	.+2      	; 0x42e2 <main+0x182a>
    42e0:	83 c0       	rjmp	.+262    	; 0x43e8 <main+0x1930>
    42e2:	20 91 2c 06 	lds	r18, 0x062C
    42e6:	30 91 2d 06 	lds	r19, 0x062D
    42ea:	40 91 2e 06 	lds	r20, 0x062E
    42ee:	50 91 2f 06 	lds	r21, 0x062F
    42f2:	80 91 9b 05 	lds	r24, 0x059B
    42f6:	90 91 9c 05 	lds	r25, 0x059C
    42fa:	a0 91 9d 05 	lds	r26, 0x059D
    42fe:	b0 91 9e 05 	lds	r27, 0x059E
    4302:	28 17       	cp	r18, r24
    4304:	39 07       	cpc	r19, r25
    4306:	4a 07       	cpc	r20, r26
    4308:	5b 07       	cpc	r21, r27
    430a:	58 f1       	brcs	.+86     	; 0x4362 <main+0x18aa>
    430c:	20 91 2c 06 	lds	r18, 0x062C
    4310:	30 91 2d 06 	lds	r19, 0x062D
    4314:	40 91 2e 06 	lds	r20, 0x062E
    4318:	50 91 2f 06 	lds	r21, 0x062F
    431c:	80 91 bf 05 	lds	r24, 0x05BF
    4320:	90 91 c0 05 	lds	r25, 0x05C0
    4324:	a0 91 c1 05 	lds	r26, 0x05C1
    4328:	b0 91 c2 05 	lds	r27, 0x05C2
    432c:	28 17       	cp	r18, r24
    432e:	39 07       	cpc	r19, r25
    4330:	4a 07       	cpc	r20, r26
    4332:	5b 07       	cpc	r21, r27
    4334:	b0 f4       	brcc	.+44     	; 0x4362 <main+0x18aa>
    4336:	20 91 9b 05 	lds	r18, 0x059B
    433a:	30 91 9c 05 	lds	r19, 0x059C
    433e:	40 91 9d 05 	lds	r20, 0x059D
    4342:	50 91 9e 05 	lds	r21, 0x059E
    4346:	80 91 bf 05 	lds	r24, 0x05BF
    434a:	90 91 c0 05 	lds	r25, 0x05C0
    434e:	a0 91 c1 05 	lds	r26, 0x05C1
    4352:	b0 91 c2 05 	lds	r27, 0x05C2
    4356:	28 17       	cp	r18, r24
    4358:	39 07       	cpc	r19, r25
    435a:	4a 07       	cpc	r20, r26
    435c:	5b 07       	cpc	r21, r27
    435e:	09 f0       	breq	.+2      	; 0x4362 <main+0x18aa>
    4360:	43 c0       	rjmp	.+134    	; 0x43e8 <main+0x1930>
    4362:	20 91 2c 06 	lds	r18, 0x062C
    4366:	30 91 2d 06 	lds	r19, 0x062D
    436a:	40 91 2e 06 	lds	r20, 0x062E
    436e:	50 91 2f 06 	lds	r21, 0x062F
    4372:	80 91 e3 05 	lds	r24, 0x05E3
    4376:	90 91 e4 05 	lds	r25, 0x05E4
    437a:	a0 91 e5 05 	lds	r26, 0x05E5
    437e:	b0 91 e6 05 	lds	r27, 0x05E6
    4382:	28 17       	cp	r18, r24
    4384:	39 07       	cpc	r19, r25
    4386:	4a 07       	cpc	r20, r26
    4388:	5b 07       	cpc	r21, r27
    438a:	50 f1       	brcs	.+84     	; 0x43e0 <main+0x1928>
    438c:	20 91 2c 06 	lds	r18, 0x062C
    4390:	30 91 2d 06 	lds	r19, 0x062D
    4394:	40 91 2e 06 	lds	r20, 0x062E
    4398:	50 91 2f 06 	lds	r21, 0x062F
    439c:	80 91 07 06 	lds	r24, 0x0607
    43a0:	90 91 08 06 	lds	r25, 0x0608
    43a4:	a0 91 09 06 	lds	r26, 0x0609
    43a8:	b0 91 0a 06 	lds	r27, 0x060A
    43ac:	28 17       	cp	r18, r24
    43ae:	39 07       	cpc	r19, r25
    43b0:	4a 07       	cpc	r20, r26
    43b2:	5b 07       	cpc	r21, r27
    43b4:	a8 f4       	brcc	.+42     	; 0x43e0 <main+0x1928>
    43b6:	20 91 e3 05 	lds	r18, 0x05E3
    43ba:	30 91 e4 05 	lds	r19, 0x05E4
    43be:	40 91 e5 05 	lds	r20, 0x05E5
    43c2:	50 91 e6 05 	lds	r21, 0x05E6
    43c6:	80 91 07 06 	lds	r24, 0x0607
    43ca:	90 91 08 06 	lds	r25, 0x0608
    43ce:	a0 91 09 06 	lds	r26, 0x0609
    43d2:	b0 91 0a 06 	lds	r27, 0x060A
    43d6:	28 17       	cp	r18, r24
    43d8:	39 07       	cpc	r19, r25
    43da:	4a 07       	cpc	r20, r26
    43dc:	5b 07       	cpc	r21, r27
    43de:	21 f4       	brne	.+8      	; 0x43e8 <main+0x1930>
    43e0:	80 91 f1 04 	lds	r24, 0x04F1
    43e4:	81 30       	cpi	r24, 0x01	; 1
    43e6:	11 f4       	brne	.+4      	; 0x43ec <main+0x1934>
					((time_now>=timer2_start[1])&&(time_now<timer2_stop[1])&&(timer2_start[1]!=timer2_stop[1]))||
					((time_now>=timer3_start[1])&&(time_now<timer3_stop[1])&&(timer3_start[1]!=timer3_stop[1]))||
					(rele_set[1]==1)) RELE_PORT_1|=RELE_2;
    43e8:	95 9a       	sbi	0x12, 5	; 18
    43ea:	03 c0       	rjmp	.+6      	; 0x43f2 <main+0x193a>
				else {RELE_PORT_1&=~RELE_2; rele_set[1]=0;}
    43ec:	95 98       	cbi	0x12, 5	; 18
    43ee:	10 92 f1 04 	sts	0x04F1, r1
				
				if (((time_now>=timer1_start[2])&&(time_now<timer1_stop[2])&&(timer1_start[2]!=timer1_stop[2]))||
    43f2:	20 91 2c 06 	lds	r18, 0x062C
    43f6:	30 91 2d 06 	lds	r19, 0x062D
    43fa:	40 91 2e 06 	lds	r20, 0x062E
    43fe:	50 91 2f 06 	lds	r21, 0x062F
    4402:	80 91 57 05 	lds	r24, 0x0557
    4406:	90 91 58 05 	lds	r25, 0x0558
    440a:	a0 91 59 05 	lds	r26, 0x0559
    440e:	b0 91 5a 05 	lds	r27, 0x055A
    4412:	28 17       	cp	r18, r24
    4414:	39 07       	cpc	r19, r25
    4416:	4a 07       	cpc	r20, r26
    4418:	5b 07       	cpc	r21, r27
    441a:	58 f1       	brcs	.+86     	; 0x4472 <main+0x19ba>
    441c:	20 91 2c 06 	lds	r18, 0x062C
    4420:	30 91 2d 06 	lds	r19, 0x062D
    4424:	40 91 2e 06 	lds	r20, 0x062E
    4428:	50 91 2f 06 	lds	r21, 0x062F
    442c:	80 91 7b 05 	lds	r24, 0x057B
    4430:	90 91 7c 05 	lds	r25, 0x057C
    4434:	a0 91 7d 05 	lds	r26, 0x057D
    4438:	b0 91 7e 05 	lds	r27, 0x057E
    443c:	28 17       	cp	r18, r24
    443e:	39 07       	cpc	r19, r25
    4440:	4a 07       	cpc	r20, r26
    4442:	5b 07       	cpc	r21, r27
    4444:	b0 f4       	brcc	.+44     	; 0x4472 <main+0x19ba>
    4446:	20 91 57 05 	lds	r18, 0x0557
    444a:	30 91 58 05 	lds	r19, 0x0558
    444e:	40 91 59 05 	lds	r20, 0x0559
    4452:	50 91 5a 05 	lds	r21, 0x055A
    4456:	80 91 7b 05 	lds	r24, 0x057B
    445a:	90 91 7c 05 	lds	r25, 0x057C
    445e:	a0 91 7d 05 	lds	r26, 0x057D
    4462:	b0 91 7e 05 	lds	r27, 0x057E
    4466:	28 17       	cp	r18, r24
    4468:	39 07       	cpc	r19, r25
    446a:	4a 07       	cpc	r20, r26
    446c:	5b 07       	cpc	r21, r27
    446e:	09 f0       	breq	.+2      	; 0x4472 <main+0x19ba>
    4470:	83 c0       	rjmp	.+262    	; 0x4578 <main+0x1ac0>
    4472:	20 91 2c 06 	lds	r18, 0x062C
    4476:	30 91 2d 06 	lds	r19, 0x062D
    447a:	40 91 2e 06 	lds	r20, 0x062E
    447e:	50 91 2f 06 	lds	r21, 0x062F
    4482:	80 91 9f 05 	lds	r24, 0x059F
    4486:	90 91 a0 05 	lds	r25, 0x05A0
    448a:	a0 91 a1 05 	lds	r26, 0x05A1
    448e:	b0 91 a2 05 	lds	r27, 0x05A2
    4492:	28 17       	cp	r18, r24
    4494:	39 07       	cpc	r19, r25
    4496:	4a 07       	cpc	r20, r26
    4498:	5b 07       	cpc	r21, r27
    449a:	58 f1       	brcs	.+86     	; 0x44f2 <main+0x1a3a>
    449c:	20 91 2c 06 	lds	r18, 0x062C
    44a0:	30 91 2d 06 	lds	r19, 0x062D
    44a4:	40 91 2e 06 	lds	r20, 0x062E
    44a8:	50 91 2f 06 	lds	r21, 0x062F
    44ac:	80 91 c3 05 	lds	r24, 0x05C3
    44b0:	90 91 c4 05 	lds	r25, 0x05C4
    44b4:	a0 91 c5 05 	lds	r26, 0x05C5
    44b8:	b0 91 c6 05 	lds	r27, 0x05C6
    44bc:	28 17       	cp	r18, r24
    44be:	39 07       	cpc	r19, r25
    44c0:	4a 07       	cpc	r20, r26
    44c2:	5b 07       	cpc	r21, r27
    44c4:	b0 f4       	brcc	.+44     	; 0x44f2 <main+0x1a3a>
    44c6:	20 91 9f 05 	lds	r18, 0x059F
    44ca:	30 91 a0 05 	lds	r19, 0x05A0
    44ce:	40 91 a1 05 	lds	r20, 0x05A1
    44d2:	50 91 a2 05 	lds	r21, 0x05A2
    44d6:	80 91 c3 05 	lds	r24, 0x05C3
    44da:	90 91 c4 05 	lds	r25, 0x05C4
    44de:	a0 91 c5 05 	lds	r26, 0x05C5
    44e2:	b0 91 c6 05 	lds	r27, 0x05C6
    44e6:	28 17       	cp	r18, r24
    44e8:	39 07       	cpc	r19, r25
    44ea:	4a 07       	cpc	r20, r26
    44ec:	5b 07       	cpc	r21, r27
    44ee:	09 f0       	breq	.+2      	; 0x44f2 <main+0x1a3a>
    44f0:	43 c0       	rjmp	.+134    	; 0x4578 <main+0x1ac0>
    44f2:	20 91 2c 06 	lds	r18, 0x062C
    44f6:	30 91 2d 06 	lds	r19, 0x062D
    44fa:	40 91 2e 06 	lds	r20, 0x062E
    44fe:	50 91 2f 06 	lds	r21, 0x062F
    4502:	80 91 e7 05 	lds	r24, 0x05E7
    4506:	90 91 e8 05 	lds	r25, 0x05E8
    450a:	a0 91 e9 05 	lds	r26, 0x05E9
    450e:	b0 91 ea 05 	lds	r27, 0x05EA
    4512:	28 17       	cp	r18, r24
    4514:	39 07       	cpc	r19, r25
    4516:	4a 07       	cpc	r20, r26
    4518:	5b 07       	cpc	r21, r27
    451a:	50 f1       	brcs	.+84     	; 0x4570 <main+0x1ab8>
    451c:	20 91 2c 06 	lds	r18, 0x062C
    4520:	30 91 2d 06 	lds	r19, 0x062D
    4524:	40 91 2e 06 	lds	r20, 0x062E
    4528:	50 91 2f 06 	lds	r21, 0x062F
    452c:	80 91 0b 06 	lds	r24, 0x060B
    4530:	90 91 0c 06 	lds	r25, 0x060C
    4534:	a0 91 0d 06 	lds	r26, 0x060D
    4538:	b0 91 0e 06 	lds	r27, 0x060E
    453c:	28 17       	cp	r18, r24
    453e:	39 07       	cpc	r19, r25
    4540:	4a 07       	cpc	r20, r26
    4542:	5b 07       	cpc	r21, r27
    4544:	a8 f4       	brcc	.+42     	; 0x4570 <main+0x1ab8>
    4546:	20 91 e7 05 	lds	r18, 0x05E7
    454a:	30 91 e8 05 	lds	r19, 0x05E8
    454e:	40 91 e9 05 	lds	r20, 0x05E9
    4552:	50 91 ea 05 	lds	r21, 0x05EA
    4556:	80 91 0b 06 	lds	r24, 0x060B
    455a:	90 91 0c 06 	lds	r25, 0x060C
    455e:	a0 91 0d 06 	lds	r26, 0x060D
    4562:	b0 91 0e 06 	lds	r27, 0x060E
    4566:	28 17       	cp	r18, r24
    4568:	39 07       	cpc	r19, r25
    456a:	4a 07       	cpc	r20, r26
    456c:	5b 07       	cpc	r21, r27
    456e:	21 f4       	brne	.+8      	; 0x4578 <main+0x1ac0>
    4570:	80 91 f2 04 	lds	r24, 0x04F2
    4574:	81 30       	cpi	r24, 0x01	; 1
    4576:	11 f4       	brne	.+4      	; 0x457c <main+0x1ac4>
					((time_now>=timer2_start[2])&&(time_now<timer2_stop[2])&&(timer2_start[2]!=timer2_stop[2]))||
					((time_now>=timer3_start[2])&&(time_now<timer3_stop[2])&&(timer3_start[2]!=timer3_stop[2]))||
					(rele_set[2]==1)) RELE_PORT_1|=RELE_3;
    4578:	96 9a       	sbi	0x12, 6	; 18
    457a:	03 c0       	rjmp	.+6      	; 0x4582 <main+0x1aca>
				else {RELE_PORT_1&=~RELE_3; rele_set[2]=0;}
    457c:	96 98       	cbi	0x12, 6	; 18
    457e:	10 92 f2 04 	sts	0x04F2, r1
				
				if (((time_now>=timer1_start[3])&&(time_now<timer1_stop[3])&&(timer1_start[3]!=timer1_stop[3]))||
    4582:	20 91 2c 06 	lds	r18, 0x062C
    4586:	30 91 2d 06 	lds	r19, 0x062D
    458a:	40 91 2e 06 	lds	r20, 0x062E
    458e:	50 91 2f 06 	lds	r21, 0x062F
    4592:	80 91 5b 05 	lds	r24, 0x055B
    4596:	90 91 5c 05 	lds	r25, 0x055C
    459a:	a0 91 5d 05 	lds	r26, 0x055D
    459e:	b0 91 5e 05 	lds	r27, 0x055E
    45a2:	28 17       	cp	r18, r24
    45a4:	39 07       	cpc	r19, r25
    45a6:	4a 07       	cpc	r20, r26
    45a8:	5b 07       	cpc	r21, r27
    45aa:	58 f1       	brcs	.+86     	; 0x4602 <main+0x1b4a>
    45ac:	20 91 2c 06 	lds	r18, 0x062C
    45b0:	30 91 2d 06 	lds	r19, 0x062D
    45b4:	40 91 2e 06 	lds	r20, 0x062E
    45b8:	50 91 2f 06 	lds	r21, 0x062F
    45bc:	80 91 7f 05 	lds	r24, 0x057F
    45c0:	90 91 80 05 	lds	r25, 0x0580
    45c4:	a0 91 81 05 	lds	r26, 0x0581
    45c8:	b0 91 82 05 	lds	r27, 0x0582
    45cc:	28 17       	cp	r18, r24
    45ce:	39 07       	cpc	r19, r25
    45d0:	4a 07       	cpc	r20, r26
    45d2:	5b 07       	cpc	r21, r27
    45d4:	b0 f4       	brcc	.+44     	; 0x4602 <main+0x1b4a>
    45d6:	20 91 5b 05 	lds	r18, 0x055B
    45da:	30 91 5c 05 	lds	r19, 0x055C
    45de:	40 91 5d 05 	lds	r20, 0x055D
    45e2:	50 91 5e 05 	lds	r21, 0x055E
    45e6:	80 91 7f 05 	lds	r24, 0x057F
    45ea:	90 91 80 05 	lds	r25, 0x0580
    45ee:	a0 91 81 05 	lds	r26, 0x0581
    45f2:	b0 91 82 05 	lds	r27, 0x0582
    45f6:	28 17       	cp	r18, r24
    45f8:	39 07       	cpc	r19, r25
    45fa:	4a 07       	cpc	r20, r26
    45fc:	5b 07       	cpc	r21, r27
    45fe:	09 f0       	breq	.+2      	; 0x4602 <main+0x1b4a>
    4600:	83 c0       	rjmp	.+262    	; 0x4708 <main+0x1c50>
    4602:	20 91 2c 06 	lds	r18, 0x062C
    4606:	30 91 2d 06 	lds	r19, 0x062D
    460a:	40 91 2e 06 	lds	r20, 0x062E
    460e:	50 91 2f 06 	lds	r21, 0x062F
    4612:	80 91 a3 05 	lds	r24, 0x05A3
    4616:	90 91 a4 05 	lds	r25, 0x05A4
    461a:	a0 91 a5 05 	lds	r26, 0x05A5
    461e:	b0 91 a6 05 	lds	r27, 0x05A6
    4622:	28 17       	cp	r18, r24
    4624:	39 07       	cpc	r19, r25
    4626:	4a 07       	cpc	r20, r26
    4628:	5b 07       	cpc	r21, r27
    462a:	58 f1       	brcs	.+86     	; 0x4682 <main+0x1bca>
    462c:	20 91 2c 06 	lds	r18, 0x062C
    4630:	30 91 2d 06 	lds	r19, 0x062D
    4634:	40 91 2e 06 	lds	r20, 0x062E
    4638:	50 91 2f 06 	lds	r21, 0x062F
    463c:	80 91 c7 05 	lds	r24, 0x05C7
    4640:	90 91 c8 05 	lds	r25, 0x05C8
    4644:	a0 91 c9 05 	lds	r26, 0x05C9
    4648:	b0 91 ca 05 	lds	r27, 0x05CA
    464c:	28 17       	cp	r18, r24
    464e:	39 07       	cpc	r19, r25
    4650:	4a 07       	cpc	r20, r26
    4652:	5b 07       	cpc	r21, r27
    4654:	b0 f4       	brcc	.+44     	; 0x4682 <main+0x1bca>
    4656:	20 91 a3 05 	lds	r18, 0x05A3
    465a:	30 91 a4 05 	lds	r19, 0x05A4
    465e:	40 91 a5 05 	lds	r20, 0x05A5
    4662:	50 91 a6 05 	lds	r21, 0x05A6
    4666:	80 91 c7 05 	lds	r24, 0x05C7
    466a:	90 91 c8 05 	lds	r25, 0x05C8
    466e:	a0 91 c9 05 	lds	r26, 0x05C9
    4672:	b0 91 ca 05 	lds	r27, 0x05CA
    4676:	28 17       	cp	r18, r24
    4678:	39 07       	cpc	r19, r25
    467a:	4a 07       	cpc	r20, r26
    467c:	5b 07       	cpc	r21, r27
    467e:	09 f0       	breq	.+2      	; 0x4682 <main+0x1bca>
    4680:	43 c0       	rjmp	.+134    	; 0x4708 <main+0x1c50>
    4682:	20 91 2c 06 	lds	r18, 0x062C
    4686:	30 91 2d 06 	lds	r19, 0x062D
    468a:	40 91 2e 06 	lds	r20, 0x062E
    468e:	50 91 2f 06 	lds	r21, 0x062F
    4692:	80 91 eb 05 	lds	r24, 0x05EB
    4696:	90 91 ec 05 	lds	r25, 0x05EC
    469a:	a0 91 ed 05 	lds	r26, 0x05ED
    469e:	b0 91 ee 05 	lds	r27, 0x05EE
    46a2:	28 17       	cp	r18, r24
    46a4:	39 07       	cpc	r19, r25
    46a6:	4a 07       	cpc	r20, r26
    46a8:	5b 07       	cpc	r21, r27
    46aa:	50 f1       	brcs	.+84     	; 0x4700 <main+0x1c48>
    46ac:	20 91 2c 06 	lds	r18, 0x062C
    46b0:	30 91 2d 06 	lds	r19, 0x062D
    46b4:	40 91 2e 06 	lds	r20, 0x062E
    46b8:	50 91 2f 06 	lds	r21, 0x062F
    46bc:	80 91 0f 06 	lds	r24, 0x060F
    46c0:	90 91 10 06 	lds	r25, 0x0610
    46c4:	a0 91 11 06 	lds	r26, 0x0611
    46c8:	b0 91 12 06 	lds	r27, 0x0612
    46cc:	28 17       	cp	r18, r24
    46ce:	39 07       	cpc	r19, r25
    46d0:	4a 07       	cpc	r20, r26
    46d2:	5b 07       	cpc	r21, r27
    46d4:	a8 f4       	brcc	.+42     	; 0x4700 <main+0x1c48>
    46d6:	20 91 eb 05 	lds	r18, 0x05EB
    46da:	30 91 ec 05 	lds	r19, 0x05EC
    46de:	40 91 ed 05 	lds	r20, 0x05ED
    46e2:	50 91 ee 05 	lds	r21, 0x05EE
    46e6:	80 91 0f 06 	lds	r24, 0x060F
    46ea:	90 91 10 06 	lds	r25, 0x0610
    46ee:	a0 91 11 06 	lds	r26, 0x0611
    46f2:	b0 91 12 06 	lds	r27, 0x0612
    46f6:	28 17       	cp	r18, r24
    46f8:	39 07       	cpc	r19, r25
    46fa:	4a 07       	cpc	r20, r26
    46fc:	5b 07       	cpc	r21, r27
    46fe:	21 f4       	brne	.+8      	; 0x4708 <main+0x1c50>
    4700:	80 91 f3 04 	lds	r24, 0x04F3
    4704:	81 30       	cpi	r24, 0x01	; 1
    4706:	11 f4       	brne	.+4      	; 0x470c <main+0x1c54>
					((time_now>=timer2_start[3])&&(time_now<timer2_stop[3])&&(timer2_start[3]!=timer2_stop[3]))||
					((time_now>=timer3_start[3])&&(time_now<timer3_stop[3])&&(timer3_start[3]!=timer3_stop[3]))||
					(rele_set[3]==1)) RELE_PORT_1|=RELE_4;
    4708:	97 9a       	sbi	0x12, 7	; 18
    470a:	03 c0       	rjmp	.+6      	; 0x4712 <main+0x1c5a>
				else {RELE_PORT_1&=~RELE_4; rele_set[3]=0;}
    470c:	97 98       	cbi	0x12, 7	; 18
    470e:	10 92 f3 04 	sts	0x04F3, r1
				
				if (((time_now>=timer1_start[4])&&(time_now<timer1_stop[4])&&(timer1_start[4]!=timer1_stop[4]))||
    4712:	20 91 2c 06 	lds	r18, 0x062C
    4716:	30 91 2d 06 	lds	r19, 0x062D
    471a:	40 91 2e 06 	lds	r20, 0x062E
    471e:	50 91 2f 06 	lds	r21, 0x062F
    4722:	80 91 5f 05 	lds	r24, 0x055F
    4726:	90 91 60 05 	lds	r25, 0x0560
    472a:	a0 91 61 05 	lds	r26, 0x0561
    472e:	b0 91 62 05 	lds	r27, 0x0562
    4732:	28 17       	cp	r18, r24
    4734:	39 07       	cpc	r19, r25
    4736:	4a 07       	cpc	r20, r26
    4738:	5b 07       	cpc	r21, r27
    473a:	58 f1       	brcs	.+86     	; 0x4792 <main+0x1cda>
    473c:	20 91 2c 06 	lds	r18, 0x062C
    4740:	30 91 2d 06 	lds	r19, 0x062D
    4744:	40 91 2e 06 	lds	r20, 0x062E
    4748:	50 91 2f 06 	lds	r21, 0x062F
    474c:	80 91 83 05 	lds	r24, 0x0583
    4750:	90 91 84 05 	lds	r25, 0x0584
    4754:	a0 91 85 05 	lds	r26, 0x0585
    4758:	b0 91 86 05 	lds	r27, 0x0586
    475c:	28 17       	cp	r18, r24
    475e:	39 07       	cpc	r19, r25
    4760:	4a 07       	cpc	r20, r26
    4762:	5b 07       	cpc	r21, r27
    4764:	b0 f4       	brcc	.+44     	; 0x4792 <main+0x1cda>
    4766:	20 91 5f 05 	lds	r18, 0x055F
    476a:	30 91 60 05 	lds	r19, 0x0560
    476e:	40 91 61 05 	lds	r20, 0x0561
    4772:	50 91 62 05 	lds	r21, 0x0562
    4776:	80 91 83 05 	lds	r24, 0x0583
    477a:	90 91 84 05 	lds	r25, 0x0584
    477e:	a0 91 85 05 	lds	r26, 0x0585
    4782:	b0 91 86 05 	lds	r27, 0x0586
    4786:	28 17       	cp	r18, r24
    4788:	39 07       	cpc	r19, r25
    478a:	4a 07       	cpc	r20, r26
    478c:	5b 07       	cpc	r21, r27
    478e:	09 f0       	breq	.+2      	; 0x4792 <main+0x1cda>
    4790:	83 c0       	rjmp	.+262    	; 0x4898 <main+0x1de0>
    4792:	20 91 2c 06 	lds	r18, 0x062C
    4796:	30 91 2d 06 	lds	r19, 0x062D
    479a:	40 91 2e 06 	lds	r20, 0x062E
    479e:	50 91 2f 06 	lds	r21, 0x062F
    47a2:	80 91 a7 05 	lds	r24, 0x05A7
    47a6:	90 91 a8 05 	lds	r25, 0x05A8
    47aa:	a0 91 a9 05 	lds	r26, 0x05A9
    47ae:	b0 91 aa 05 	lds	r27, 0x05AA
    47b2:	28 17       	cp	r18, r24
    47b4:	39 07       	cpc	r19, r25
    47b6:	4a 07       	cpc	r20, r26
    47b8:	5b 07       	cpc	r21, r27
    47ba:	58 f1       	brcs	.+86     	; 0x4812 <main+0x1d5a>
    47bc:	20 91 2c 06 	lds	r18, 0x062C
    47c0:	30 91 2d 06 	lds	r19, 0x062D
    47c4:	40 91 2e 06 	lds	r20, 0x062E
    47c8:	50 91 2f 06 	lds	r21, 0x062F
    47cc:	80 91 cb 05 	lds	r24, 0x05CB
    47d0:	90 91 cc 05 	lds	r25, 0x05CC
    47d4:	a0 91 cd 05 	lds	r26, 0x05CD
    47d8:	b0 91 ce 05 	lds	r27, 0x05CE
    47dc:	28 17       	cp	r18, r24
    47de:	39 07       	cpc	r19, r25
    47e0:	4a 07       	cpc	r20, r26
    47e2:	5b 07       	cpc	r21, r27
    47e4:	b0 f4       	brcc	.+44     	; 0x4812 <main+0x1d5a>
    47e6:	20 91 a7 05 	lds	r18, 0x05A7
    47ea:	30 91 a8 05 	lds	r19, 0x05A8
    47ee:	40 91 a9 05 	lds	r20, 0x05A9
    47f2:	50 91 aa 05 	lds	r21, 0x05AA
    47f6:	80 91 cb 05 	lds	r24, 0x05CB
    47fa:	90 91 cc 05 	lds	r25, 0x05CC
    47fe:	a0 91 cd 05 	lds	r26, 0x05CD
    4802:	b0 91 ce 05 	lds	r27, 0x05CE
    4806:	28 17       	cp	r18, r24
    4808:	39 07       	cpc	r19, r25
    480a:	4a 07       	cpc	r20, r26
    480c:	5b 07       	cpc	r21, r27
    480e:	09 f0       	breq	.+2      	; 0x4812 <main+0x1d5a>
    4810:	43 c0       	rjmp	.+134    	; 0x4898 <main+0x1de0>
    4812:	20 91 2c 06 	lds	r18, 0x062C
    4816:	30 91 2d 06 	lds	r19, 0x062D
    481a:	40 91 2e 06 	lds	r20, 0x062E
    481e:	50 91 2f 06 	lds	r21, 0x062F
    4822:	80 91 ef 05 	lds	r24, 0x05EF
    4826:	90 91 f0 05 	lds	r25, 0x05F0
    482a:	a0 91 f1 05 	lds	r26, 0x05F1
    482e:	b0 91 f2 05 	lds	r27, 0x05F2
    4832:	28 17       	cp	r18, r24
    4834:	39 07       	cpc	r19, r25
    4836:	4a 07       	cpc	r20, r26
    4838:	5b 07       	cpc	r21, r27
    483a:	50 f1       	brcs	.+84     	; 0x4890 <main+0x1dd8>
    483c:	20 91 2c 06 	lds	r18, 0x062C
    4840:	30 91 2d 06 	lds	r19, 0x062D
    4844:	40 91 2e 06 	lds	r20, 0x062E
    4848:	50 91 2f 06 	lds	r21, 0x062F
    484c:	80 91 13 06 	lds	r24, 0x0613
    4850:	90 91 14 06 	lds	r25, 0x0614
    4854:	a0 91 15 06 	lds	r26, 0x0615
    4858:	b0 91 16 06 	lds	r27, 0x0616
    485c:	28 17       	cp	r18, r24
    485e:	39 07       	cpc	r19, r25
    4860:	4a 07       	cpc	r20, r26
    4862:	5b 07       	cpc	r21, r27
    4864:	a8 f4       	brcc	.+42     	; 0x4890 <main+0x1dd8>
    4866:	20 91 ef 05 	lds	r18, 0x05EF
    486a:	30 91 f0 05 	lds	r19, 0x05F0
    486e:	40 91 f1 05 	lds	r20, 0x05F1
    4872:	50 91 f2 05 	lds	r21, 0x05F2
    4876:	80 91 13 06 	lds	r24, 0x0613
    487a:	90 91 14 06 	lds	r25, 0x0614
    487e:	a0 91 15 06 	lds	r26, 0x0615
    4882:	b0 91 16 06 	lds	r27, 0x0616
    4886:	28 17       	cp	r18, r24
    4888:	39 07       	cpc	r19, r25
    488a:	4a 07       	cpc	r20, r26
    488c:	5b 07       	cpc	r21, r27
    488e:	21 f4       	brne	.+8      	; 0x4898 <main+0x1de0>
    4890:	80 91 f4 04 	lds	r24, 0x04F4
    4894:	81 30       	cpi	r24, 0x01	; 1
    4896:	11 f4       	brne	.+4      	; 0x489c <main+0x1de4>
					((time_now>=timer2_start[4])&&(time_now<timer2_stop[4])&&(timer2_start[4]!=timer2_stop[4]))||
					((time_now>=timer3_start[4])&&(time_now<timer3_stop[4])&&(timer3_start[4]!=timer3_stop[4]))||
					(rele_set[4]==1)) RELE_PORT_2|=RELE_5;
    4898:	a8 9a       	sbi	0x15, 0	; 21
    489a:	03 c0       	rjmp	.+6      	; 0x48a2 <main+0x1dea>
				else {RELE_PORT_2&=~RELE_5; rele_set[4]=0;}
    489c:	a8 98       	cbi	0x15, 0	; 21
    489e:	10 92 f4 04 	sts	0x04F4, r1
				
				if (((time_now>=timer1_start[5])&&(time_now<timer1_stop[5])&&(timer1_start[5]!=timer1_stop[5]))||
    48a2:	20 91 2c 06 	lds	r18, 0x062C
    48a6:	30 91 2d 06 	lds	r19, 0x062D
    48aa:	40 91 2e 06 	lds	r20, 0x062E
    48ae:	50 91 2f 06 	lds	r21, 0x062F
    48b2:	80 91 63 05 	lds	r24, 0x0563
    48b6:	90 91 64 05 	lds	r25, 0x0564
    48ba:	a0 91 65 05 	lds	r26, 0x0565
    48be:	b0 91 66 05 	lds	r27, 0x0566
    48c2:	28 17       	cp	r18, r24
    48c4:	39 07       	cpc	r19, r25
    48c6:	4a 07       	cpc	r20, r26
    48c8:	5b 07       	cpc	r21, r27
    48ca:	58 f1       	brcs	.+86     	; 0x4922 <main+0x1e6a>
    48cc:	20 91 2c 06 	lds	r18, 0x062C
    48d0:	30 91 2d 06 	lds	r19, 0x062D
    48d4:	40 91 2e 06 	lds	r20, 0x062E
    48d8:	50 91 2f 06 	lds	r21, 0x062F
    48dc:	80 91 87 05 	lds	r24, 0x0587
    48e0:	90 91 88 05 	lds	r25, 0x0588
    48e4:	a0 91 89 05 	lds	r26, 0x0589
    48e8:	b0 91 8a 05 	lds	r27, 0x058A
    48ec:	28 17       	cp	r18, r24
    48ee:	39 07       	cpc	r19, r25
    48f0:	4a 07       	cpc	r20, r26
    48f2:	5b 07       	cpc	r21, r27
    48f4:	b0 f4       	brcc	.+44     	; 0x4922 <main+0x1e6a>
    48f6:	20 91 63 05 	lds	r18, 0x0563
    48fa:	30 91 64 05 	lds	r19, 0x0564
    48fe:	40 91 65 05 	lds	r20, 0x0565
    4902:	50 91 66 05 	lds	r21, 0x0566
    4906:	80 91 87 05 	lds	r24, 0x0587
    490a:	90 91 88 05 	lds	r25, 0x0588
    490e:	a0 91 89 05 	lds	r26, 0x0589
    4912:	b0 91 8a 05 	lds	r27, 0x058A
    4916:	28 17       	cp	r18, r24
    4918:	39 07       	cpc	r19, r25
    491a:	4a 07       	cpc	r20, r26
    491c:	5b 07       	cpc	r21, r27
    491e:	09 f0       	breq	.+2      	; 0x4922 <main+0x1e6a>
    4920:	83 c0       	rjmp	.+262    	; 0x4a28 <main+0x1f70>
    4922:	20 91 2c 06 	lds	r18, 0x062C
    4926:	30 91 2d 06 	lds	r19, 0x062D
    492a:	40 91 2e 06 	lds	r20, 0x062E
    492e:	50 91 2f 06 	lds	r21, 0x062F
    4932:	80 91 ab 05 	lds	r24, 0x05AB
    4936:	90 91 ac 05 	lds	r25, 0x05AC
    493a:	a0 91 ad 05 	lds	r26, 0x05AD
    493e:	b0 91 ae 05 	lds	r27, 0x05AE
    4942:	28 17       	cp	r18, r24
    4944:	39 07       	cpc	r19, r25
    4946:	4a 07       	cpc	r20, r26
    4948:	5b 07       	cpc	r21, r27
    494a:	58 f1       	brcs	.+86     	; 0x49a2 <main+0x1eea>
    494c:	20 91 2c 06 	lds	r18, 0x062C
    4950:	30 91 2d 06 	lds	r19, 0x062D
    4954:	40 91 2e 06 	lds	r20, 0x062E
    4958:	50 91 2f 06 	lds	r21, 0x062F
    495c:	80 91 cf 05 	lds	r24, 0x05CF
    4960:	90 91 d0 05 	lds	r25, 0x05D0
    4964:	a0 91 d1 05 	lds	r26, 0x05D1
    4968:	b0 91 d2 05 	lds	r27, 0x05D2
    496c:	28 17       	cp	r18, r24
    496e:	39 07       	cpc	r19, r25
    4970:	4a 07       	cpc	r20, r26
    4972:	5b 07       	cpc	r21, r27
    4974:	b0 f4       	brcc	.+44     	; 0x49a2 <main+0x1eea>
    4976:	20 91 ab 05 	lds	r18, 0x05AB
    497a:	30 91 ac 05 	lds	r19, 0x05AC
    497e:	40 91 ad 05 	lds	r20, 0x05AD
    4982:	50 91 ae 05 	lds	r21, 0x05AE
    4986:	80 91 cf 05 	lds	r24, 0x05CF
    498a:	90 91 d0 05 	lds	r25, 0x05D0
    498e:	a0 91 d1 05 	lds	r26, 0x05D1
    4992:	b0 91 d2 05 	lds	r27, 0x05D2
    4996:	28 17       	cp	r18, r24
    4998:	39 07       	cpc	r19, r25
    499a:	4a 07       	cpc	r20, r26
    499c:	5b 07       	cpc	r21, r27
    499e:	09 f0       	breq	.+2      	; 0x49a2 <main+0x1eea>
    49a0:	43 c0       	rjmp	.+134    	; 0x4a28 <main+0x1f70>
    49a2:	20 91 2c 06 	lds	r18, 0x062C
    49a6:	30 91 2d 06 	lds	r19, 0x062D
    49aa:	40 91 2e 06 	lds	r20, 0x062E
    49ae:	50 91 2f 06 	lds	r21, 0x062F
    49b2:	80 91 f3 05 	lds	r24, 0x05F3
    49b6:	90 91 f4 05 	lds	r25, 0x05F4
    49ba:	a0 91 f5 05 	lds	r26, 0x05F5
    49be:	b0 91 f6 05 	lds	r27, 0x05F6
    49c2:	28 17       	cp	r18, r24
    49c4:	39 07       	cpc	r19, r25
    49c6:	4a 07       	cpc	r20, r26
    49c8:	5b 07       	cpc	r21, r27
    49ca:	50 f1       	brcs	.+84     	; 0x4a20 <main+0x1f68>
    49cc:	20 91 2c 06 	lds	r18, 0x062C
    49d0:	30 91 2d 06 	lds	r19, 0x062D
    49d4:	40 91 2e 06 	lds	r20, 0x062E
    49d8:	50 91 2f 06 	lds	r21, 0x062F
    49dc:	80 91 17 06 	lds	r24, 0x0617
    49e0:	90 91 18 06 	lds	r25, 0x0618
    49e4:	a0 91 19 06 	lds	r26, 0x0619
    49e8:	b0 91 1a 06 	lds	r27, 0x061A
    49ec:	28 17       	cp	r18, r24
    49ee:	39 07       	cpc	r19, r25
    49f0:	4a 07       	cpc	r20, r26
    49f2:	5b 07       	cpc	r21, r27
    49f4:	a8 f4       	brcc	.+42     	; 0x4a20 <main+0x1f68>
    49f6:	20 91 f3 05 	lds	r18, 0x05F3
    49fa:	30 91 f4 05 	lds	r19, 0x05F4
    49fe:	40 91 f5 05 	lds	r20, 0x05F5
    4a02:	50 91 f6 05 	lds	r21, 0x05F6
    4a06:	80 91 17 06 	lds	r24, 0x0617
    4a0a:	90 91 18 06 	lds	r25, 0x0618
    4a0e:	a0 91 19 06 	lds	r26, 0x0619
    4a12:	b0 91 1a 06 	lds	r27, 0x061A
    4a16:	28 17       	cp	r18, r24
    4a18:	39 07       	cpc	r19, r25
    4a1a:	4a 07       	cpc	r20, r26
    4a1c:	5b 07       	cpc	r21, r27
    4a1e:	21 f4       	brne	.+8      	; 0x4a28 <main+0x1f70>
    4a20:	80 91 f5 04 	lds	r24, 0x04F5
    4a24:	81 30       	cpi	r24, 0x01	; 1
    4a26:	89 f4       	brne	.+34     	; 0x4a4a <main+0x1f92>
					((time_now>=timer2_start[5])&&(time_now<timer2_stop[5])&&(timer2_start[5]!=timer2_stop[5]))||
					((time_now>=timer3_start[5])&&(time_now<timer3_stop[5])&&(timer3_start[5]!=timer3_stop[5]))||
					(rele_set[5]==1)) 
					{
						if(!temp_control) RELE_PORT_2|=RELE_6; 
    4a28:	80 91 e8 04 	lds	r24, 0x04E8
    4a2c:	88 23       	and	r24, r24
    4a2e:	09 f4       	brne	.+2      	; 0x4a32 <main+0x1f7a>
    4a30:	a9 9a       	sbi	0x15, 1	; 21
						heater_timer_status=1; // флаг - режим таймеров
    4a32:	81 e0       	ldi	r24, 0x01	; 1
    4a34:	80 93 3a 06 	sts	0x063A, r24
						// если отключен температурный и ручной режимы
						if((heater_chanel_status!=0x32)&&(heater_chanel_status!=0x33)) heater_chanel_status=0x31; // флаг - режим таймеров
    4a38:	80 91 40 06 	lds	r24, 0x0640
    4a3c:	82 53       	subi	r24, 0x32	; 50
    4a3e:	82 30       	cpi	r24, 0x02	; 2
    4a40:	48 f0       	brcs	.+18     	; 0x4a54 <main+0x1f9c>
    4a42:	81 e3       	ldi	r24, 0x31	; 49
    4a44:	80 93 40 06 	sts	0x0640, r24
    4a48:	05 c0       	rjmp	.+10     	; 0x4a54 <main+0x1f9c>
					} 
				else {RELE_PORT_2&=~RELE_6; rele_set[5]=0; heater_timer_status=0;}
    4a4a:	a9 98       	cbi	0x15, 1	; 21
    4a4c:	10 92 f5 04 	sts	0x04F5, r1
    4a50:	10 92 3a 06 	sts	0x063A, r1
				
				if (((time_now>=timer1_start[6])&&(time_now<timer1_stop[6])&&(timer1_start[6]!=timer1_stop[6]))||
    4a54:	20 91 2c 06 	lds	r18, 0x062C
    4a58:	30 91 2d 06 	lds	r19, 0x062D
    4a5c:	40 91 2e 06 	lds	r20, 0x062E
    4a60:	50 91 2f 06 	lds	r21, 0x062F
    4a64:	80 91 67 05 	lds	r24, 0x0567
    4a68:	90 91 68 05 	lds	r25, 0x0568
    4a6c:	a0 91 69 05 	lds	r26, 0x0569
    4a70:	b0 91 6a 05 	lds	r27, 0x056A
    4a74:	28 17       	cp	r18, r24
    4a76:	39 07       	cpc	r19, r25
    4a78:	4a 07       	cpc	r20, r26
    4a7a:	5b 07       	cpc	r21, r27
    4a7c:	58 f1       	brcs	.+86     	; 0x4ad4 <main+0x201c>
    4a7e:	20 91 2c 06 	lds	r18, 0x062C
    4a82:	30 91 2d 06 	lds	r19, 0x062D
    4a86:	40 91 2e 06 	lds	r20, 0x062E
    4a8a:	50 91 2f 06 	lds	r21, 0x062F
    4a8e:	80 91 8b 05 	lds	r24, 0x058B
    4a92:	90 91 8c 05 	lds	r25, 0x058C
    4a96:	a0 91 8d 05 	lds	r26, 0x058D
    4a9a:	b0 91 8e 05 	lds	r27, 0x058E
    4a9e:	28 17       	cp	r18, r24
    4aa0:	39 07       	cpc	r19, r25
    4aa2:	4a 07       	cpc	r20, r26
    4aa4:	5b 07       	cpc	r21, r27
    4aa6:	b0 f4       	brcc	.+44     	; 0x4ad4 <main+0x201c>
    4aa8:	20 91 67 05 	lds	r18, 0x0567
    4aac:	30 91 68 05 	lds	r19, 0x0568
    4ab0:	40 91 69 05 	lds	r20, 0x0569
    4ab4:	50 91 6a 05 	lds	r21, 0x056A
    4ab8:	80 91 8b 05 	lds	r24, 0x058B
    4abc:	90 91 8c 05 	lds	r25, 0x058C
    4ac0:	a0 91 8d 05 	lds	r26, 0x058D
    4ac4:	b0 91 8e 05 	lds	r27, 0x058E
    4ac8:	28 17       	cp	r18, r24
    4aca:	39 07       	cpc	r19, r25
    4acc:	4a 07       	cpc	r20, r26
    4ace:	5b 07       	cpc	r21, r27
    4ad0:	09 f0       	breq	.+2      	; 0x4ad4 <main+0x201c>
    4ad2:	83 c0       	rjmp	.+262    	; 0x4bda <main+0x2122>
    4ad4:	20 91 2c 06 	lds	r18, 0x062C
    4ad8:	30 91 2d 06 	lds	r19, 0x062D
    4adc:	40 91 2e 06 	lds	r20, 0x062E
    4ae0:	50 91 2f 06 	lds	r21, 0x062F
    4ae4:	80 91 af 05 	lds	r24, 0x05AF
    4ae8:	90 91 b0 05 	lds	r25, 0x05B0
    4aec:	a0 91 b1 05 	lds	r26, 0x05B1
    4af0:	b0 91 b2 05 	lds	r27, 0x05B2
    4af4:	28 17       	cp	r18, r24
    4af6:	39 07       	cpc	r19, r25
    4af8:	4a 07       	cpc	r20, r26
    4afa:	5b 07       	cpc	r21, r27
    4afc:	58 f1       	brcs	.+86     	; 0x4b54 <main+0x209c>
    4afe:	20 91 2c 06 	lds	r18, 0x062C
    4b02:	30 91 2d 06 	lds	r19, 0x062D
    4b06:	40 91 2e 06 	lds	r20, 0x062E
    4b0a:	50 91 2f 06 	lds	r21, 0x062F
    4b0e:	80 91 d3 05 	lds	r24, 0x05D3
    4b12:	90 91 d4 05 	lds	r25, 0x05D4
    4b16:	a0 91 d5 05 	lds	r26, 0x05D5
    4b1a:	b0 91 d6 05 	lds	r27, 0x05D6
    4b1e:	28 17       	cp	r18, r24
    4b20:	39 07       	cpc	r19, r25
    4b22:	4a 07       	cpc	r20, r26
    4b24:	5b 07       	cpc	r21, r27
    4b26:	b0 f4       	brcc	.+44     	; 0x4b54 <main+0x209c>
    4b28:	20 91 af 05 	lds	r18, 0x05AF
    4b2c:	30 91 b0 05 	lds	r19, 0x05B0
    4b30:	40 91 b1 05 	lds	r20, 0x05B1
    4b34:	50 91 b2 05 	lds	r21, 0x05B2
    4b38:	80 91 d3 05 	lds	r24, 0x05D3
    4b3c:	90 91 d4 05 	lds	r25, 0x05D4
    4b40:	a0 91 d5 05 	lds	r26, 0x05D5
    4b44:	b0 91 d6 05 	lds	r27, 0x05D6
    4b48:	28 17       	cp	r18, r24
    4b4a:	39 07       	cpc	r19, r25
    4b4c:	4a 07       	cpc	r20, r26
    4b4e:	5b 07       	cpc	r21, r27
    4b50:	09 f0       	breq	.+2      	; 0x4b54 <main+0x209c>
    4b52:	43 c0       	rjmp	.+134    	; 0x4bda <main+0x2122>
    4b54:	20 91 2c 06 	lds	r18, 0x062C
    4b58:	30 91 2d 06 	lds	r19, 0x062D
    4b5c:	40 91 2e 06 	lds	r20, 0x062E
    4b60:	50 91 2f 06 	lds	r21, 0x062F
    4b64:	80 91 f7 05 	lds	r24, 0x05F7
    4b68:	90 91 f8 05 	lds	r25, 0x05F8
    4b6c:	a0 91 f9 05 	lds	r26, 0x05F9
    4b70:	b0 91 fa 05 	lds	r27, 0x05FA
    4b74:	28 17       	cp	r18, r24
    4b76:	39 07       	cpc	r19, r25
    4b78:	4a 07       	cpc	r20, r26
    4b7a:	5b 07       	cpc	r21, r27
    4b7c:	50 f1       	brcs	.+84     	; 0x4bd2 <main+0x211a>
    4b7e:	20 91 2c 06 	lds	r18, 0x062C
    4b82:	30 91 2d 06 	lds	r19, 0x062D
    4b86:	40 91 2e 06 	lds	r20, 0x062E
    4b8a:	50 91 2f 06 	lds	r21, 0x062F
    4b8e:	80 91 1b 06 	lds	r24, 0x061B
    4b92:	90 91 1c 06 	lds	r25, 0x061C
    4b96:	a0 91 1d 06 	lds	r26, 0x061D
    4b9a:	b0 91 1e 06 	lds	r27, 0x061E
    4b9e:	28 17       	cp	r18, r24
    4ba0:	39 07       	cpc	r19, r25
    4ba2:	4a 07       	cpc	r20, r26
    4ba4:	5b 07       	cpc	r21, r27
    4ba6:	a8 f4       	brcc	.+42     	; 0x4bd2 <main+0x211a>
    4ba8:	20 91 f7 05 	lds	r18, 0x05F7
    4bac:	30 91 f8 05 	lds	r19, 0x05F8
    4bb0:	40 91 f9 05 	lds	r20, 0x05F9
    4bb4:	50 91 fa 05 	lds	r21, 0x05FA
    4bb8:	80 91 1b 06 	lds	r24, 0x061B
    4bbc:	90 91 1c 06 	lds	r25, 0x061C
    4bc0:	a0 91 1d 06 	lds	r26, 0x061D
    4bc4:	b0 91 1e 06 	lds	r27, 0x061E
    4bc8:	28 17       	cp	r18, r24
    4bca:	39 07       	cpc	r19, r25
    4bcc:	4a 07       	cpc	r20, r26
    4bce:	5b 07       	cpc	r21, r27
    4bd0:	21 f4       	brne	.+8      	; 0x4bda <main+0x2122>
    4bd2:	80 91 f6 04 	lds	r24, 0x04F6
    4bd6:	81 30       	cpi	r24, 0x01	; 1
    4bd8:	89 f4       	brne	.+34     	; 0x4bfc <main+0x2144>
					((time_now>=timer2_start[6])&&(time_now<timer2_stop[6])&&(timer2_start[6]!=timer2_stop[6]))||
					((time_now>=timer3_start[6])&&(time_now<timer3_stop[6])&&(timer3_start[6]!=timer3_stop[6]))||
					(rele_set[6]==1)) 
					{
						if(!co2) RELE_PORT_2|=RELE_7; 
    4bda:	80 91 ee 04 	lds	r24, 0x04EE
    4bde:	88 23       	and	r24, r24
    4be0:	09 f4       	brne	.+2      	; 0x4be4 <main+0x212c>
    4be2:	aa 9a       	sbi	0x15, 2	; 21
						co2_timer_status=1; // флаг - режим таймеров
    4be4:	81 e0       	ldi	r24, 0x01	; 1
    4be6:	80 93 3b 06 	sts	0x063B, r24
						// если отключены режимы PH/CO2 и ручной режим
						if((co2_status!=0x32)&&(co2_status!=0x33)) co2_status=0x31; // флаг - режим таймеров
    4bea:	80 91 04 05 	lds	r24, 0x0504
    4bee:	82 53       	subi	r24, 0x32	; 50
    4bf0:	82 30       	cpi	r24, 0x02	; 2
    4bf2:	48 f0       	brcs	.+18     	; 0x4c06 <main+0x214e>
    4bf4:	81 e3       	ldi	r24, 0x31	; 49
    4bf6:	80 93 04 05 	sts	0x0504, r24
    4bfa:	05 c0       	rjmp	.+10     	; 0x4c06 <main+0x214e>
					} 
				else {RELE_PORT_2&=~RELE_7; rele_set[6]=0; co2_timer_status=0;}
    4bfc:	aa 98       	cbi	0x15, 2	; 21
    4bfe:	10 92 f6 04 	sts	0x04F6, r1
    4c02:	10 92 3b 06 	sts	0x063B, r1
				
				if (((time_now>=timer1_start[7])&&(time_now<timer1_stop[7])&&(timer1_start[7]!=timer1_stop[7]))||
    4c06:	20 91 2c 06 	lds	r18, 0x062C
    4c0a:	30 91 2d 06 	lds	r19, 0x062D
    4c0e:	40 91 2e 06 	lds	r20, 0x062E
    4c12:	50 91 2f 06 	lds	r21, 0x062F
    4c16:	80 91 6b 05 	lds	r24, 0x056B
    4c1a:	90 91 6c 05 	lds	r25, 0x056C
    4c1e:	a0 91 6d 05 	lds	r26, 0x056D
    4c22:	b0 91 6e 05 	lds	r27, 0x056E
    4c26:	28 17       	cp	r18, r24
    4c28:	39 07       	cpc	r19, r25
    4c2a:	4a 07       	cpc	r20, r26
    4c2c:	5b 07       	cpc	r21, r27
    4c2e:	58 f1       	brcs	.+86     	; 0x4c86 <main+0x21ce>
    4c30:	20 91 2c 06 	lds	r18, 0x062C
    4c34:	30 91 2d 06 	lds	r19, 0x062D
    4c38:	40 91 2e 06 	lds	r20, 0x062E
    4c3c:	50 91 2f 06 	lds	r21, 0x062F
    4c40:	80 91 8f 05 	lds	r24, 0x058F
    4c44:	90 91 90 05 	lds	r25, 0x0590
    4c48:	a0 91 91 05 	lds	r26, 0x0591
    4c4c:	b0 91 92 05 	lds	r27, 0x0592
    4c50:	28 17       	cp	r18, r24
    4c52:	39 07       	cpc	r19, r25
    4c54:	4a 07       	cpc	r20, r26
    4c56:	5b 07       	cpc	r21, r27
    4c58:	b0 f4       	brcc	.+44     	; 0x4c86 <main+0x21ce>
    4c5a:	20 91 6b 05 	lds	r18, 0x056B
    4c5e:	30 91 6c 05 	lds	r19, 0x056C
    4c62:	40 91 6d 05 	lds	r20, 0x056D
    4c66:	50 91 6e 05 	lds	r21, 0x056E
    4c6a:	80 91 8f 05 	lds	r24, 0x058F
    4c6e:	90 91 90 05 	lds	r25, 0x0590
    4c72:	a0 91 91 05 	lds	r26, 0x0591
    4c76:	b0 91 92 05 	lds	r27, 0x0592
    4c7a:	28 17       	cp	r18, r24
    4c7c:	39 07       	cpc	r19, r25
    4c7e:	4a 07       	cpc	r20, r26
    4c80:	5b 07       	cpc	r21, r27
    4c82:	09 f0       	breq	.+2      	; 0x4c86 <main+0x21ce>
    4c84:	83 c0       	rjmp	.+262    	; 0x4d8c <main+0x22d4>
    4c86:	20 91 2c 06 	lds	r18, 0x062C
    4c8a:	30 91 2d 06 	lds	r19, 0x062D
    4c8e:	40 91 2e 06 	lds	r20, 0x062E
    4c92:	50 91 2f 06 	lds	r21, 0x062F
    4c96:	80 91 b3 05 	lds	r24, 0x05B3
    4c9a:	90 91 b4 05 	lds	r25, 0x05B4
    4c9e:	a0 91 b5 05 	lds	r26, 0x05B5
    4ca2:	b0 91 b6 05 	lds	r27, 0x05B6
    4ca6:	28 17       	cp	r18, r24
    4ca8:	39 07       	cpc	r19, r25
    4caa:	4a 07       	cpc	r20, r26
    4cac:	5b 07       	cpc	r21, r27
    4cae:	58 f1       	brcs	.+86     	; 0x4d06 <main+0x224e>
    4cb0:	20 91 2c 06 	lds	r18, 0x062C
    4cb4:	30 91 2d 06 	lds	r19, 0x062D
    4cb8:	40 91 2e 06 	lds	r20, 0x062E
    4cbc:	50 91 2f 06 	lds	r21, 0x062F
    4cc0:	80 91 d7 05 	lds	r24, 0x05D7
    4cc4:	90 91 d8 05 	lds	r25, 0x05D8
    4cc8:	a0 91 d9 05 	lds	r26, 0x05D9
    4ccc:	b0 91 da 05 	lds	r27, 0x05DA
    4cd0:	28 17       	cp	r18, r24
    4cd2:	39 07       	cpc	r19, r25
    4cd4:	4a 07       	cpc	r20, r26
    4cd6:	5b 07       	cpc	r21, r27
    4cd8:	b0 f4       	brcc	.+44     	; 0x4d06 <main+0x224e>
    4cda:	20 91 b3 05 	lds	r18, 0x05B3
    4cde:	30 91 b4 05 	lds	r19, 0x05B4
    4ce2:	40 91 b5 05 	lds	r20, 0x05B5
    4ce6:	50 91 b6 05 	lds	r21, 0x05B6
    4cea:	80 91 d7 05 	lds	r24, 0x05D7
    4cee:	90 91 d8 05 	lds	r25, 0x05D8
    4cf2:	a0 91 d9 05 	lds	r26, 0x05D9
    4cf6:	b0 91 da 05 	lds	r27, 0x05DA
    4cfa:	28 17       	cp	r18, r24
    4cfc:	39 07       	cpc	r19, r25
    4cfe:	4a 07       	cpc	r20, r26
    4d00:	5b 07       	cpc	r21, r27
    4d02:	09 f0       	breq	.+2      	; 0x4d06 <main+0x224e>
    4d04:	43 c0       	rjmp	.+134    	; 0x4d8c <main+0x22d4>
    4d06:	20 91 2c 06 	lds	r18, 0x062C
    4d0a:	30 91 2d 06 	lds	r19, 0x062D
    4d0e:	40 91 2e 06 	lds	r20, 0x062E
    4d12:	50 91 2f 06 	lds	r21, 0x062F
    4d16:	80 91 fb 05 	lds	r24, 0x05FB
    4d1a:	90 91 fc 05 	lds	r25, 0x05FC
    4d1e:	a0 91 fd 05 	lds	r26, 0x05FD
    4d22:	b0 91 fe 05 	lds	r27, 0x05FE
    4d26:	28 17       	cp	r18, r24
    4d28:	39 07       	cpc	r19, r25
    4d2a:	4a 07       	cpc	r20, r26
    4d2c:	5b 07       	cpc	r21, r27
    4d2e:	50 f1       	brcs	.+84     	; 0x4d84 <main+0x22cc>
    4d30:	20 91 2c 06 	lds	r18, 0x062C
    4d34:	30 91 2d 06 	lds	r19, 0x062D
    4d38:	40 91 2e 06 	lds	r20, 0x062E
    4d3c:	50 91 2f 06 	lds	r21, 0x062F
    4d40:	80 91 1f 06 	lds	r24, 0x061F
    4d44:	90 91 20 06 	lds	r25, 0x0620
    4d48:	a0 91 21 06 	lds	r26, 0x0621
    4d4c:	b0 91 22 06 	lds	r27, 0x0622
    4d50:	28 17       	cp	r18, r24
    4d52:	39 07       	cpc	r19, r25
    4d54:	4a 07       	cpc	r20, r26
    4d56:	5b 07       	cpc	r21, r27
    4d58:	a8 f4       	brcc	.+42     	; 0x4d84 <main+0x22cc>
    4d5a:	20 91 fb 05 	lds	r18, 0x05FB
    4d5e:	30 91 fc 05 	lds	r19, 0x05FC
    4d62:	40 91 fd 05 	lds	r20, 0x05FD
    4d66:	50 91 fe 05 	lds	r21, 0x05FE
    4d6a:	80 91 1f 06 	lds	r24, 0x061F
    4d6e:	90 91 20 06 	lds	r25, 0x0620
    4d72:	a0 91 21 06 	lds	r26, 0x0621
    4d76:	b0 91 22 06 	lds	r27, 0x0622
    4d7a:	28 17       	cp	r18, r24
    4d7c:	39 07       	cpc	r19, r25
    4d7e:	4a 07       	cpc	r20, r26
    4d80:	5b 07       	cpc	r21, r27
    4d82:	21 f4       	brne	.+8      	; 0x4d8c <main+0x22d4>
    4d84:	80 91 f7 04 	lds	r24, 0x04F7
    4d88:	81 30       	cpi	r24, 0x01	; 1
    4d8a:	89 f4       	brne	.+34     	; 0x4dae <main+0x22f6>
					((time_now>=timer2_start[7])&&(time_now<timer2_stop[7])&&(timer2_start[7]!=timer2_stop[7]))||
					((time_now>=timer3_start[7])&&(time_now<timer3_stop[7])&&(timer3_start[7]!=timer3_stop[7]))||
					(rele_set[7]==1)) 
					{
						if(!doliv) RELE_PORT_2|=RELE_8; 
    4d8c:	80 91 fa 04 	lds	r24, 0x04FA
    4d90:	88 23       	and	r24, r24
    4d92:	09 f4       	brne	.+2      	; 0x4d96 <main+0x22de>
    4d94:	ab 9a       	sbi	0x15, 3	; 21
						doliv_timer_status=1; // флаг - режим таймеров
    4d96:	81 e0       	ldi	r24, 0x01	; 1
    4d98:	80 93 3c 06 	sts	0x063C, r24
						// если отключены режимы автодолив и ручной режим
						if((water_lvl_status!=0x32)&&(water_lvl_status!=0x33)) water_lvl_status=0x31; // флаг - режим таймеров
    4d9c:	80 91 03 05 	lds	r24, 0x0503
    4da0:	82 53       	subi	r24, 0x32	; 50
    4da2:	82 30       	cpi	r24, 0x02	; 2
    4da4:	48 f0       	brcs	.+18     	; 0x4db8 <main+0x2300>
    4da6:	81 e3       	ldi	r24, 0x31	; 49
    4da8:	80 93 03 05 	sts	0x0503, r24
    4dac:	05 c0       	rjmp	.+10     	; 0x4db8 <main+0x2300>
					}
				else {RELE_PORT_2&=~RELE_8; rele_set[7]=0; doliv_timer_status=0;}
    4dae:	ab 98       	cbi	0x15, 3	; 21
    4db0:	10 92 f7 04 	sts	0x04F7, r1
    4db4:	10 92 3c 06 	sts	0x063C, r1
				
				time_one_sec=0; // сбросить отсчет
    4db8:	10 92 f9 04 	sts	0x04F9, r1
                LED_PORT|=LED; // включить светодиод	
    4dbc:	ac 9a       	sbi	0x15, 4	; 21
			// если текущее время находится в промежутке заданного временного интервала работы кулеров
			// если текущее время находится в промежутке заданных интервалов таймеров
			// если перед сбросом был задан ручной режим
			// активировать канал
			// иначе - отключить канал
			if((time_now>cooler_start)&&(time_now<cooler_stop))
    4dbe:	20 91 2c 06 	lds	r18, 0x062C
    4dc2:	30 91 2d 06 	lds	r19, 0x062D
    4dc6:	40 91 2e 06 	lds	r20, 0x062E
    4dca:	50 91 2f 06 	lds	r21, 0x062F
    4dce:	80 91 86 04 	lds	r24, 0x0486
    4dd2:	90 91 87 04 	lds	r25, 0x0487
    4dd6:	a0 91 88 04 	lds	r26, 0x0488
    4dda:	b0 91 89 04 	lds	r27, 0x0489
    4dde:	82 17       	cp	r24, r18
    4de0:	93 07       	cpc	r25, r19
    4de2:	a4 07       	cpc	r26, r20
    4de4:	b5 07       	cpc	r27, r21
    4de6:	08 f0       	brcs	.+2      	; 0x4dea <main+0x2332>
    4de8:	75 c1       	rjmp	.+746    	; 0x50d4 <main+0x261c>
    4dea:	20 91 2c 06 	lds	r18, 0x062C
    4dee:	30 91 2d 06 	lds	r19, 0x062D
    4df2:	40 91 2e 06 	lds	r20, 0x062E
    4df6:	50 91 2f 06 	lds	r21, 0x062F
    4dfa:	80 91 8a 04 	lds	r24, 0x048A
    4dfe:	90 91 8b 04 	lds	r25, 0x048B
    4e02:	a0 91 8c 04 	lds	r26, 0x048C
    4e06:	b0 91 8d 04 	lds	r27, 0x048D
    4e0a:	28 17       	cp	r18, r24
    4e0c:	39 07       	cpc	r19, r25
    4e0e:	4a 07       	cpc	r20, r26
    4e10:	5b 07       	cpc	r21, r27
    4e12:	08 f0       	brcs	.+2      	; 0x4e16 <main+0x235e>
    4e14:	5f c1       	rjmp	.+702    	; 0x50d4 <main+0x261c>
			{
				if (((time_now>=timer1_start[8])&&(time_now<timer1_stop[8])&&(timer1_start[8]!=timer1_stop[8]))||
    4e16:	20 91 2c 06 	lds	r18, 0x062C
    4e1a:	30 91 2d 06 	lds	r19, 0x062D
    4e1e:	40 91 2e 06 	lds	r20, 0x062E
    4e22:	50 91 2f 06 	lds	r21, 0x062F
    4e26:	80 91 6f 05 	lds	r24, 0x056F
    4e2a:	90 91 70 05 	lds	r25, 0x0570
    4e2e:	a0 91 71 05 	lds	r26, 0x0571
    4e32:	b0 91 72 05 	lds	r27, 0x0572
    4e36:	28 17       	cp	r18, r24
    4e38:	39 07       	cpc	r19, r25
    4e3a:	4a 07       	cpc	r20, r26
    4e3c:	5b 07       	cpc	r21, r27
    4e3e:	58 f1       	brcs	.+86     	; 0x4e96 <main+0x23de>
    4e40:	20 91 2c 06 	lds	r18, 0x062C
    4e44:	30 91 2d 06 	lds	r19, 0x062D
    4e48:	40 91 2e 06 	lds	r20, 0x062E
    4e4c:	50 91 2f 06 	lds	r21, 0x062F
    4e50:	80 91 93 05 	lds	r24, 0x0593
    4e54:	90 91 94 05 	lds	r25, 0x0594
    4e58:	a0 91 95 05 	lds	r26, 0x0595
    4e5c:	b0 91 96 05 	lds	r27, 0x0596
    4e60:	28 17       	cp	r18, r24
    4e62:	39 07       	cpc	r19, r25
    4e64:	4a 07       	cpc	r20, r26
    4e66:	5b 07       	cpc	r21, r27
    4e68:	b0 f4       	brcc	.+44     	; 0x4e96 <main+0x23de>
    4e6a:	20 91 6f 05 	lds	r18, 0x056F
    4e6e:	30 91 70 05 	lds	r19, 0x0570
    4e72:	40 91 71 05 	lds	r20, 0x0571
    4e76:	50 91 72 05 	lds	r21, 0x0572
    4e7a:	80 91 93 05 	lds	r24, 0x0593
    4e7e:	90 91 94 05 	lds	r25, 0x0594
    4e82:	a0 91 95 05 	lds	r26, 0x0595
    4e86:	b0 91 96 05 	lds	r27, 0x0596
    4e8a:	28 17       	cp	r18, r24
    4e8c:	39 07       	cpc	r19, r25
    4e8e:	4a 07       	cpc	r20, r26
    4e90:	5b 07       	cpc	r21, r27
    4e92:	09 f0       	breq	.+2      	; 0x4e96 <main+0x23de>
    4e94:	84 c0       	rjmp	.+264    	; 0x4f9e <main+0x24e6>
    4e96:	20 91 2c 06 	lds	r18, 0x062C
    4e9a:	30 91 2d 06 	lds	r19, 0x062D
    4e9e:	40 91 2e 06 	lds	r20, 0x062E
    4ea2:	50 91 2f 06 	lds	r21, 0x062F
    4ea6:	80 91 b7 05 	lds	r24, 0x05B7
    4eaa:	90 91 b8 05 	lds	r25, 0x05B8
    4eae:	a0 91 b9 05 	lds	r26, 0x05B9
    4eb2:	b0 91 ba 05 	lds	r27, 0x05BA
    4eb6:	28 17       	cp	r18, r24
    4eb8:	39 07       	cpc	r19, r25
    4eba:	4a 07       	cpc	r20, r26
    4ebc:	5b 07       	cpc	r21, r27
    4ebe:	58 f1       	brcs	.+86     	; 0x4f16 <main+0x245e>
    4ec0:	20 91 2c 06 	lds	r18, 0x062C
    4ec4:	30 91 2d 06 	lds	r19, 0x062D
    4ec8:	40 91 2e 06 	lds	r20, 0x062E
    4ecc:	50 91 2f 06 	lds	r21, 0x062F
    4ed0:	80 91 db 05 	lds	r24, 0x05DB
    4ed4:	90 91 dc 05 	lds	r25, 0x05DC
    4ed8:	a0 91 dd 05 	lds	r26, 0x05DD
    4edc:	b0 91 de 05 	lds	r27, 0x05DE
    4ee0:	28 17       	cp	r18, r24
    4ee2:	39 07       	cpc	r19, r25
    4ee4:	4a 07       	cpc	r20, r26
    4ee6:	5b 07       	cpc	r21, r27
    4ee8:	b0 f4       	brcc	.+44     	; 0x4f16 <main+0x245e>
    4eea:	20 91 b7 05 	lds	r18, 0x05B7
    4eee:	30 91 b8 05 	lds	r19, 0x05B8
    4ef2:	40 91 b9 05 	lds	r20, 0x05B9
    4ef6:	50 91 ba 05 	lds	r21, 0x05BA
    4efa:	80 91 db 05 	lds	r24, 0x05DB
    4efe:	90 91 dc 05 	lds	r25, 0x05DC
    4f02:	a0 91 dd 05 	lds	r26, 0x05DD
    4f06:	b0 91 de 05 	lds	r27, 0x05DE
    4f0a:	28 17       	cp	r18, r24
    4f0c:	39 07       	cpc	r19, r25
    4f0e:	4a 07       	cpc	r20, r26
    4f10:	5b 07       	cpc	r21, r27
    4f12:	09 f0       	breq	.+2      	; 0x4f16 <main+0x245e>
    4f14:	44 c0       	rjmp	.+136    	; 0x4f9e <main+0x24e6>
    4f16:	20 91 2c 06 	lds	r18, 0x062C
    4f1a:	30 91 2d 06 	lds	r19, 0x062D
    4f1e:	40 91 2e 06 	lds	r20, 0x062E
    4f22:	50 91 2f 06 	lds	r21, 0x062F
    4f26:	80 91 ff 05 	lds	r24, 0x05FF
    4f2a:	90 91 00 06 	lds	r25, 0x0600
    4f2e:	a0 91 01 06 	lds	r26, 0x0601
    4f32:	b0 91 02 06 	lds	r27, 0x0602
    4f36:	28 17       	cp	r18, r24
    4f38:	39 07       	cpc	r19, r25
    4f3a:	4a 07       	cpc	r20, r26
    4f3c:	5b 07       	cpc	r21, r27
    4f3e:	50 f1       	brcs	.+84     	; 0x4f94 <main+0x24dc>
    4f40:	20 91 2c 06 	lds	r18, 0x062C
    4f44:	30 91 2d 06 	lds	r19, 0x062D
    4f48:	40 91 2e 06 	lds	r20, 0x062E
    4f4c:	50 91 2f 06 	lds	r21, 0x062F
    4f50:	80 91 23 06 	lds	r24, 0x0623
    4f54:	90 91 24 06 	lds	r25, 0x0624
    4f58:	a0 91 25 06 	lds	r26, 0x0625
    4f5c:	b0 91 26 06 	lds	r27, 0x0626
    4f60:	28 17       	cp	r18, r24
    4f62:	39 07       	cpc	r19, r25
    4f64:	4a 07       	cpc	r20, r26
    4f66:	5b 07       	cpc	r21, r27
    4f68:	a8 f4       	brcc	.+42     	; 0x4f94 <main+0x24dc>
    4f6a:	20 91 ff 05 	lds	r18, 0x05FF
    4f6e:	30 91 00 06 	lds	r19, 0x0600
    4f72:	40 91 01 06 	lds	r20, 0x0601
    4f76:	50 91 02 06 	lds	r21, 0x0602
    4f7a:	80 91 23 06 	lds	r24, 0x0623
    4f7e:	90 91 24 06 	lds	r25, 0x0624
    4f82:	a0 91 25 06 	lds	r26, 0x0625
    4f86:	b0 91 26 06 	lds	r27, 0x0626
    4f8a:	28 17       	cp	r18, r24
    4f8c:	39 07       	cpc	r19, r25
    4f8e:	4a 07       	cpc	r20, r26
    4f90:	5b 07       	cpc	r21, r27
    4f92:	29 f4       	brne	.+10     	; 0x4f9e <main+0x24e6>
    4f94:	80 91 05 05 	lds	r24, 0x0505
    4f98:	88 23       	and	r24, r24
    4f9a:	09 f4       	brne	.+2      	; 0x4f9e <main+0x24e6>
    4f9c:	54 c0       	rjmp	.+168    	; 0x5046 <main+0x258e>
					((time_now>=timer2_start[8])&&(time_now<timer2_stop[8])&&(timer2_start[8]!=timer2_stop[8]))||
					((time_now>=timer3_start[8])&&(time_now<timer3_stop[8])&&(timer3_start[8]!=timer3_stop[8]))||
					(cooler_hand_start))
					{
						cooler_start_pulse[2]++; // отсчет времени стартового импульса
    4f9e:	80 91 4c 05 	lds	r24, 0x054C
    4fa2:	8f 5f       	subi	r24, 0xFF	; 255
    4fa4:	80 93 4c 05 	sts	0x054C, r24
						// ~3.33 с - устанавливаем заданную мощность
						if(cooler_start_pulse[2]==10) 
    4fa8:	8a 30       	cpi	r24, 0x0A	; 10
    4faa:	51 f5       	brne	.+84     	; 0x5000 <main+0x2548>
						{
							// использовать заданную мощность ручного режима для режима таймеров
							cooler_data[2]=cooler_data[0];
    4fac:	60 91 3a 05 	lds	r22, 0x053A
    4fb0:	70 91 3b 05 	lds	r23, 0x053B
    4fb4:	80 91 3c 05 	lds	r24, 0x053C
    4fb8:	90 91 3d 05 	lds	r25, 0x053D
    4fbc:	60 93 42 05 	sts	0x0542, r22
    4fc0:	70 93 43 05 	sts	0x0543, r23
    4fc4:	80 93 44 05 	sts	0x0544, r24
    4fc8:	90 93 45 05 	sts	0x0545, r25
							cooler_start_pulse[2]=9; // продолжаем выполнять условие
    4fcc:	29 e0       	ldi	r18, 0x09	; 9
    4fce:	20 93 4c 05 	sts	0x054C, r18
							// если мощности кулеров меньше минимальной
							if(cooler_data[2]<cooler_min) cooler_data[2]=cooler_min;
    4fd2:	60 90 75 04 	lds	r6, 0x0475
    4fd6:	70 90 76 04 	lds	r7, 0x0476
    4fda:	80 90 77 04 	lds	r8, 0x0477
    4fde:	90 90 78 04 	lds	r9, 0x0478
    4fe2:	a4 01       	movw	r20, r8
    4fe4:	93 01       	movw	r18, r6
    4fe6:	0e 94 4b 2e 	call	0x5c96	; 0x5c96 <__cmpsf2>
    4fea:	88 23       	and	r24, r24
    4fec:	ac f4       	brge	.+42     	; 0x5018 <main+0x2560>
    4fee:	60 92 42 05 	sts	0x0542, r6
    4ff2:	70 92 43 05 	sts	0x0543, r7
    4ff6:	80 92 44 05 	sts	0x0544, r8
    4ffa:	90 92 45 05 	sts	0x0545, r9
    4ffe:	0c c0       	rjmp	.+24     	; 0x5018 <main+0x2560>
						}
						// мощность кулеров на максимум
						else cooler_data[2]=255;
    5000:	80 e0       	ldi	r24, 0x00	; 0
    5002:	90 e0       	ldi	r25, 0x00	; 0
    5004:	af e7       	ldi	r26, 0x7F	; 127
    5006:	b3 e4       	ldi	r27, 0x43	; 67
    5008:	80 93 42 05 	sts	0x0542, r24
    500c:	90 93 43 05 	sts	0x0543, r25
    5010:	a0 93 44 05 	sts	0x0544, r26
    5014:	b0 93 45 05 	sts	0x0545, r27
						OCR0=cooler_data[2];
    5018:	60 91 42 05 	lds	r22, 0x0542
    501c:	70 91 43 05 	lds	r23, 0x0543
    5020:	80 91 44 05 	lds	r24, 0x0544
    5024:	90 91 45 05 	lds	r25, 0x0545
    5028:	0e 94 b7 2e 	call	0x5d6e	; 0x5d6e <__fixunssfsi>
    502c:	6c bf       	out	0x3c, r22	; 60
						// если отключены режимы продувки крышки и ручной режим
						if((cooler_chanel_status!=0x32)&&(cooler_chanel_status!=0x34)) cooler_chanel_status=0x31; // флаг - режим таймеров
    502e:	80 91 3f 06 	lds	r24, 0x063F
    5032:	82 33       	cpi	r24, 0x32	; 50
    5034:	09 f4       	brne	.+2      	; 0x5038 <main+0x2580>
    5036:	4e c0       	rjmp	.+156    	; 0x50d4 <main+0x261c>
    5038:	84 33       	cpi	r24, 0x34	; 52
    503a:	09 f4       	brne	.+2      	; 0x503e <main+0x2586>
    503c:	4b c0       	rjmp	.+150    	; 0x50d4 <main+0x261c>
    503e:	81 e3       	ldi	r24, 0x31	; 49
    5040:	80 93 3f 06 	sts	0x063F, r24
    5044:	47 c0       	rjmp	.+142    	; 0x50d4 <main+0x261c>
					}	
				else 
				{	
					// сбросить PWM
					cooler_start_pulse[2]=0;
    5046:	10 92 4c 05 	sts	0x054C, r1
					// установка значения PWM относительно приоритета режимов
					if(cooler_start_pulse[0]) OCR0=cooler_data[0]; // 1-ручной режим управления
    504a:	d0 90 4a 05 	lds	r13, 0x054A
    504e:	dd 20       	and	r13, r13
    5050:	59 f0       	breq	.+22     	; 0x5068 <main+0x25b0>
    5052:	60 91 3a 05 	lds	r22, 0x053A
    5056:	70 91 3b 05 	lds	r23, 0x053B
    505a:	80 91 3c 05 	lds	r24, 0x053C
    505e:	90 91 3d 05 	lds	r25, 0x053D
    5062:	0e 94 b7 2e 	call	0x5d6e	; 0x5d6e <__fixunssfsi>
    5066:	6c bf       	out	0x3c, r22	; 60
					if(cooler_start_pulse[3]) OCR0=cooler_data[3]; // 2-режим продувки крышки
    5068:	10 91 4d 05 	lds	r17, 0x054D
    506c:	11 23       	and	r17, r17
    506e:	59 f0       	breq	.+22     	; 0x5086 <main+0x25ce>
    5070:	60 91 46 05 	lds	r22, 0x0546
    5074:	70 91 47 05 	lds	r23, 0x0547
    5078:	80 91 48 05 	lds	r24, 0x0548
    507c:	90 91 49 05 	lds	r25, 0x0549
    5080:	0e 94 b7 2e 	call	0x5d6e	; 0x5d6e <__fixunssfsi>
    5084:	6c bf       	out	0x3c, r22	; 60
					if(cooler_start_pulse[1]) OCR0=cooler_data[1]; // 3-температурный режим
    5086:	e0 90 4b 05 	lds	r14, 0x054B
    508a:	ee 20       	and	r14, r14
    508c:	59 f0       	breq	.+22     	; 0x50a4 <main+0x25ec>
    508e:	60 91 3e 05 	lds	r22, 0x053E
    5092:	70 91 3f 05 	lds	r23, 0x053F
    5096:	80 91 40 05 	lds	r24, 0x0540
    509a:	90 91 41 05 	lds	r25, 0x0541
    509e:	0e 94 b7 2e 	call	0x5d6e	; 0x5d6e <__fixunssfsi>
    50a2:	6c bf       	out	0x3c, r22	; 60
					// если ни один из режимов не запущен - отключить PWM
					if((cooler_start_pulse[0]==0)&(cooler_start_pulse[1]==0)&(cooler_start_pulse[2]==0)&(cooler_start_pulse[3]==0)) OCR0=0;
    50a4:	80 e0       	ldi	r24, 0x00	; 0
    50a6:	90 e0       	ldi	r25, 0x00	; 0
    50a8:	11 23       	and	r17, r17
    50aa:	11 f4       	brne	.+4      	; 0x50b0 <main+0x25f8>
    50ac:	81 e0       	ldi	r24, 0x01	; 1
    50ae:	90 e0       	ldi	r25, 0x00	; 0
    50b0:	9c 01       	movw	r18, r24
    50b2:	21 70       	andi	r18, 0x01	; 1
    50b4:	30 70       	andi	r19, 0x00	; 0
    50b6:	80 e0       	ldi	r24, 0x00	; 0
    50b8:	dd 20       	and	r13, r13
    50ba:	09 f4       	brne	.+2      	; 0x50be <main+0x2606>
    50bc:	81 e0       	ldi	r24, 0x01	; 1
    50be:	90 e0       	ldi	r25, 0x00	; 0
    50c0:	ee 20       	and	r14, r14
    50c2:	09 f4       	brne	.+2      	; 0x50c6 <main+0x260e>
    50c4:	91 e0       	ldi	r25, 0x01	; 1
    50c6:	89 23       	and	r24, r25
    50c8:	90 e0       	ldi	r25, 0x00	; 0
    50ca:	28 23       	and	r18, r24
    50cc:	39 23       	and	r19, r25
    50ce:	23 2b       	or	r18, r19
    50d0:	09 f0       	breq	.+2      	; 0x50d4 <main+0x261c>
    50d2:	1c be       	out	0x3c, r1	; 60
				}
			}
			
			// ----- режим СО2/РН ----- //
			// если текущее время находится в промежутке заданного временного интервала работы
			if((time_now>co2_start)&&(time_now<co2_stop))
    50d4:	20 91 2c 06 	lds	r18, 0x062C
    50d8:	30 91 2d 06 	lds	r19, 0x062D
    50dc:	40 91 2e 06 	lds	r20, 0x062E
    50e0:	50 91 2f 06 	lds	r21, 0x062F
    50e4:	80 91 8e 04 	lds	r24, 0x048E
    50e8:	90 91 8f 04 	lds	r25, 0x048F
    50ec:	a0 91 90 04 	lds	r26, 0x0490
    50f0:	b0 91 91 04 	lds	r27, 0x0491
    50f4:	82 17       	cp	r24, r18
    50f6:	93 07       	cpc	r25, r19
    50f8:	a4 07       	cpc	r26, r20
    50fa:	b5 07       	cpc	r27, r21
    50fc:	08 f0       	brcs	.+2      	; 0x5100 <main+0x2648>
    50fe:	7a c0       	rjmp	.+244    	; 0x51f4 <main+0x273c>
    5100:	20 91 2c 06 	lds	r18, 0x062C
    5104:	30 91 2d 06 	lds	r19, 0x062D
    5108:	40 91 2e 06 	lds	r20, 0x062E
    510c:	50 91 2f 06 	lds	r21, 0x062F
    5110:	80 91 92 04 	lds	r24, 0x0492
    5114:	90 91 93 04 	lds	r25, 0x0493
    5118:	a0 91 94 04 	lds	r26, 0x0494
    511c:	b0 91 95 04 	lds	r27, 0x0495
    5120:	28 17       	cp	r18, r24
    5122:	39 07       	cpc	r19, r25
    5124:	4a 07       	cpc	r20, r26
    5126:	5b 07       	cpc	r21, r27
    5128:	08 f0       	brcs	.+2      	; 0x512c <main+0x2674>
    512a:	64 c0       	rjmp	.+200    	; 0x51f4 <main+0x273c>
			{
				if(co2) // режим задан
    512c:	80 91 ee 04 	lds	r24, 0x04EE
    5130:	88 23       	and	r24, r24
    5132:	09 f4       	brne	.+2      	; 0x5136 <main+0x267e>
    5134:	4c c0       	rjmp	.+152    	; 0x51ce <main+0x2716>
				{
					if(data_ph>=ph_high) co2_set=1; // фиксация включения
    5136:	80 91 71 04 	lds	r24, 0x0471
    513a:	90 91 72 04 	lds	r25, 0x0472
    513e:	a0 e0       	ldi	r26, 0x00	; 0
    5140:	b0 e0       	ldi	r27, 0x00	; 0
    5142:	20 91 30 06 	lds	r18, 0x0630
    5146:	30 91 31 06 	lds	r19, 0x0631
    514a:	40 91 32 06 	lds	r20, 0x0632
    514e:	50 91 33 06 	lds	r21, 0x0633
    5152:	28 17       	cp	r18, r24
    5154:	39 07       	cpc	r19, r25
    5156:	4a 07       	cpc	r20, r26
    5158:	5b 07       	cpc	r21, r27
    515a:	18 f0       	brcs	.+6      	; 0x5162 <main+0x26aa>
    515c:	81 e0       	ldi	r24, 0x01	; 1
    515e:	80 93 ef 04 	sts	0x04EF, r24
					if(data_ph<=ph_low) co2_set=0; // фиксация отключения
    5162:	80 91 73 04 	lds	r24, 0x0473
    5166:	90 91 74 04 	lds	r25, 0x0474
    516a:	a0 e0       	ldi	r26, 0x00	; 0
    516c:	b0 e0       	ldi	r27, 0x00	; 0
    516e:	20 91 30 06 	lds	r18, 0x0630
    5172:	30 91 31 06 	lds	r19, 0x0631
    5176:	40 91 32 06 	lds	r20, 0x0632
    517a:	50 91 33 06 	lds	r21, 0x0633
    517e:	82 17       	cp	r24, r18
    5180:	93 07       	cpc	r25, r19
    5182:	a4 07       	cpc	r26, r20
    5184:	b5 07       	cpc	r27, r21
    5186:	10 f0       	brcs	.+4      	; 0x518c <main+0x26d4>
    5188:	10 92 ef 04 	sts	0x04EF, r1
					if(co2_set) 
    518c:	80 91 ef 04 	lds	r24, 0x04EF
    5190:	88 23       	and	r24, r24
    5192:	29 f0       	breq	.+10     	; 0x519e <main+0x26e6>
					{
						co2_status=0x33;
    5194:	83 e3       	ldi	r24, 0x33	; 51
    5196:	80 93 04 05 	sts	0x0504, r24
						RELE_PORT_2|=RELE_7; // включить электроклапан
    519a:	aa 9a       	sbi	0x15, 2	; 21
    519c:	2b c0       	rjmp	.+86     	; 0x51f4 <main+0x273c>
					}
					else 
					{
						RELE_PORT_2&=~RELE_7; // отключить электроклапан
    519e:	aa 98       	cbi	0x15, 2	; 21
						if(co2_timer_status) co2_status=0x31;
    51a0:	80 91 3b 06 	lds	r24, 0x063B
    51a4:	88 23       	and	r24, r24
    51a6:	19 f0       	breq	.+6      	; 0x51ae <main+0x26f6>
    51a8:	81 e3       	ldi	r24, 0x31	; 49
    51aa:	80 93 04 05 	sts	0x0504, r24
						if(rele_set[6]) co2_status=0x32;
    51ae:	80 91 f6 04 	lds	r24, 0x04F6
    51b2:	88 23       	and	r24, r24
    51b4:	19 f0       	breq	.+6      	; 0x51bc <main+0x2704>
    51b6:	82 e3       	ldi	r24, 0x32	; 50
    51b8:	80 93 04 05 	sts	0x0504, r24
						// если не задан режим таймера и ручной режим - отключить канал
						if((co2_timer_status==0)&(rele_set[6]==0)) co2_status=0x30;
    51bc:	80 91 3b 06 	lds	r24, 0x063B
    51c0:	88 23       	and	r24, r24
    51c2:	c1 f4       	brne	.+48     	; 0x51f4 <main+0x273c>
    51c4:	80 91 f6 04 	lds	r24, 0x04F6
    51c8:	88 23       	and	r24, r24
    51ca:	a1 f4       	brne	.+40     	; 0x51f4 <main+0x273c>
    51cc:	10 c0       	rjmp	.+32     	; 0x51ee <main+0x2736>
					}
				}
				else 
				{
					if(rele_set[6]==1) co2_status=0x32;
    51ce:	80 91 f6 04 	lds	r24, 0x04F6
    51d2:	81 30       	cpi	r24, 0x01	; 1
    51d4:	19 f4       	brne	.+6      	; 0x51dc <main+0x2724>
    51d6:	82 e3       	ldi	r24, 0x32	; 50
    51d8:	80 93 04 05 	sts	0x0504, r24
					// если не задан режим таймера и ручной режим - отключить канал
					if((co2_timer_status==0)&(rele_set[6]==0)) {RELE_PORT_2&=~RELE_7; co2_status=0x30;}
    51dc:	80 91 3b 06 	lds	r24, 0x063B
    51e0:	88 23       	and	r24, r24
    51e2:	41 f4       	brne	.+16     	; 0x51f4 <main+0x273c>
    51e4:	80 91 f6 04 	lds	r24, 0x04F6
    51e8:	88 23       	and	r24, r24
    51ea:	21 f4       	brne	.+8      	; 0x51f4 <main+0x273c>
    51ec:	aa 98       	cbi	0x15, 2	; 21
    51ee:	80 e3       	ldi	r24, 0x30	; 48
    51f0:	80 93 04 05 	sts	0x0504, r24
				}
			}
			
			// ----- временной интервал работы подсветки ЖКИ ----- //
			// если текущее время находится в промежутке заданного временного интервала работы
			if((time_now>lcd_led_start)&&(time_now<lcd_led_stop)) LCD_LED_PORT&=~LCD_LED; // включить подсветку
    51f4:	20 91 2c 06 	lds	r18, 0x062C
    51f8:	30 91 2d 06 	lds	r19, 0x062D
    51fc:	40 91 2e 06 	lds	r20, 0x062E
    5200:	50 91 2f 06 	lds	r21, 0x062F
    5204:	80 91 7e 04 	lds	r24, 0x047E
    5208:	90 91 7f 04 	lds	r25, 0x047F
    520c:	a0 91 80 04 	lds	r26, 0x0480
    5210:	b0 91 81 04 	lds	r27, 0x0481
    5214:	82 17       	cp	r24, r18
    5216:	93 07       	cpc	r25, r19
    5218:	a4 07       	cpc	r26, r20
    521a:	b5 07       	cpc	r27, r21
    521c:	b8 f4       	brcc	.+46     	; 0x524c <main+0x2794>
    521e:	20 91 2c 06 	lds	r18, 0x062C
    5222:	30 91 2d 06 	lds	r19, 0x062D
    5226:	40 91 2e 06 	lds	r20, 0x062E
    522a:	50 91 2f 06 	lds	r21, 0x062F
    522e:	80 91 82 04 	lds	r24, 0x0482
    5232:	90 91 83 04 	lds	r25, 0x0483
    5236:	a0 91 84 04 	lds	r26, 0x0484
    523a:	b0 91 85 04 	lds	r27, 0x0485
    523e:	28 17       	cp	r18, r24
    5240:	39 07       	cpc	r19, r25
    5242:	4a 07       	cpc	r20, r26
    5244:	5b 07       	cpc	r21, r27
    5246:	10 f4       	brcc	.+4      	; 0x524c <main+0x2794>
    5248:	ad 98       	cbi	0x15, 5	; 21
    524a:	01 c0       	rjmp	.+2      	; 0x524e <main+0x2796>
			else LCD_LED_PORT|=LCD_LED; // выключить подсветку 
    524c:	ad 9a       	sbi	0x15, 5	; 21
			
			// ----- обработка температурного режима и режима продувки крышки ----- //
			set_temp_mode_and_produv();
    524e:	0e 94 6f 05 	call	0xade	; 0xade <set_temp_mode_and_produv>
			
			// ----- обработка режима автоматического долива воды ----- //
			water_doliv();
    5252:	0e 94 3d 0e 	call	0x1c7a	; 0x1c7a <water_doliv>
			
			// ----- запись параметров в EEPROM ----- //
			if(EEPROM_WRITE) save_option_eeprom();
    5256:	80 91 43 06 	lds	r24, 0x0643
    525a:	88 23       	and	r24, r24
    525c:	11 f0       	breq	.+4      	; 0x5262 <main+0x27aa>
    525e:	0e 94 ef 10 	call	0x21de	; 0x21de <save_option_eeprom>
			
			// ----- состояния выводов, режимов ----- //
			rele_ports_status=(PIND>>4)+((PINC&0x01)<<4); // состояние порта RELE
    5262:	90 b3       	in	r25, 0x10	; 16
    5264:	83 b3       	in	r24, 0x13	; 19
    5266:	81 70       	andi	r24, 0x01	; 1
    5268:	82 95       	swap	r24
    526a:	80 7f       	andi	r24, 0xF0	; 240
    526c:	92 95       	swap	r25
    526e:	9f 70       	andi	r25, 0x0F	; 15
    5270:	89 0f       	add	r24, r25
    5272:	80 93 38 06 	sts	0x0638, r24
			rele_ports_status_lcd=(PIND>>4)+(PINC<<4); // отображение активности каналов на ЖКИ
    5276:	90 b3       	in	r25, 0x10	; 16
    5278:	83 b3       	in	r24, 0x13	; 19
    527a:	82 95       	swap	r24
    527c:	80 7f       	andi	r24, 0xF0	; 240
    527e:	92 95       	swap	r25
    5280:	9f 70       	andi	r25, 0x0F	; 15
    5282:	89 0f       	add	r24, r25
    5284:	80 93 39 06 	sts	0x0639, r24
			rele_hand_status=rele_set[0]|(rele_set[1]<<1)|(rele_set[2]<<2)|(rele_set[3]<<3)|(rele_set[4]<<4);
    5288:	90 91 f1 04 	lds	r25, 0x04F1
    528c:	99 0f       	add	r25, r25
    528e:	80 91 f2 04 	lds	r24, 0x04F2
    5292:	88 0f       	add	r24, r24
    5294:	88 0f       	add	r24, r24
    5296:	89 2b       	or	r24, r25
    5298:	90 91 f0 04 	lds	r25, 0x04F0
    529c:	89 2b       	or	r24, r25
    529e:	90 91 f3 04 	lds	r25, 0x04F3
    52a2:	99 0f       	add	r25, r25
    52a4:	99 0f       	add	r25, r25
    52a6:	99 0f       	add	r25, r25
    52a8:	98 2b       	or	r25, r24
    52aa:	80 91 f4 04 	lds	r24, 0x04F4
    52ae:	82 95       	swap	r24
    52b0:	80 7f       	andi	r24, 0xF0	; 240
    52b2:	89 2b       	or	r24, r25
    52b4:	80 93 3e 06 	sts	0x063E, r24
			// состояние PWM
			if((cooler_start_pulse[0]==0)&(cooler_start_pulse[1]==0)&(cooler_start_pulse[2]==0)&(cooler_start_pulse[3]==0)) cooler_chanel_status=0x30;
    52b8:	40 e0       	ldi	r20, 0x00	; 0
    52ba:	50 e0       	ldi	r21, 0x00	; 0
    52bc:	80 91 4d 05 	lds	r24, 0x054D
    52c0:	88 23       	and	r24, r24
    52c2:	11 f4       	brne	.+4      	; 0x52c8 <main+0x2810>
    52c4:	41 e0       	ldi	r20, 0x01	; 1
    52c6:	50 e0       	ldi	r21, 0x00	; 0
    52c8:	20 e0       	ldi	r18, 0x00	; 0
    52ca:	30 e0       	ldi	r19, 0x00	; 0
    52cc:	80 91 4c 05 	lds	r24, 0x054C
    52d0:	88 23       	and	r24, r24
    52d2:	11 f4       	brne	.+4      	; 0x52d8 <main+0x2820>
    52d4:	21 e0       	ldi	r18, 0x01	; 1
    52d6:	30 e0       	ldi	r19, 0x00	; 0
    52d8:	24 23       	and	r18, r20
    52da:	35 23       	and	r19, r21
    52dc:	90 e0       	ldi	r25, 0x00	; 0
    52de:	80 91 4a 05 	lds	r24, 0x054A
    52e2:	88 23       	and	r24, r24
    52e4:	09 f4       	brne	.+2      	; 0x52e8 <main+0x2830>
    52e6:	91 e0       	ldi	r25, 0x01	; 1
    52e8:	40 e0       	ldi	r20, 0x00	; 0
    52ea:	80 91 4b 05 	lds	r24, 0x054B
    52ee:	88 23       	and	r24, r24
    52f0:	09 f4       	brne	.+2      	; 0x52f4 <main+0x283c>
    52f2:	41 e0       	ldi	r20, 0x01	; 1
    52f4:	94 23       	and	r25, r20
    52f6:	89 2f       	mov	r24, r25
    52f8:	90 e0       	ldi	r25, 0x00	; 0
    52fa:	28 23       	and	r18, r24
    52fc:	39 23       	and	r19, r25
    52fe:	23 2b       	or	r18, r19
    5300:	19 f0       	breq	.+6      	; 0x5308 <main+0x2850>
    5302:	80 e3       	ldi	r24, 0x30	; 48
    5304:	80 93 3f 06 	sts	0x063F, r24
			// состояние электроклапана
			if((rele_set[6]==0)&(co2_timer_status==0)&(co2==0)) co2_status=0x30;
    5308:	90 e0       	ldi	r25, 0x00	; 0
    530a:	80 91 f6 04 	lds	r24, 0x04F6
    530e:	88 23       	and	r24, r24
    5310:	09 f4       	brne	.+2      	; 0x5314 <main+0x285c>
    5312:	91 e0       	ldi	r25, 0x01	; 1
    5314:	20 e0       	ldi	r18, 0x00	; 0
    5316:	80 91 3b 06 	lds	r24, 0x063B
    531a:	88 23       	and	r24, r24
    531c:	09 f4       	brne	.+2      	; 0x5320 <main+0x2868>
    531e:	21 e0       	ldi	r18, 0x01	; 1
    5320:	92 23       	and	r25, r18
    5322:	29 2f       	mov	r18, r25
    5324:	30 e0       	ldi	r19, 0x00	; 0
    5326:	40 e0       	ldi	r20, 0x00	; 0
    5328:	50 e0       	ldi	r21, 0x00	; 0
    532a:	80 91 ee 04 	lds	r24, 0x04EE
    532e:	88 23       	and	r24, r24
    5330:	11 f4       	brne	.+4      	; 0x5336 <main+0x287e>
    5332:	41 e0       	ldi	r20, 0x01	; 1
    5334:	50 e0       	ldi	r21, 0x00	; 0
    5336:	24 23       	and	r18, r20
    5338:	35 23       	and	r19, r21
    533a:	23 2b       	or	r18, r19
    533c:	19 f0       	breq	.+6      	; 0x5344 <main+0x288c>
    533e:	80 e3       	ldi	r24, 0x30	; 48
    5340:	80 93 04 05 	sts	0x0504, r24
			// состояние помпы
			if((rele_set[7]==0)&(doliv_timer_status==0)&(pompa==0)&(WATER_ERROR==0)) water_lvl_status=0x30;
    5344:	40 e0       	ldi	r20, 0x00	; 0
    5346:	50 e0       	ldi	r21, 0x00	; 0
    5348:	80 91 00 05 	lds	r24, 0x0500
    534c:	88 23       	and	r24, r24
    534e:	11 f4       	brne	.+4      	; 0x5354 <main+0x289c>
    5350:	41 e0       	ldi	r20, 0x01	; 1
    5352:	50 e0       	ldi	r21, 0x00	; 0
    5354:	20 e0       	ldi	r18, 0x00	; 0
    5356:	30 e0       	ldi	r19, 0x00	; 0
    5358:	80 91 fb 04 	lds	r24, 0x04FB
    535c:	88 23       	and	r24, r24
    535e:	11 f4       	brne	.+4      	; 0x5364 <main+0x28ac>
    5360:	21 e0       	ldi	r18, 0x01	; 1
    5362:	30 e0       	ldi	r19, 0x00	; 0
    5364:	24 23       	and	r18, r20
    5366:	35 23       	and	r19, r21
    5368:	90 e0       	ldi	r25, 0x00	; 0
    536a:	80 91 f7 04 	lds	r24, 0x04F7
    536e:	88 23       	and	r24, r24
    5370:	09 f4       	brne	.+2      	; 0x5374 <main+0x28bc>
    5372:	91 e0       	ldi	r25, 0x01	; 1
    5374:	40 e0       	ldi	r20, 0x00	; 0
    5376:	80 91 3c 06 	lds	r24, 0x063C
    537a:	88 23       	and	r24, r24
    537c:	09 f4       	brne	.+2      	; 0x5380 <main+0x28c8>
    537e:	41 e0       	ldi	r20, 0x01	; 1
    5380:	94 23       	and	r25, r20
    5382:	89 2f       	mov	r24, r25
    5384:	90 e0       	ldi	r25, 0x00	; 0
    5386:	28 23       	and	r18, r24
    5388:	39 23       	and	r19, r25
    538a:	23 2b       	or	r18, r19
    538c:	19 f0       	breq	.+6      	; 0x5394 <main+0x28dc>
    538e:	80 e3       	ldi	r24, 0x30	; 48
    5390:	80 93 03 05 	sts	0x0503, r24
			// состояние нагревателя
			if((rele_set[5]==0)&(heater_timer_status==0)&(heater==0)) heater_chanel_status=0x30;
    5394:	90 e0       	ldi	r25, 0x00	; 0
    5396:	80 91 f5 04 	lds	r24, 0x04F5
    539a:	88 23       	and	r24, r24
    539c:	09 f4       	brne	.+2      	; 0x53a0 <main+0x28e8>
    539e:	91 e0       	ldi	r25, 0x01	; 1
    53a0:	20 e0       	ldi	r18, 0x00	; 0
    53a2:	80 91 3a 06 	lds	r24, 0x063A
    53a6:	88 23       	and	r24, r24
    53a8:	09 f4       	brne	.+2      	; 0x53ac <main+0x28f4>
    53aa:	21 e0       	ldi	r18, 0x01	; 1
    53ac:	92 23       	and	r25, r18
    53ae:	29 2f       	mov	r18, r25
    53b0:	30 e0       	ldi	r19, 0x00	; 0
    53b2:	40 e0       	ldi	r20, 0x00	; 0
    53b4:	50 e0       	ldi	r21, 0x00	; 0
    53b6:	80 91 ec 04 	lds	r24, 0x04EC
    53ba:	88 23       	and	r24, r24
    53bc:	11 f4       	brne	.+4      	; 0x53c2 <main+0x290a>
    53be:	41 e0       	ldi	r20, 0x01	; 1
    53c0:	50 e0       	ldi	r21, 0x00	; 0
    53c2:	24 23       	and	r18, r20
    53c4:	35 23       	and	r19, r21
    53c6:	23 2b       	or	r18, r19
    53c8:	19 f0       	breq	.+6      	; 0x53d0 <main+0x2918>
    53ca:	80 e3       	ldi	r24, 0x30	; 48
    53cc:	80 93 40 06 	sts	0x0640, r24
			// состояния режимов
			if(temp_control==1) mode_status|=_BV(0);
    53d0:	80 91 e8 04 	lds	r24, 0x04E8
    53d4:	90 91 41 06 	lds	r25, 0x0641
    53d8:	81 30       	cpi	r24, 0x01	; 1
    53da:	11 f4       	brne	.+4      	; 0x53e0 <main+0x2928>
    53dc:	91 60       	ori	r25, 0x01	; 1
    53de:	01 c0       	rjmp	.+2      	; 0x53e2 <main+0x292a>
			else mode_status&=~_BV(0);
    53e0:	9e 7f       	andi	r25, 0xFE	; 254
    53e2:	90 93 41 06 	sts	0x0641, r25
			if(produv==1) mode_status|=_BV(1);
    53e6:	80 91 e9 04 	lds	r24, 0x04E9
    53ea:	90 91 41 06 	lds	r25, 0x0641
    53ee:	81 30       	cpi	r24, 0x01	; 1
    53f0:	11 f4       	brne	.+4      	; 0x53f6 <main+0x293e>
    53f2:	92 60       	ori	r25, 0x02	; 2
    53f4:	01 c0       	rjmp	.+2      	; 0x53f8 <main+0x2940>
			else mode_status&=~_BV(1);
    53f6:	9d 7f       	andi	r25, 0xFD	; 253
    53f8:	90 93 41 06 	sts	0x0641, r25
			if(co2==1) mode_status|=_BV(2);
    53fc:	80 91 ee 04 	lds	r24, 0x04EE
    5400:	90 91 41 06 	lds	r25, 0x0641
    5404:	81 30       	cpi	r24, 0x01	; 1
    5406:	11 f4       	brne	.+4      	; 0x540c <main+0x2954>
    5408:	94 60       	ori	r25, 0x04	; 4
    540a:	01 c0       	rjmp	.+2      	; 0x540e <main+0x2956>
			else mode_status&=~_BV(2);
    540c:	9b 7f       	andi	r25, 0xFB	; 251
    540e:	90 93 41 06 	sts	0x0641, r25
			if(doliv==1) mode_status|=_BV(3);
    5412:	80 91 fa 04 	lds	r24, 0x04FA
    5416:	90 91 41 06 	lds	r25, 0x0641
    541a:	81 30       	cpi	r24, 0x01	; 1
    541c:	11 f4       	brne	.+4      	; 0x5422 <main+0x296a>
    541e:	98 60       	ori	r25, 0x08	; 8
    5420:	01 c0       	rjmp	.+2      	; 0x5424 <main+0x296c>
			else mode_status&=~_BV(3);
    5422:	97 7f       	andi	r25, 0xF7	; 247
    5424:	90 93 41 06 	sts	0x0641, r25
			
			// если один из каналов в ручном режиме
			hand_mode_set=0;
    5428:	10 92 f8 04 	sts	0x04F8, r1
    542c:	e0 ef       	ldi	r30, 0xF0	; 240
    542e:	f4 e0       	ldi	r31, 0x04	; 4
			for(unsigned int i=0;i<8;i++)
			{
				if((rele_set[i]!=0)|(cooler_start_pulse[0]!=0)) hand_mode_set=1;
    5430:	91 e0       	ldi	r25, 0x01	; 1
    5432:	80 81       	ld	r24, Z
    5434:	88 23       	and	r24, r24
    5436:	21 f4       	brne	.+8      	; 0x5440 <main+0x2988>
    5438:	80 91 4a 05 	lds	r24, 0x054A
    543c:	88 23       	and	r24, r24
    543e:	11 f0       	breq	.+4      	; 0x5444 <main+0x298c>
    5440:	90 93 f8 04 	sts	0x04F8, r25
    5444:	31 96       	adiw	r30, 0x01	; 1
			if(doliv==1) mode_status|=_BV(3);
			else mode_status&=~_BV(3);
			
			// если один из каналов в ручном режиме
			hand_mode_set=0;
			for(unsigned int i=0;i<8;i++)
    5446:	34 e0       	ldi	r19, 0x04	; 4
    5448:	e8 3f       	cpi	r30, 0xF8	; 248
    544a:	f3 07       	cpc	r31, r19
    544c:	91 f7       	brne	.-28     	; 0x5432 <main+0x297a>
			{
				if((rele_set[i]!=0)|(cooler_start_pulse[0]!=0)) hand_mode_set=1;
			}
			if(WATER_ERROR) // если датчик уровня воды не исправен - отображать информацию
    544e:	80 91 00 05 	lds	r24, 0x0500
    5452:	88 23       	and	r24, r24
    5454:	b1 f0       	breq	.+44     	; 0x5482 <main+0x29ca>
			{
				string_1[11]='!';
    5456:	21 e2       	ldi	r18, 0x21	; 33
    5458:	20 93 a2 04 	sts	0x04A2, r18
				string_1[12]='E';
    545c:	85 e4       	ldi	r24, 0x45	; 69
    545e:	80 93 a3 04 	sts	0x04A3, r24
				string_1[13]='R';
    5462:	92 e5       	ldi	r25, 0x52	; 82
    5464:	90 93 a4 04 	sts	0x04A4, r25
				string_1[14]='R';
    5468:	90 93 a5 04 	sts	0x04A5, r25
				string_1[15]='O';
    546c:	8f e4       	ldi	r24, 0x4F	; 79
    546e:	80 93 a6 04 	sts	0x04A6, r24
				string_1[16]='R';
    5472:	90 93 a7 04 	sts	0x04A7, r25
				string_1[17]='!';
    5476:	20 93 a8 04 	sts	0x04A8, r18
				string_1[18]=0x20;
    547a:	40 e2       	ldi	r20, 0x20	; 32
    547c:	40 93 a9 04 	sts	0x04A9, r20
    5480:	31 c0       	rjmp	.+98     	; 0x54e4 <main+0x2a2c>
			}
			else
			{
				if(hand_mode_set) // если выбран ручной режим одного из каналов - отображать информацию
    5482:	80 91 f8 04 	lds	r24, 0x04F8
    5486:	88 23       	and	r24, r24
    5488:	b1 f0       	breq	.+44     	; 0x54b6 <main+0x29fe>
				{
					string_1[11]='!';
    548a:	91 e2       	ldi	r25, 0x21	; 33
    548c:	90 93 a2 04 	sts	0x04A2, r25
					string_1[12]='!';
    5490:	90 93 a3 04 	sts	0x04A3, r25
					string_1[13]='H';
    5494:	88 e4       	ldi	r24, 0x48	; 72
    5496:	80 93 a4 04 	sts	0x04A4, r24
					string_1[14]='A';
    549a:	51 e4       	ldi	r21, 0x41	; 65
    549c:	50 93 a5 04 	sts	0x04A5, r21
					string_1[15]='N';
    54a0:	8e e4       	ldi	r24, 0x4E	; 78
    54a2:	80 93 a6 04 	sts	0x04A6, r24
					string_1[16]='D';
    54a6:	84 e4       	ldi	r24, 0x44	; 68
    54a8:	80 93 a7 04 	sts	0x04A7, r24
					string_1[17]='!';
    54ac:	90 93 a8 04 	sts	0x04A8, r25
					string_1[18]='!';
    54b0:	90 93 a9 04 	sts	0x04A9, r25
    54b4:	17 c0       	rjmp	.+46     	; 0x54e4 <main+0x2a2c>
				}
				else // иначе - указывать состояние большинства выводов - режим таймеров
				{
					string_1[11]='T';
    54b6:	84 e5       	ldi	r24, 0x54	; 84
    54b8:	80 93 a2 04 	sts	0x04A2, r24
					string_1[12]='I';
    54bc:	89 e4       	ldi	r24, 0x49	; 73
    54be:	80 93 a3 04 	sts	0x04A3, r24
					string_1[13]='M';
    54c2:	8d e4       	ldi	r24, 0x4D	; 77
    54c4:	80 93 a4 04 	sts	0x04A4, r24
					string_1[14]='E';
    54c8:	85 e4       	ldi	r24, 0x45	; 69
    54ca:	80 93 a5 04 	sts	0x04A5, r24
					string_1[15]='R';
    54ce:	82 e5       	ldi	r24, 0x52	; 82
    54d0:	80 93 a6 04 	sts	0x04A6, r24
					string_1[16]='S';
    54d4:	83 e5       	ldi	r24, 0x53	; 83
    54d6:	80 93 a7 04 	sts	0x04A7, r24
					string_1[17]=0x20;
    54da:	80 e2       	ldi	r24, 0x20	; 32
    54dc:	80 93 a8 04 	sts	0x04A8, r24
					string_1[18]=0x20;
    54e0:	80 93 a9 04 	sts	0x04A9, r24
				}
			}
			
			// отображение активных каналов в текущий момент
			if((rele_ports_status_lcd&0x01)==0x01) string_4[11]=0x31;
    54e4:	80 91 39 06 	lds	r24, 0x0639
    54e8:	80 ff       	sbrs	r24, 0
    54ea:	04 c0       	rjmp	.+8      	; 0x54f4 <main+0x2a3c>
    54ec:	81 e3       	ldi	r24, 0x31	; 49
    54ee:	80 93 de 04 	sts	0x04DE, r24
    54f2:	03 c0       	rjmp	.+6      	; 0x54fa <main+0x2a42>
			else string_4[11]='-';
    54f4:	9d e2       	ldi	r25, 0x2D	; 45
    54f6:	90 93 de 04 	sts	0x04DE, r25
			if((rele_ports_status_lcd&0x02)==0x02) string_4[12]=0x32;
    54fa:	80 91 39 06 	lds	r24, 0x0639
    54fe:	81 ff       	sbrs	r24, 1
    5500:	04 c0       	rjmp	.+8      	; 0x550a <main+0x2a52>
    5502:	82 e3       	ldi	r24, 0x32	; 50
    5504:	80 93 df 04 	sts	0x04DF, r24
    5508:	03 c0       	rjmp	.+6      	; 0x5510 <main+0x2a58>
			else string_4[12]='-';
    550a:	ad e2       	ldi	r26, 0x2D	; 45
    550c:	a0 93 df 04 	sts	0x04DF, r26
			if((rele_ports_status_lcd&0x04)==0x04) string_4[13]=0x33;
    5510:	80 91 39 06 	lds	r24, 0x0639
    5514:	82 ff       	sbrs	r24, 2
    5516:	04 c0       	rjmp	.+8      	; 0x5520 <main+0x2a68>
    5518:	83 e3       	ldi	r24, 0x33	; 51
    551a:	80 93 e0 04 	sts	0x04E0, r24
    551e:	03 c0       	rjmp	.+6      	; 0x5526 <main+0x2a6e>
			else string_4[13]='-';
    5520:	bd e2       	ldi	r27, 0x2D	; 45
    5522:	b0 93 e0 04 	sts	0x04E0, r27
			if((rele_ports_status_lcd&0x08)==0x08) string_4[14]=0x34;
    5526:	80 91 39 06 	lds	r24, 0x0639
    552a:	83 ff       	sbrs	r24, 3
    552c:	04 c0       	rjmp	.+8      	; 0x5536 <main+0x2a7e>
    552e:	e4 e3       	ldi	r30, 0x34	; 52
    5530:	e0 93 e1 04 	sts	0x04E1, r30
    5534:	03 c0       	rjmp	.+6      	; 0x553c <main+0x2a84>
			else string_4[14]='-';
    5536:	fd e2       	ldi	r31, 0x2D	; 45
    5538:	f0 93 e1 04 	sts	0x04E1, r31
			if((rele_ports_status_lcd&0x10)==0x10) string_4[15]=0x35;
    553c:	80 91 39 06 	lds	r24, 0x0639
    5540:	84 ff       	sbrs	r24, 4
    5542:	04 c0       	rjmp	.+8      	; 0x554c <main+0x2a94>
    5544:	25 e3       	ldi	r18, 0x35	; 53
    5546:	20 93 e2 04 	sts	0x04E2, r18
    554a:	03 c0       	rjmp	.+6      	; 0x5552 <main+0x2a9a>
			else string_4[15]='-';
    554c:	3d e2       	ldi	r19, 0x2D	; 45
    554e:	30 93 e2 04 	sts	0x04E2, r19
			if((rele_ports_status_lcd&0x20)==0x20) string_4[16]=0x36;
    5552:	80 91 39 06 	lds	r24, 0x0639
    5556:	85 ff       	sbrs	r24, 5
    5558:	04 c0       	rjmp	.+8      	; 0x5562 <main+0x2aaa>
    555a:	46 e3       	ldi	r20, 0x36	; 54
    555c:	40 93 e3 04 	sts	0x04E3, r20
    5560:	03 c0       	rjmp	.+6      	; 0x5568 <main+0x2ab0>
			else string_4[16]='-';
    5562:	5d e2       	ldi	r21, 0x2D	; 45
    5564:	50 93 e3 04 	sts	0x04E3, r21
			if((rele_ports_status_lcd&0x40)==0x40) string_4[17]=0x37;
    5568:	80 91 39 06 	lds	r24, 0x0639
    556c:	86 ff       	sbrs	r24, 6
    556e:	04 c0       	rjmp	.+8      	; 0x5578 <main+0x2ac0>
    5570:	87 e3       	ldi	r24, 0x37	; 55
    5572:	80 93 e4 04 	sts	0x04E4, r24
    5576:	03 c0       	rjmp	.+6      	; 0x557e <main+0x2ac6>
			else string_4[17]='-';
    5578:	9d e2       	ldi	r25, 0x2D	; 45
    557a:	90 93 e4 04 	sts	0x04E4, r25
			if((rele_ports_status_lcd&0x80)==0x80) string_4[18]=0x38;
    557e:	80 91 39 06 	lds	r24, 0x0639
    5582:	87 ff       	sbrs	r24, 7
    5584:	04 c0       	rjmp	.+8      	; 0x558e <main+0x2ad6>
    5586:	a8 e3       	ldi	r26, 0x38	; 56
    5588:	a0 93 e5 04 	sts	0x04E5, r26
    558c:	03 c0       	rjmp	.+6      	; 0x5594 <main+0x2adc>
			else string_4[18]='-';
    558e:	bd e2       	ldi	r27, 0x2D	; 45
    5590:	b0 93 e5 04 	sts	0x04E5, r27
			if(OCR0>0) string_4[19]='C';
    5594:	8c b7       	in	r24, 0x3c	; 60
    5596:	88 23       	and	r24, r24
    5598:	21 f0       	breq	.+8      	; 0x55a2 <main+0x2aea>
    559a:	e3 e4       	ldi	r30, 0x43	; 67
    559c:	e0 93 e6 04 	sts	0x04E6, r30
    55a0:	03 c0       	rjmp	.+6      	; 0x55a8 <main+0x2af0>
			else string_4[19]='-';
    55a2:	fd e2       	ldi	r31, 0x2D	; 45
    55a4:	f0 93 e6 04 	sts	0x04E6, r31
			
			FlagsFastCount &= ~_BV(10); // сбросить флаг
    55a8:	80 91 11 05 	lds	r24, 0x0511
    55ac:	90 91 12 05 	lds	r25, 0x0512
    55b0:	9b 7f       	andi	r25, 0xFB	; 251
    55b2:	90 93 12 05 	sts	0x0512, r25
    55b6:	80 93 11 05 	sts	0x0511, r24
		};
		
		if (FlagsFastCount & _BV(12)) // ~ 1,34 s
    55ba:	80 91 11 05 	lds	r24, 0x0511
    55be:	90 91 12 05 	lds	r25, 0x0512
    55c2:	94 ff       	sbrs	r25, 4
    55c4:	0f c0       	rjmp	.+30     	; 0x55e4 <main+0x2b2c>
		{
			// формирование сигнала для ADM690A
			WDI_PORT|=WDI;
    55c6:	db 9a       	sbi	0x1b, 3	; 27
    55c8:	84 e1       	ldi	r24, 0x14	; 20
    55ca:	91 e0       	ldi	r25, 0x01	; 1
    55cc:	01 97       	sbiw	r24, 0x01	; 1
    55ce:	f1 f7       	brne	.-4      	; 0x55cc <main+0x2b14>
			_delay_us(100);
			WDI_PORT&=~WDI;
    55d0:	db 98       	cbi	0x1b, 3	; 27
			
			FlagsFastCount &= ~_BV(12); // сбросить флаг
    55d2:	80 91 11 05 	lds	r24, 0x0511
    55d6:	90 91 12 05 	lds	r25, 0x0512
    55da:	9f 7e       	andi	r25, 0xEF	; 239
    55dc:	90 93 12 05 	sts	0x0512, r25
    55e0:	80 93 11 05 	sts	0x0511, r24
		};
		
		if (FlagsFastCount & _BV(13)) // ~ 2,67 s
    55e4:	80 91 11 05 	lds	r24, 0x0511
    55e8:	90 91 12 05 	lds	r25, 0x0512
    55ec:	95 ff       	sbrs	r25, 5
    55ee:	b8 c2       	rjmp	.+1392   	; 0x5b60 <main+0x30a8>
		{
			if(TRANSMIT==0x00) // передача разрешена
    55f0:	80 91 0c 05 	lds	r24, 0x050C
    55f4:	88 23       	and	r24, r24
    55f6:	09 f0       	breq	.+2      	; 0x55fa <main+0x2b42>
    55f8:	aa c2       	rjmp	.+1364   	; 0x5b4e <main+0x3096>
			{
				TRANSMIT=0x01; // запрет передачи
    55fa:	81 e0       	ldi	r24, 0x01	; 1
    55fc:	80 93 0c 05 	sts	0x050C, r24
				usart_data_in_num=67; // кол-во отправляемых байт
    5600:	83 e4       	ldi	r24, 0x43	; 67
    5602:	90 e0       	ldi	r25, 0x00	; 0
    5604:	90 93 10 05 	sts	0x0510, r25
    5608:	80 93 0f 05 	sts	0x050F, r24
				cooler_hand_power=cooler_data[0]/2.55; // преобразование значения
    560c:	60 91 3a 05 	lds	r22, 0x053A
    5610:	70 91 3b 05 	lds	r23, 0x053B
    5614:	80 91 3c 05 	lds	r24, 0x053C
    5618:	90 91 3d 05 	lds	r25, 0x053D
    561c:	23 e3       	ldi	r18, 0x33	; 51
    561e:	33 e3       	ldi	r19, 0x33	; 51
    5620:	43 e2       	ldi	r20, 0x23	; 35
    5622:	50 e4       	ldi	r21, 0x40	; 64
    5624:	0e 94 4f 2e 	call	0x5c9e	; 0x5c9e <__divsf3>
    5628:	0e 94 b7 2e 	call	0x5d6e	; 0x5d6e <__fixunssfsi>
    562c:	5b 01       	movw	r10, r22
    562e:	6c 01       	movw	r12, r24
    5630:	70 93 07 05 	sts	0x0507, r23
    5634:	60 93 06 05 	sts	0x0506, r22
				// START
				buffer[0]=0x3B; 
    5638:	8b e3       	ldi	r24, 0x3B	; 59
    563a:	80 93 65 00 	sts	0x0065, r24
				buffer[1]=0xa1; // команда - данные состояния
    563e:	81 ea       	ldi	r24, 0xA1	; 161
    5640:	80 93 66 00 	sts	0x0066, r24
				// time
				buffer[2]=string_1[0];
    5644:	80 91 97 04 	lds	r24, 0x0497
    5648:	80 93 67 00 	sts	0x0067, r24
				buffer[3]=string_1[1];
    564c:	80 91 98 04 	lds	r24, 0x0498
    5650:	80 93 68 00 	sts	0x0068, r24
				buffer[4]=string_1[3];
    5654:	80 91 9a 04 	lds	r24, 0x049A
    5658:	80 93 69 00 	sts	0x0069, r24
				buffer[5]=string_1[4];
    565c:	80 91 9b 04 	lds	r24, 0x049B
    5660:	80 93 6a 00 	sts	0x006A, r24
				buffer[6]=string_1[6];
    5664:	80 91 9d 04 	lds	r24, 0x049D
    5668:	80 93 6b 00 	sts	0x006B, r24
				buffer[7]=string_1[7];
    566c:	80 91 9e 04 	lds	r24, 0x049E
    5670:	80 93 6c 00 	sts	0x006C, r24
				// T1
				buffer[8]=string_2[5];
    5674:	80 91 b0 04 	lds	r24, 0x04B0
    5678:	80 93 6d 00 	sts	0x006D, r24
				buffer[9]=string_2[6];
    567c:	80 91 b1 04 	lds	r24, 0x04B1
    5680:	80 93 6e 00 	sts	0x006E, r24
				buffer[10]=string_2[8];
    5684:	80 91 b3 04 	lds	r24, 0x04B3
    5688:	80 93 6f 00 	sts	0x006F, r24
				// T2
				buffer[11]=string_3[5];
    568c:	80 91 c4 04 	lds	r24, 0x04C4
    5690:	80 93 70 00 	sts	0x0070, r24
				buffer[12]=string_3[6];
    5694:	80 91 c5 04 	lds	r24, 0x04C5
    5698:	80 93 71 00 	sts	0x0071, r24
				buffer[13]=string_3[8];
    569c:	80 91 c7 04 	lds	r24, 0x04C7
    56a0:	80 93 72 00 	sts	0x0072, r24
				// T3
				buffer[14]=string_4[5];
    56a4:	80 91 d8 04 	lds	r24, 0x04D8
    56a8:	80 93 73 00 	sts	0x0073, r24
				buffer[15]=string_4[6];
    56ac:	80 91 d9 04 	lds	r24, 0x04D9
    56b0:	80 93 74 00 	sts	0x0074, r24
				buffer[16]=string_4[8];
    56b4:	80 91 db 04 	lds	r24, 0x04DB
    56b8:	80 93 75 00 	sts	0x0075, r24
				// PH
				buffer[17]=string_2[15];
    56bc:	80 91 ba 04 	lds	r24, 0x04BA
    56c0:	80 93 76 00 	sts	0x0076, r24
				buffer[18]=string_2[16];
    56c4:	80 91 bb 04 	lds	r24, 0x04BB
    56c8:	80 93 77 00 	sts	0x0077, r24
				buffer[19]=string_2[18];
    56cc:	80 91 bd 04 	lds	r24, 0x04BD
    56d0:	80 93 78 00 	sts	0x0078, r24
				buffer[20]=string_2[19];
    56d4:	80 91 be 04 	lds	r24, 0x04BE
    56d8:	80 93 79 00 	sts	0x0079, r24
				// Redox
				buffer[21]=string_3[15];
    56dc:	80 91 ce 04 	lds	r24, 0x04CE
    56e0:	80 93 7a 00 	sts	0x007A, r24
				buffer[22]=string_3[17];
    56e4:	80 91 d0 04 	lds	r24, 0x04D0
    56e8:	80 93 7b 00 	sts	0x007B, r24
				buffer[23]=string_3[18];
    56ec:	80 91 d1 04 	lds	r24, 0x04D1
    56f0:	80 93 7c 00 	sts	0x007C, r24
				buffer[24]=string_3[19];
    56f4:	80 91 d2 04 	lds	r24, 0x04D2
    56f8:	80 93 7d 00 	sts	0x007D, r24
				// status
				buffer[25]=rele_ports_status;
    56fc:	80 91 38 06 	lds	r24, 0x0638
    5700:	80 93 7e 00 	sts	0x007E, r24
				buffer[26]=rele_hand_status;
    5704:	80 91 3e 06 	lds	r24, 0x063E
    5708:	80 93 7f 00 	sts	0x007F, r24
				buffer[27]=cooler_chanel_status;
    570c:	80 91 3f 06 	lds	r24, 0x063F
    5710:	80 93 80 00 	sts	0x0080, r24
				// k1
				buffer[28]=k1/1000+0x30;
    5714:	e0 90 65 04 	lds	r14, 0x0465
    5718:	f0 90 66 04 	lds	r15, 0x0466
    571c:	00 91 67 04 	lds	r16, 0x0467
    5720:	10 91 68 04 	lds	r17, 0x0468
    5724:	c8 01       	movw	r24, r16
    5726:	b7 01       	movw	r22, r14
    5728:	28 ee       	ldi	r18, 0xE8	; 232
    572a:	33 e0       	ldi	r19, 0x03	; 3
    572c:	40 e0       	ldi	r20, 0x00	; 0
    572e:	50 e0       	ldi	r21, 0x00	; 0
    5730:	0e 94 6c 30 	call	0x60d8	; 0x60d8 <__divmodsi4>
    5734:	20 5d       	subi	r18, 0xD0	; 208
    5736:	20 93 81 00 	sts	0x0081, r18
				buffer[29]=(k1%1000)/100+0x30;
    573a:	c8 01       	movw	r24, r16
    573c:	b7 01       	movw	r22, r14
    573e:	28 ee       	ldi	r18, 0xE8	; 232
    5740:	33 e0       	ldi	r19, 0x03	; 3
    5742:	40 e0       	ldi	r20, 0x00	; 0
    5744:	50 e0       	ldi	r21, 0x00	; 0
    5746:	0e 94 6c 30 	call	0x60d8	; 0x60d8 <__divmodsi4>
    574a:	7b 01       	movw	r14, r22
    574c:	8c 01       	movw	r16, r24
    574e:	24 e6       	ldi	r18, 0x64	; 100
    5750:	30 e0       	ldi	r19, 0x00	; 0
    5752:	40 e0       	ldi	r20, 0x00	; 0
    5754:	50 e0       	ldi	r21, 0x00	; 0
    5756:	0e 94 6c 30 	call	0x60d8	; 0x60d8 <__divmodsi4>
    575a:	20 5d       	subi	r18, 0xD0	; 208
    575c:	20 93 82 00 	sts	0x0082, r18
				buffer[30]=((k1%1000)%100)/10+0x30;
    5760:	c8 01       	movw	r24, r16
    5762:	b7 01       	movw	r22, r14
    5764:	24 e6       	ldi	r18, 0x64	; 100
    5766:	30 e0       	ldi	r19, 0x00	; 0
    5768:	40 e0       	ldi	r20, 0x00	; 0
    576a:	50 e0       	ldi	r21, 0x00	; 0
    576c:	0e 94 6c 30 	call	0x60d8	; 0x60d8 <__divmodsi4>
    5770:	7b 01       	movw	r14, r22
    5772:	8c 01       	movw	r16, r24
    5774:	2a e0       	ldi	r18, 0x0A	; 10
    5776:	30 e0       	ldi	r19, 0x00	; 0
    5778:	40 e0       	ldi	r20, 0x00	; 0
    577a:	50 e0       	ldi	r21, 0x00	; 0
    577c:	0e 94 6c 30 	call	0x60d8	; 0x60d8 <__divmodsi4>
    5780:	20 5d       	subi	r18, 0xD0	; 208
    5782:	20 93 83 00 	sts	0x0083, r18
				buffer[31]=((k1%1000)%100)%10+0x30;
    5786:	c8 01       	movw	r24, r16
    5788:	b7 01       	movw	r22, r14
    578a:	2a e0       	ldi	r18, 0x0A	; 10
    578c:	30 e0       	ldi	r19, 0x00	; 0
    578e:	40 e0       	ldi	r20, 0x00	; 0
    5790:	50 e0       	ldi	r21, 0x00	; 0
    5792:	0e 94 6c 30 	call	0x60d8	; 0x60d8 <__divmodsi4>
    5796:	60 5d       	subi	r22, 0xD0	; 208
    5798:	60 93 84 00 	sts	0x0084, r22
				// k2
				buffer[32]=(k2/1000)/100+0x30;
    579c:	e0 90 69 04 	lds	r14, 0x0469
    57a0:	f0 90 6a 04 	lds	r15, 0x046A
    57a4:	00 91 6b 04 	lds	r16, 0x046B
    57a8:	10 91 6c 04 	lds	r17, 0x046C
    57ac:	c8 01       	movw	r24, r16
    57ae:	b7 01       	movw	r22, r14
    57b0:	20 ea       	ldi	r18, 0xA0	; 160
    57b2:	36 e8       	ldi	r19, 0x86	; 134
    57b4:	41 e0       	ldi	r20, 0x01	; 1
    57b6:	50 e0       	ldi	r21, 0x00	; 0
    57b8:	0e 94 6c 30 	call	0x60d8	; 0x60d8 <__divmodsi4>
    57bc:	20 5d       	subi	r18, 0xD0	; 208
    57be:	20 93 85 00 	sts	0x0085, r18
				buffer[33]=((k2/1000)%100)/10+0x30;
    57c2:	c8 01       	movw	r24, r16
    57c4:	b7 01       	movw	r22, r14
    57c6:	28 ee       	ldi	r18, 0xE8	; 232
    57c8:	33 e0       	ldi	r19, 0x03	; 3
    57ca:	40 e0       	ldi	r20, 0x00	; 0
    57cc:	50 e0       	ldi	r21, 0x00	; 0
    57ce:	0e 94 6c 30 	call	0x60d8	; 0x60d8 <__divmodsi4>
    57d2:	ca 01       	movw	r24, r20
    57d4:	b9 01       	movw	r22, r18
    57d6:	24 e6       	ldi	r18, 0x64	; 100
    57d8:	30 e0       	ldi	r19, 0x00	; 0
    57da:	40 e0       	ldi	r20, 0x00	; 0
    57dc:	50 e0       	ldi	r21, 0x00	; 0
    57de:	0e 94 6c 30 	call	0x60d8	; 0x60d8 <__divmodsi4>
    57e2:	7b 01       	movw	r14, r22
    57e4:	8c 01       	movw	r16, r24
    57e6:	2a e0       	ldi	r18, 0x0A	; 10
    57e8:	30 e0       	ldi	r19, 0x00	; 0
    57ea:	40 e0       	ldi	r20, 0x00	; 0
    57ec:	50 e0       	ldi	r21, 0x00	; 0
    57ee:	0e 94 6c 30 	call	0x60d8	; 0x60d8 <__divmodsi4>
    57f2:	20 5d       	subi	r18, 0xD0	; 208
    57f4:	20 93 86 00 	sts	0x0086, r18
				buffer[34]=((k2/1000)%100)%10+0x30;
    57f8:	c8 01       	movw	r24, r16
    57fa:	b7 01       	movw	r22, r14
    57fc:	2a e0       	ldi	r18, 0x0A	; 10
    57fe:	30 e0       	ldi	r19, 0x00	; 0
    5800:	40 e0       	ldi	r20, 0x00	; 0
    5802:	50 e0       	ldi	r21, 0x00	; 0
    5804:	0e 94 6c 30 	call	0x60d8	; 0x60d8 <__divmodsi4>
    5808:	60 5d       	subi	r22, 0xD0	; 208
    580a:	60 93 87 00 	sts	0x0087, r22
				// k
				buffer[35]=k/1000+0x30;
    580e:	e0 90 6d 04 	lds	r14, 0x046D
    5812:	f0 90 6e 04 	lds	r15, 0x046E
    5816:	00 91 6f 04 	lds	r16, 0x046F
    581a:	10 91 70 04 	lds	r17, 0x0470
    581e:	c8 01       	movw	r24, r16
    5820:	b7 01       	movw	r22, r14
    5822:	28 ee       	ldi	r18, 0xE8	; 232
    5824:	33 e0       	ldi	r19, 0x03	; 3
    5826:	40 e0       	ldi	r20, 0x00	; 0
    5828:	50 e0       	ldi	r21, 0x00	; 0
    582a:	0e 94 6c 30 	call	0x60d8	; 0x60d8 <__divmodsi4>
    582e:	20 5d       	subi	r18, 0xD0	; 208
    5830:	20 93 88 00 	sts	0x0088, r18
				buffer[36]=(k%1000)/100+0x30;
    5834:	c8 01       	movw	r24, r16
    5836:	b7 01       	movw	r22, r14
    5838:	28 ee       	ldi	r18, 0xE8	; 232
    583a:	33 e0       	ldi	r19, 0x03	; 3
    583c:	40 e0       	ldi	r20, 0x00	; 0
    583e:	50 e0       	ldi	r21, 0x00	; 0
    5840:	0e 94 6c 30 	call	0x60d8	; 0x60d8 <__divmodsi4>
    5844:	7b 01       	movw	r14, r22
    5846:	8c 01       	movw	r16, r24
    5848:	24 e6       	ldi	r18, 0x64	; 100
    584a:	30 e0       	ldi	r19, 0x00	; 0
    584c:	40 e0       	ldi	r20, 0x00	; 0
    584e:	50 e0       	ldi	r21, 0x00	; 0
    5850:	0e 94 6c 30 	call	0x60d8	; 0x60d8 <__divmodsi4>
    5854:	20 5d       	subi	r18, 0xD0	; 208
    5856:	20 93 89 00 	sts	0x0089, r18
				buffer[37]=((k%1000)%100)/10+0x30;
    585a:	c8 01       	movw	r24, r16
    585c:	b7 01       	movw	r22, r14
    585e:	24 e6       	ldi	r18, 0x64	; 100
    5860:	30 e0       	ldi	r19, 0x00	; 0
    5862:	40 e0       	ldi	r20, 0x00	; 0
    5864:	50 e0       	ldi	r21, 0x00	; 0
    5866:	0e 94 6c 30 	call	0x60d8	; 0x60d8 <__divmodsi4>
    586a:	7b 01       	movw	r14, r22
    586c:	8c 01       	movw	r16, r24
    586e:	2a e0       	ldi	r18, 0x0A	; 10
    5870:	30 e0       	ldi	r19, 0x00	; 0
    5872:	40 e0       	ldi	r20, 0x00	; 0
    5874:	50 e0       	ldi	r21, 0x00	; 0
    5876:	0e 94 6c 30 	call	0x60d8	; 0x60d8 <__divmodsi4>
    587a:	20 5d       	subi	r18, 0xD0	; 208
    587c:	20 93 8a 00 	sts	0x008A, r18
				buffer[38]=((k%1000)%100)%10+0x30;
    5880:	c8 01       	movw	r24, r16
    5882:	b7 01       	movw	r22, r14
    5884:	2a e0       	ldi	r18, 0x0A	; 10
    5886:	30 e0       	ldi	r19, 0x00	; 0
    5888:	40 e0       	ldi	r20, 0x00	; 0
    588a:	50 e0       	ldi	r21, 0x00	; 0
    588c:	0e 94 6c 30 	call	0x60d8	; 0x60d8 <__divmodsi4>
    5890:	60 5d       	subi	r22, 0xD0	; 208
    5892:	60 93 8b 00 	sts	0x008B, r22
				// состояние режимов
				buffer[39]=mode_status;
    5896:	80 91 41 06 	lds	r24, 0x0641
    589a:	80 93 8c 00 	sts	0x008C, r24
				// doliv_porog1
				buffer[40]=doliv_porog1/1000+0x30;
    589e:	20 91 fc 04 	lds	r18, 0x04FC
    58a2:	30 91 fd 04 	lds	r19, 0x04FD
    58a6:	c9 01       	movw	r24, r18
    58a8:	68 ee       	ldi	r22, 0xE8	; 232
    58aa:	73 e0       	ldi	r23, 0x03	; 3
    58ac:	0e 94 37 30 	call	0x606e	; 0x606e <__divmodhi4>
    58b0:	60 5d       	subi	r22, 0xD0	; 208
    58b2:	60 93 8d 00 	sts	0x008D, r22
				buffer[41]=(doliv_porog1%1000)/100+0x30;
    58b6:	c9 01       	movw	r24, r18
    58b8:	68 ee       	ldi	r22, 0xE8	; 232
    58ba:	73 e0       	ldi	r23, 0x03	; 3
    58bc:	0e 94 37 30 	call	0x606e	; 0x606e <__divmodhi4>
    58c0:	9c 01       	movw	r18, r24
    58c2:	64 e6       	ldi	r22, 0x64	; 100
    58c4:	70 e0       	ldi	r23, 0x00	; 0
    58c6:	0e 94 37 30 	call	0x606e	; 0x606e <__divmodhi4>
    58ca:	60 5d       	subi	r22, 0xD0	; 208
    58cc:	60 93 8e 00 	sts	0x008E, r22
				buffer[42]=((doliv_porog1%1000)%100)/10+0x30;
    58d0:	c9 01       	movw	r24, r18
    58d2:	64 e6       	ldi	r22, 0x64	; 100
    58d4:	70 e0       	ldi	r23, 0x00	; 0
    58d6:	0e 94 37 30 	call	0x606e	; 0x606e <__divmodhi4>
    58da:	9c 01       	movw	r18, r24
    58dc:	6a e0       	ldi	r22, 0x0A	; 10
    58de:	70 e0       	ldi	r23, 0x00	; 0
    58e0:	0e 94 37 30 	call	0x606e	; 0x606e <__divmodhi4>
    58e4:	60 5d       	subi	r22, 0xD0	; 208
    58e6:	60 93 8f 00 	sts	0x008F, r22
				buffer[43]=((doliv_porog1%1000)%100)%10+0x30;
    58ea:	c9 01       	movw	r24, r18
    58ec:	6a e0       	ldi	r22, 0x0A	; 10
    58ee:	70 e0       	ldi	r23, 0x00	; 0
    58f0:	0e 94 37 30 	call	0x606e	; 0x606e <__divmodhi4>
    58f4:	80 5d       	subi	r24, 0xD0	; 208
    58f6:	80 93 90 00 	sts	0x0090, r24
				// doliv_porog2
				buffer[44]=doliv_porog2/1000+0x30;
    58fa:	20 91 fe 04 	lds	r18, 0x04FE
    58fe:	30 91 ff 04 	lds	r19, 0x04FF
    5902:	c9 01       	movw	r24, r18
    5904:	68 ee       	ldi	r22, 0xE8	; 232
    5906:	73 e0       	ldi	r23, 0x03	; 3
    5908:	0e 94 37 30 	call	0x606e	; 0x606e <__divmodhi4>
    590c:	60 5d       	subi	r22, 0xD0	; 208
    590e:	60 93 91 00 	sts	0x0091, r22
				buffer[45]=(doliv_porog2%1000)/100+0x30;
    5912:	c9 01       	movw	r24, r18
    5914:	68 ee       	ldi	r22, 0xE8	; 232
    5916:	73 e0       	ldi	r23, 0x03	; 3
    5918:	0e 94 37 30 	call	0x606e	; 0x606e <__divmodhi4>
    591c:	9c 01       	movw	r18, r24
    591e:	64 e6       	ldi	r22, 0x64	; 100
    5920:	70 e0       	ldi	r23, 0x00	; 0
    5922:	0e 94 37 30 	call	0x606e	; 0x606e <__divmodhi4>
    5926:	60 5d       	subi	r22, 0xD0	; 208
    5928:	60 93 92 00 	sts	0x0092, r22
				buffer[46]=((doliv_porog2%1000)%100)/10+0x30;
    592c:	c9 01       	movw	r24, r18
    592e:	64 e6       	ldi	r22, 0x64	; 100
    5930:	70 e0       	ldi	r23, 0x00	; 0
    5932:	0e 94 37 30 	call	0x606e	; 0x606e <__divmodhi4>
    5936:	9c 01       	movw	r18, r24
    5938:	6a e0       	ldi	r22, 0x0A	; 10
    593a:	70 e0       	ldi	r23, 0x00	; 0
    593c:	0e 94 37 30 	call	0x606e	; 0x606e <__divmodhi4>
    5940:	60 5d       	subi	r22, 0xD0	; 208
    5942:	60 93 93 00 	sts	0x0093, r22
				buffer[47]=((doliv_porog2%1000)%100)%10+0x30;
    5946:	c9 01       	movw	r24, r18
    5948:	6a e0       	ldi	r22, 0x0A	; 10
    594a:	70 e0       	ldi	r23, 0x00	; 0
    594c:	0e 94 37 30 	call	0x606e	; 0x606e <__divmodhi4>
    5950:	80 5d       	subi	r24, 0xD0	; 208
    5952:	80 93 94 00 	sts	0x0094, r24
				// water_lvl
				buffer[48]=water_lvl/1000+0x30;
    5956:	20 91 20 05 	lds	r18, 0x0520
    595a:	30 91 21 05 	lds	r19, 0x0521
    595e:	c9 01       	movw	r24, r18
    5960:	68 ee       	ldi	r22, 0xE8	; 232
    5962:	73 e0       	ldi	r23, 0x03	; 3
    5964:	0e 94 37 30 	call	0x606e	; 0x606e <__divmodhi4>
    5968:	60 5d       	subi	r22, 0xD0	; 208
    596a:	60 93 95 00 	sts	0x0095, r22
				buffer[49]=(water_lvl%1000)/100+0x30;
    596e:	c9 01       	movw	r24, r18
    5970:	68 ee       	ldi	r22, 0xE8	; 232
    5972:	73 e0       	ldi	r23, 0x03	; 3
    5974:	0e 94 37 30 	call	0x606e	; 0x606e <__divmodhi4>
    5978:	9c 01       	movw	r18, r24
    597a:	64 e6       	ldi	r22, 0x64	; 100
    597c:	70 e0       	ldi	r23, 0x00	; 0
    597e:	0e 94 37 30 	call	0x606e	; 0x606e <__divmodhi4>
    5982:	60 5d       	subi	r22, 0xD0	; 208
    5984:	60 93 96 00 	sts	0x0096, r22
				buffer[50]=((water_lvl%1000)%100)/10+0x30;
    5988:	c9 01       	movw	r24, r18
    598a:	64 e6       	ldi	r22, 0x64	; 100
    598c:	70 e0       	ldi	r23, 0x00	; 0
    598e:	0e 94 37 30 	call	0x606e	; 0x606e <__divmodhi4>
    5992:	9c 01       	movw	r18, r24
    5994:	6a e0       	ldi	r22, 0x0A	; 10
    5996:	70 e0       	ldi	r23, 0x00	; 0
    5998:	0e 94 37 30 	call	0x606e	; 0x606e <__divmodhi4>
    599c:	60 5d       	subi	r22, 0xD0	; 208
    599e:	60 93 97 00 	sts	0x0097, r22
				buffer[51]=((water_lvl%1000)%100)%10+0x30;
    59a2:	c9 01       	movw	r24, r18
    59a4:	6a e0       	ldi	r22, 0x0A	; 10
    59a6:	70 e0       	ldi	r23, 0x00	; 0
    59a8:	0e 94 37 30 	call	0x606e	; 0x606e <__divmodhi4>
    59ac:	80 5d       	subi	r24, 0xD0	; 208
    59ae:	80 93 98 00 	sts	0x0098, r24
				buffer[52]=water_lvl_status;
    59b2:	80 91 03 05 	lds	r24, 0x0503
    59b6:	80 93 99 00 	sts	0x0099, r24
				// LED time
				buffer[53]=lcd_led_stop/100000+0x30;
    59ba:	60 91 82 04 	lds	r22, 0x0482
    59be:	70 91 83 04 	lds	r23, 0x0483
    59c2:	80 91 84 04 	lds	r24, 0x0484
    59c6:	90 91 85 04 	lds	r25, 0x0485
    59ca:	20 ea       	ldi	r18, 0xA0	; 160
    59cc:	36 e8       	ldi	r19, 0x86	; 134
    59ce:	41 e0       	ldi	r20, 0x01	; 1
    59d0:	50 e0       	ldi	r21, 0x00	; 0
    59d2:	0e 94 4a 30 	call	0x6094	; 0x6094 <__udivmodsi4>
    59d6:	20 5d       	subi	r18, 0xD0	; 208
    59d8:	20 93 9a 00 	sts	0x009A, r18
				buffer[54]=(lcd_led_stop%100000)/10000+0x30;
    59dc:	60 91 82 04 	lds	r22, 0x0482
    59e0:	70 91 83 04 	lds	r23, 0x0483
    59e4:	80 91 84 04 	lds	r24, 0x0484
    59e8:	90 91 85 04 	lds	r25, 0x0485
    59ec:	20 ea       	ldi	r18, 0xA0	; 160
    59ee:	36 e8       	ldi	r19, 0x86	; 134
    59f0:	41 e0       	ldi	r20, 0x01	; 1
    59f2:	50 e0       	ldi	r21, 0x00	; 0
    59f4:	0e 94 4a 30 	call	0x6094	; 0x6094 <__udivmodsi4>
    59f8:	20 e1       	ldi	r18, 0x10	; 16
    59fa:	37 e2       	ldi	r19, 0x27	; 39
    59fc:	40 e0       	ldi	r20, 0x00	; 0
    59fe:	50 e0       	ldi	r21, 0x00	; 0
    5a00:	0e 94 4a 30 	call	0x6094	; 0x6094 <__udivmodsi4>
    5a04:	20 5d       	subi	r18, 0xD0	; 208
    5a06:	20 93 9b 00 	sts	0x009B, r18
				buffer[55]=lcd_led_start/100000+0x30;
    5a0a:	60 91 7e 04 	lds	r22, 0x047E
    5a0e:	70 91 7f 04 	lds	r23, 0x047F
    5a12:	80 91 80 04 	lds	r24, 0x0480
    5a16:	90 91 81 04 	lds	r25, 0x0481
    5a1a:	20 ea       	ldi	r18, 0xA0	; 160
    5a1c:	36 e8       	ldi	r19, 0x86	; 134
    5a1e:	41 e0       	ldi	r20, 0x01	; 1
    5a20:	50 e0       	ldi	r21, 0x00	; 0
    5a22:	0e 94 4a 30 	call	0x6094	; 0x6094 <__udivmodsi4>
    5a26:	20 5d       	subi	r18, 0xD0	; 208
    5a28:	20 93 9c 00 	sts	0x009C, r18
				buffer[56]=(lcd_led_start%100000)/10000+0x30;
    5a2c:	60 91 7e 04 	lds	r22, 0x047E
    5a30:	70 91 7f 04 	lds	r23, 0x047F
    5a34:	80 91 80 04 	lds	r24, 0x0480
    5a38:	90 91 81 04 	lds	r25, 0x0481
    5a3c:	20 ea       	ldi	r18, 0xA0	; 160
    5a3e:	36 e8       	ldi	r19, 0x86	; 134
    5a40:	41 e0       	ldi	r20, 0x01	; 1
    5a42:	50 e0       	ldi	r21, 0x00	; 0
    5a44:	0e 94 4a 30 	call	0x6094	; 0x6094 <__udivmodsi4>
    5a48:	20 e1       	ldi	r18, 0x10	; 16
    5a4a:	37 e2       	ldi	r19, 0x27	; 39
    5a4c:	40 e0       	ldi	r20, 0x00	; 0
    5a4e:	50 e0       	ldi	r21, 0x00	; 0
    5a50:	0e 94 4a 30 	call	0x6094	; 0x6094 <__udivmodsi4>
    5a54:	20 5d       	subi	r18, 0xD0	; 208
    5a56:	20 93 9d 00 	sts	0x009D, r18
				// COOLER time
				buffer[57]=cooler_stop/100000+0x30;
    5a5a:	60 91 8a 04 	lds	r22, 0x048A
    5a5e:	70 91 8b 04 	lds	r23, 0x048B
    5a62:	80 91 8c 04 	lds	r24, 0x048C
    5a66:	90 91 8d 04 	lds	r25, 0x048D
    5a6a:	20 ea       	ldi	r18, 0xA0	; 160
    5a6c:	36 e8       	ldi	r19, 0x86	; 134
    5a6e:	41 e0       	ldi	r20, 0x01	; 1
    5a70:	50 e0       	ldi	r21, 0x00	; 0
    5a72:	0e 94 4a 30 	call	0x6094	; 0x6094 <__udivmodsi4>
    5a76:	20 5d       	subi	r18, 0xD0	; 208
    5a78:	20 93 9e 00 	sts	0x009E, r18
				buffer[58]=(cooler_stop%100000)/10000+0x30;
    5a7c:	60 91 8a 04 	lds	r22, 0x048A
    5a80:	70 91 8b 04 	lds	r23, 0x048B
    5a84:	80 91 8c 04 	lds	r24, 0x048C
    5a88:	90 91 8d 04 	lds	r25, 0x048D
    5a8c:	20 ea       	ldi	r18, 0xA0	; 160
    5a8e:	36 e8       	ldi	r19, 0x86	; 134
    5a90:	41 e0       	ldi	r20, 0x01	; 1
    5a92:	50 e0       	ldi	r21, 0x00	; 0
    5a94:	0e 94 4a 30 	call	0x6094	; 0x6094 <__udivmodsi4>
    5a98:	20 e1       	ldi	r18, 0x10	; 16
    5a9a:	37 e2       	ldi	r19, 0x27	; 39
    5a9c:	40 e0       	ldi	r20, 0x00	; 0
    5a9e:	50 e0       	ldi	r21, 0x00	; 0
    5aa0:	0e 94 4a 30 	call	0x6094	; 0x6094 <__udivmodsi4>
    5aa4:	20 5d       	subi	r18, 0xD0	; 208
    5aa6:	20 93 9f 00 	sts	0x009F, r18
				buffer[59]=cooler_start/100000+0x30;
    5aaa:	60 91 86 04 	lds	r22, 0x0486
    5aae:	70 91 87 04 	lds	r23, 0x0487
    5ab2:	80 91 88 04 	lds	r24, 0x0488
    5ab6:	90 91 89 04 	lds	r25, 0x0489
    5aba:	20 ea       	ldi	r18, 0xA0	; 160
    5abc:	36 e8       	ldi	r19, 0x86	; 134
    5abe:	41 e0       	ldi	r20, 0x01	; 1
    5ac0:	50 e0       	ldi	r21, 0x00	; 0
    5ac2:	0e 94 4a 30 	call	0x6094	; 0x6094 <__udivmodsi4>
    5ac6:	20 5d       	subi	r18, 0xD0	; 208
    5ac8:	20 93 a0 00 	sts	0x00A0, r18
				buffer[60]=(cooler_start%100000)/10000+0x30;
    5acc:	60 91 86 04 	lds	r22, 0x0486
    5ad0:	70 91 87 04 	lds	r23, 0x0487
    5ad4:	80 91 88 04 	lds	r24, 0x0488
    5ad8:	90 91 89 04 	lds	r25, 0x0489
    5adc:	20 ea       	ldi	r18, 0xA0	; 160
    5ade:	36 e8       	ldi	r19, 0x86	; 134
    5ae0:	41 e0       	ldi	r20, 0x01	; 1
    5ae2:	50 e0       	ldi	r21, 0x00	; 0
    5ae4:	0e 94 4a 30 	call	0x6094	; 0x6094 <__udivmodsi4>
    5ae8:	20 e1       	ldi	r18, 0x10	; 16
    5aea:	37 e2       	ldi	r19, 0x27	; 39
    5aec:	40 e0       	ldi	r20, 0x00	; 0
    5aee:	50 e0       	ldi	r21, 0x00	; 0
    5af0:	0e 94 4a 30 	call	0x6094	; 0x6094 <__udivmodsi4>
    5af4:	20 5d       	subi	r18, 0xD0	; 208
    5af6:	20 93 a1 00 	sts	0x00A1, r18
				// COOLER hand power
				buffer[61]=cooler_hand_power/100+0x30;
    5afa:	c5 01       	movw	r24, r10
    5afc:	64 e6       	ldi	r22, 0x64	; 100
    5afe:	70 e0       	ldi	r23, 0x00	; 0
    5b00:	0e 94 23 30 	call	0x6046	; 0x6046 <__udivmodhi4>
    5b04:	60 5d       	subi	r22, 0xD0	; 208
    5b06:	60 93 a2 00 	sts	0x00A2, r22
				buffer[62]=(cooler_hand_power%100)/10+0x30;
    5b0a:	c5 01       	movw	r24, r10
    5b0c:	64 e6       	ldi	r22, 0x64	; 100
    5b0e:	70 e0       	ldi	r23, 0x00	; 0
    5b10:	0e 94 23 30 	call	0x6046	; 0x6046 <__udivmodhi4>
    5b14:	9c 01       	movw	r18, r24
    5b16:	6a e0       	ldi	r22, 0x0A	; 10
    5b18:	70 e0       	ldi	r23, 0x00	; 0
    5b1a:	0e 94 23 30 	call	0x6046	; 0x6046 <__udivmodhi4>
    5b1e:	60 5d       	subi	r22, 0xD0	; 208
    5b20:	60 93 a3 00 	sts	0x00A3, r22
				buffer[63]=(cooler_hand_power%100)%10+0x30;
    5b24:	c9 01       	movw	r24, r18
    5b26:	6a e0       	ldi	r22, 0x0A	; 10
    5b28:	70 e0       	ldi	r23, 0x00	; 0
    5b2a:	0e 94 23 30 	call	0x6046	; 0x6046 <__udivmodhi4>
    5b2e:	80 5d       	subi	r24, 0xD0	; 208
    5b30:	80 93 a4 00 	sts	0x00A4, r24
				// CO2 status
				buffer[64]=co2_status;
    5b34:	80 91 04 05 	lds	r24, 0x0504
    5b38:	80 93 a5 00 	sts	0x00A5, r24
				// temp. mode status
				buffer[65]=heater_chanel_status;
    5b3c:	80 91 40 06 	lds	r24, 0x0640
    5b40:	80 93 a6 00 	sts	0x00A6, r24
				// END
				buffer[66]=0xb3;
    5b44:	83 eb       	ldi	r24, 0xB3	; 179
    5b46:	80 93 a7 00 	sts	0x00A7, r24
				
				buffer_start(); // отправка буфера данных
    5b4a:	0e 94 bf 03 	call	0x77e	; 0x77e <buffer_start>
			}
			FlagsFastCount &= ~_BV(13); // сбросить флаг
    5b4e:	80 91 11 05 	lds	r24, 0x0511
    5b52:	90 91 12 05 	lds	r25, 0x0512
    5b56:	9f 7d       	andi	r25, 0xDF	; 223
    5b58:	90 93 12 05 	sts	0x0512, r25
    5b5c:	80 93 11 05 	sts	0x0511, r24
		};
		
		if (FlagsFastCount & _BV(15)) // ~ 10.6 s
    5b60:	80 91 11 05 	lds	r24, 0x0511
    5b64:	90 91 12 05 	lds	r25, 0x0512
    5b68:	97 fd       	sbrc	r25, 7
    5b6a:	02 c0       	rjmp	.+4      	; 0x5b70 <main+0x30b8>
    5b6c:	0c 94 d7 15 	jmp	0x2bae	; 0x2bae <main+0xf6>
		{
			if(pompa) // помпа включена
    5b70:	80 91 fb 04 	lds	r24, 0x04FB
    5b74:	88 23       	and	r24, r24
    5b76:	b9 f0       	breq	.+46     	; 0x5ba6 <main+0x30ee>
			{
				pompa_time_count++; // отсчет времени
    5b78:	80 91 02 05 	lds	r24, 0x0502
    5b7c:	8f 5f       	subi	r24, 0xFF	; 255
    5b7e:	80 93 02 05 	sts	0x0502, r24
				if(pompa_time_count==2) // ~ 21.2 s
    5b82:	82 30       	cpi	r24, 0x02	; 2
    5b84:	81 f4       	brne	.+32     	; 0x5ba6 <main+0x30ee>
				{
					pompa_time_count=0; // обнулить
    5b86:	10 92 02 05 	sts	0x0502, r1
					if(water_lvl_pompa==water_lvl) WATER_ERROR_POMPA=1; // если предыдущее положение датчика и текущее равны - ошибка
    5b8a:	20 91 24 05 	lds	r18, 0x0524
    5b8e:	30 91 25 05 	lds	r19, 0x0525
    5b92:	80 91 20 05 	lds	r24, 0x0520
    5b96:	90 91 21 05 	lds	r25, 0x0521
    5b9a:	28 17       	cp	r18, r24
    5b9c:	39 07       	cpc	r19, r25
    5b9e:	19 f4       	brne	.+6      	; 0x5ba6 <main+0x30ee>
    5ba0:	81 e0       	ldi	r24, 0x01	; 1
    5ba2:	80 93 01 05 	sts	0x0501, r24
				}
			}
			water_lvl_pompa=water_lvl; // запись предыдущего положения датчика
    5ba6:	80 91 20 05 	lds	r24, 0x0520
    5baa:	90 91 21 05 	lds	r25, 0x0521
    5bae:	90 93 25 05 	sts	0x0525, r25
    5bb2:	80 93 24 05 	sts	0x0524, r24
			FlagsFastCount &= ~_BV(15); // сбросить флаг
    5bb6:	80 91 11 05 	lds	r24, 0x0511
    5bba:	90 91 12 05 	lds	r25, 0x0512
    5bbe:	9f 77       	andi	r25, 0x7F	; 127
    5bc0:	90 93 12 05 	sts	0x0512, r25
    5bc4:	80 93 11 05 	sts	0x0511, r24
    5bc8:	0c 94 d7 15 	jmp	0x2bae	; 0x2bae <main+0xf6>

00005bcc <__subsf3>:
    5bcc:	50 58       	subi	r21, 0x80	; 128

00005bce <__addsf3>:
    5bce:	bb 27       	eor	r27, r27
    5bd0:	aa 27       	eor	r26, r26
    5bd2:	0e d0       	rcall	.+28     	; 0x5bf0 <__addsf3x>
    5bd4:	70 c1       	rjmp	.+736    	; 0x5eb6 <__fp_round>
    5bd6:	61 d1       	rcall	.+706    	; 0x5e9a <__fp_pscA>
    5bd8:	30 f0       	brcs	.+12     	; 0x5be6 <__addsf3+0x18>
    5bda:	66 d1       	rcall	.+716    	; 0x5ea8 <__fp_pscB>
    5bdc:	20 f0       	brcs	.+8      	; 0x5be6 <__addsf3+0x18>
    5bde:	31 f4       	brne	.+12     	; 0x5bec <__addsf3+0x1e>
    5be0:	9f 3f       	cpi	r25, 0xFF	; 255
    5be2:	11 f4       	brne	.+4      	; 0x5be8 <__addsf3+0x1a>
    5be4:	1e f4       	brtc	.+6      	; 0x5bec <__addsf3+0x1e>
    5be6:	56 c1       	rjmp	.+684    	; 0x5e94 <__fp_nan>
    5be8:	0e f4       	brtc	.+2      	; 0x5bec <__addsf3+0x1e>
    5bea:	e0 95       	com	r30
    5bec:	e7 fb       	bst	r30, 7
    5bee:	4c c1       	rjmp	.+664    	; 0x5e88 <__fp_inf>

00005bf0 <__addsf3x>:
    5bf0:	e9 2f       	mov	r30, r25
    5bf2:	72 d1       	rcall	.+740    	; 0x5ed8 <__fp_split3>
    5bf4:	80 f3       	brcs	.-32     	; 0x5bd6 <__addsf3+0x8>
    5bf6:	ba 17       	cp	r27, r26
    5bf8:	62 07       	cpc	r22, r18
    5bfa:	73 07       	cpc	r23, r19
    5bfc:	84 07       	cpc	r24, r20
    5bfe:	95 07       	cpc	r25, r21
    5c00:	18 f0       	brcs	.+6      	; 0x5c08 <__addsf3x+0x18>
    5c02:	71 f4       	brne	.+28     	; 0x5c20 <__addsf3x+0x30>
    5c04:	9e f5       	brtc	.+102    	; 0x5c6c <__addsf3x+0x7c>
    5c06:	8a c1       	rjmp	.+788    	; 0x5f1c <__fp_zero>
    5c08:	0e f4       	brtc	.+2      	; 0x5c0c <__addsf3x+0x1c>
    5c0a:	e0 95       	com	r30
    5c0c:	0b 2e       	mov	r0, r27
    5c0e:	ba 2f       	mov	r27, r26
    5c10:	a0 2d       	mov	r26, r0
    5c12:	0b 01       	movw	r0, r22
    5c14:	b9 01       	movw	r22, r18
    5c16:	90 01       	movw	r18, r0
    5c18:	0c 01       	movw	r0, r24
    5c1a:	ca 01       	movw	r24, r20
    5c1c:	a0 01       	movw	r20, r0
    5c1e:	11 24       	eor	r1, r1
    5c20:	ff 27       	eor	r31, r31
    5c22:	59 1b       	sub	r21, r25
    5c24:	99 f0       	breq	.+38     	; 0x5c4c <__addsf3x+0x5c>
    5c26:	59 3f       	cpi	r21, 0xF9	; 249
    5c28:	50 f4       	brcc	.+20     	; 0x5c3e <__addsf3x+0x4e>
    5c2a:	50 3e       	cpi	r21, 0xE0	; 224
    5c2c:	68 f1       	brcs	.+90     	; 0x5c88 <__addsf3x+0x98>
    5c2e:	1a 16       	cp	r1, r26
    5c30:	f0 40       	sbci	r31, 0x00	; 0
    5c32:	a2 2f       	mov	r26, r18
    5c34:	23 2f       	mov	r18, r19
    5c36:	34 2f       	mov	r19, r20
    5c38:	44 27       	eor	r20, r20
    5c3a:	58 5f       	subi	r21, 0xF8	; 248
    5c3c:	f3 cf       	rjmp	.-26     	; 0x5c24 <__addsf3x+0x34>
    5c3e:	46 95       	lsr	r20
    5c40:	37 95       	ror	r19
    5c42:	27 95       	ror	r18
    5c44:	a7 95       	ror	r26
    5c46:	f0 40       	sbci	r31, 0x00	; 0
    5c48:	53 95       	inc	r21
    5c4a:	c9 f7       	brne	.-14     	; 0x5c3e <__addsf3x+0x4e>
    5c4c:	7e f4       	brtc	.+30     	; 0x5c6c <__addsf3x+0x7c>
    5c4e:	1f 16       	cp	r1, r31
    5c50:	ba 0b       	sbc	r27, r26
    5c52:	62 0b       	sbc	r22, r18
    5c54:	73 0b       	sbc	r23, r19
    5c56:	84 0b       	sbc	r24, r20
    5c58:	ba f0       	brmi	.+46     	; 0x5c88 <__addsf3x+0x98>
    5c5a:	91 50       	subi	r25, 0x01	; 1
    5c5c:	a1 f0       	breq	.+40     	; 0x5c86 <__addsf3x+0x96>
    5c5e:	ff 0f       	add	r31, r31
    5c60:	bb 1f       	adc	r27, r27
    5c62:	66 1f       	adc	r22, r22
    5c64:	77 1f       	adc	r23, r23
    5c66:	88 1f       	adc	r24, r24
    5c68:	c2 f7       	brpl	.-16     	; 0x5c5a <__addsf3x+0x6a>
    5c6a:	0e c0       	rjmp	.+28     	; 0x5c88 <__addsf3x+0x98>
    5c6c:	ba 0f       	add	r27, r26
    5c6e:	62 1f       	adc	r22, r18
    5c70:	73 1f       	adc	r23, r19
    5c72:	84 1f       	adc	r24, r20
    5c74:	48 f4       	brcc	.+18     	; 0x5c88 <__addsf3x+0x98>
    5c76:	87 95       	ror	r24
    5c78:	77 95       	ror	r23
    5c7a:	67 95       	ror	r22
    5c7c:	b7 95       	ror	r27
    5c7e:	f7 95       	ror	r31
    5c80:	9e 3f       	cpi	r25, 0xFE	; 254
    5c82:	08 f0       	brcs	.+2      	; 0x5c86 <__addsf3x+0x96>
    5c84:	b3 cf       	rjmp	.-154    	; 0x5bec <__addsf3+0x1e>
    5c86:	93 95       	inc	r25
    5c88:	88 0f       	add	r24, r24
    5c8a:	08 f0       	brcs	.+2      	; 0x5c8e <__addsf3x+0x9e>
    5c8c:	99 27       	eor	r25, r25
    5c8e:	ee 0f       	add	r30, r30
    5c90:	97 95       	ror	r25
    5c92:	87 95       	ror	r24
    5c94:	08 95       	ret

00005c96 <__cmpsf2>:
    5c96:	d4 d0       	rcall	.+424    	; 0x5e40 <__fp_cmp>
    5c98:	08 f4       	brcc	.+2      	; 0x5c9c <__cmpsf2+0x6>
    5c9a:	81 e0       	ldi	r24, 0x01	; 1
    5c9c:	08 95       	ret

00005c9e <__divsf3>:
    5c9e:	0c d0       	rcall	.+24     	; 0x5cb8 <__divsf3x>
    5ca0:	0a c1       	rjmp	.+532    	; 0x5eb6 <__fp_round>
    5ca2:	02 d1       	rcall	.+516    	; 0x5ea8 <__fp_pscB>
    5ca4:	40 f0       	brcs	.+16     	; 0x5cb6 <__divsf3+0x18>
    5ca6:	f9 d0       	rcall	.+498    	; 0x5e9a <__fp_pscA>
    5ca8:	30 f0       	brcs	.+12     	; 0x5cb6 <__divsf3+0x18>
    5caa:	21 f4       	brne	.+8      	; 0x5cb4 <__divsf3+0x16>
    5cac:	5f 3f       	cpi	r21, 0xFF	; 255
    5cae:	19 f0       	breq	.+6      	; 0x5cb6 <__divsf3+0x18>
    5cb0:	eb c0       	rjmp	.+470    	; 0x5e88 <__fp_inf>
    5cb2:	51 11       	cpse	r21, r1
    5cb4:	34 c1       	rjmp	.+616    	; 0x5f1e <__fp_szero>
    5cb6:	ee c0       	rjmp	.+476    	; 0x5e94 <__fp_nan>

00005cb8 <__divsf3x>:
    5cb8:	0f d1       	rcall	.+542    	; 0x5ed8 <__fp_split3>
    5cba:	98 f3       	brcs	.-26     	; 0x5ca2 <__divsf3+0x4>

00005cbc <__divsf3_pse>:
    5cbc:	99 23       	and	r25, r25
    5cbe:	c9 f3       	breq	.-14     	; 0x5cb2 <__divsf3+0x14>
    5cc0:	55 23       	and	r21, r21
    5cc2:	b1 f3       	breq	.-20     	; 0x5cb0 <__divsf3+0x12>
    5cc4:	95 1b       	sub	r25, r21
    5cc6:	55 0b       	sbc	r21, r21
    5cc8:	bb 27       	eor	r27, r27
    5cca:	aa 27       	eor	r26, r26
    5ccc:	62 17       	cp	r22, r18
    5cce:	73 07       	cpc	r23, r19
    5cd0:	84 07       	cpc	r24, r20
    5cd2:	38 f0       	brcs	.+14     	; 0x5ce2 <__divsf3_pse+0x26>
    5cd4:	9f 5f       	subi	r25, 0xFF	; 255
    5cd6:	5f 4f       	sbci	r21, 0xFF	; 255
    5cd8:	22 0f       	add	r18, r18
    5cda:	33 1f       	adc	r19, r19
    5cdc:	44 1f       	adc	r20, r20
    5cde:	aa 1f       	adc	r26, r26
    5ce0:	a9 f3       	breq	.-22     	; 0x5ccc <__divsf3_pse+0x10>
    5ce2:	33 d0       	rcall	.+102    	; 0x5d4a <__divsf3_pse+0x8e>
    5ce4:	0e 2e       	mov	r0, r30
    5ce6:	3a f0       	brmi	.+14     	; 0x5cf6 <__divsf3_pse+0x3a>
    5ce8:	e0 e8       	ldi	r30, 0x80	; 128
    5cea:	30 d0       	rcall	.+96     	; 0x5d4c <__divsf3_pse+0x90>
    5cec:	91 50       	subi	r25, 0x01	; 1
    5cee:	50 40       	sbci	r21, 0x00	; 0
    5cf0:	e6 95       	lsr	r30
    5cf2:	00 1c       	adc	r0, r0
    5cf4:	ca f7       	brpl	.-14     	; 0x5ce8 <__divsf3_pse+0x2c>
    5cf6:	29 d0       	rcall	.+82     	; 0x5d4a <__divsf3_pse+0x8e>
    5cf8:	fe 2f       	mov	r31, r30
    5cfa:	27 d0       	rcall	.+78     	; 0x5d4a <__divsf3_pse+0x8e>
    5cfc:	66 0f       	add	r22, r22
    5cfe:	77 1f       	adc	r23, r23
    5d00:	88 1f       	adc	r24, r24
    5d02:	bb 1f       	adc	r27, r27
    5d04:	26 17       	cp	r18, r22
    5d06:	37 07       	cpc	r19, r23
    5d08:	48 07       	cpc	r20, r24
    5d0a:	ab 07       	cpc	r26, r27
    5d0c:	b0 e8       	ldi	r27, 0x80	; 128
    5d0e:	09 f0       	breq	.+2      	; 0x5d12 <__divsf3_pse+0x56>
    5d10:	bb 0b       	sbc	r27, r27
    5d12:	80 2d       	mov	r24, r0
    5d14:	bf 01       	movw	r22, r30
    5d16:	ff 27       	eor	r31, r31
    5d18:	93 58       	subi	r25, 0x83	; 131
    5d1a:	5f 4f       	sbci	r21, 0xFF	; 255
    5d1c:	2a f0       	brmi	.+10     	; 0x5d28 <__divsf3_pse+0x6c>
    5d1e:	9e 3f       	cpi	r25, 0xFE	; 254
    5d20:	51 05       	cpc	r21, r1
    5d22:	68 f0       	brcs	.+26     	; 0x5d3e <__divsf3_pse+0x82>
    5d24:	b1 c0       	rjmp	.+354    	; 0x5e88 <__fp_inf>
    5d26:	fb c0       	rjmp	.+502    	; 0x5f1e <__fp_szero>
    5d28:	5f 3f       	cpi	r21, 0xFF	; 255
    5d2a:	ec f3       	brlt	.-6      	; 0x5d26 <__divsf3_pse+0x6a>
    5d2c:	98 3e       	cpi	r25, 0xE8	; 232
    5d2e:	dc f3       	brlt	.-10     	; 0x5d26 <__divsf3_pse+0x6a>
    5d30:	86 95       	lsr	r24
    5d32:	77 95       	ror	r23
    5d34:	67 95       	ror	r22
    5d36:	b7 95       	ror	r27
    5d38:	f7 95       	ror	r31
    5d3a:	9f 5f       	subi	r25, 0xFF	; 255
    5d3c:	c9 f7       	brne	.-14     	; 0x5d30 <__divsf3_pse+0x74>
    5d3e:	88 0f       	add	r24, r24
    5d40:	91 1d       	adc	r25, r1
    5d42:	96 95       	lsr	r25
    5d44:	87 95       	ror	r24
    5d46:	97 f9       	bld	r25, 7
    5d48:	08 95       	ret
    5d4a:	e1 e0       	ldi	r30, 0x01	; 1
    5d4c:	66 0f       	add	r22, r22
    5d4e:	77 1f       	adc	r23, r23
    5d50:	88 1f       	adc	r24, r24
    5d52:	bb 1f       	adc	r27, r27
    5d54:	62 17       	cp	r22, r18
    5d56:	73 07       	cpc	r23, r19
    5d58:	84 07       	cpc	r24, r20
    5d5a:	ba 07       	cpc	r27, r26
    5d5c:	20 f0       	brcs	.+8      	; 0x5d66 <__divsf3_pse+0xaa>
    5d5e:	62 1b       	sub	r22, r18
    5d60:	73 0b       	sbc	r23, r19
    5d62:	84 0b       	sbc	r24, r20
    5d64:	ba 0b       	sbc	r27, r26
    5d66:	ee 1f       	adc	r30, r30
    5d68:	88 f7       	brcc	.-30     	; 0x5d4c <__divsf3_pse+0x90>
    5d6a:	e0 95       	com	r30
    5d6c:	08 95       	ret

00005d6e <__fixunssfsi>:
    5d6e:	bc d0       	rcall	.+376    	; 0x5ee8 <__fp_splitA>
    5d70:	88 f0       	brcs	.+34     	; 0x5d94 <__fixunssfsi+0x26>
    5d72:	9f 57       	subi	r25, 0x7F	; 127
    5d74:	90 f0       	brcs	.+36     	; 0x5d9a <__fixunssfsi+0x2c>
    5d76:	b9 2f       	mov	r27, r25
    5d78:	99 27       	eor	r25, r25
    5d7a:	b7 51       	subi	r27, 0x17	; 23
    5d7c:	a0 f0       	brcs	.+40     	; 0x5da6 <__fixunssfsi+0x38>
    5d7e:	d1 f0       	breq	.+52     	; 0x5db4 <__fixunssfsi+0x46>
    5d80:	66 0f       	add	r22, r22
    5d82:	77 1f       	adc	r23, r23
    5d84:	88 1f       	adc	r24, r24
    5d86:	99 1f       	adc	r25, r25
    5d88:	1a f0       	brmi	.+6      	; 0x5d90 <__fixunssfsi+0x22>
    5d8a:	ba 95       	dec	r27
    5d8c:	c9 f7       	brne	.-14     	; 0x5d80 <__fixunssfsi+0x12>
    5d8e:	12 c0       	rjmp	.+36     	; 0x5db4 <__fixunssfsi+0x46>
    5d90:	b1 30       	cpi	r27, 0x01	; 1
    5d92:	81 f0       	breq	.+32     	; 0x5db4 <__fixunssfsi+0x46>
    5d94:	c3 d0       	rcall	.+390    	; 0x5f1c <__fp_zero>
    5d96:	b1 e0       	ldi	r27, 0x01	; 1
    5d98:	08 95       	ret
    5d9a:	c0 c0       	rjmp	.+384    	; 0x5f1c <__fp_zero>
    5d9c:	67 2f       	mov	r22, r23
    5d9e:	78 2f       	mov	r23, r24
    5da0:	88 27       	eor	r24, r24
    5da2:	b8 5f       	subi	r27, 0xF8	; 248
    5da4:	39 f0       	breq	.+14     	; 0x5db4 <__fixunssfsi+0x46>
    5da6:	b9 3f       	cpi	r27, 0xF9	; 249
    5da8:	cc f3       	brlt	.-14     	; 0x5d9c <__fixunssfsi+0x2e>
    5daa:	86 95       	lsr	r24
    5dac:	77 95       	ror	r23
    5dae:	67 95       	ror	r22
    5db0:	b3 95       	inc	r27
    5db2:	d9 f7       	brne	.-10     	; 0x5daa <__fixunssfsi+0x3c>
    5db4:	3e f4       	brtc	.+14     	; 0x5dc4 <__fixunssfsi+0x56>
    5db6:	90 95       	com	r25
    5db8:	80 95       	com	r24
    5dba:	70 95       	com	r23
    5dbc:	61 95       	neg	r22
    5dbe:	7f 4f       	sbci	r23, 0xFF	; 255
    5dc0:	8f 4f       	sbci	r24, 0xFF	; 255
    5dc2:	9f 4f       	sbci	r25, 0xFF	; 255
    5dc4:	08 95       	ret

00005dc6 <__floatunsisf>:
    5dc6:	e8 94       	clt
    5dc8:	09 c0       	rjmp	.+18     	; 0x5ddc <__floatsisf+0x12>

00005dca <__floatsisf>:
    5dca:	97 fb       	bst	r25, 7
    5dcc:	3e f4       	brtc	.+14     	; 0x5ddc <__floatsisf+0x12>
    5dce:	90 95       	com	r25
    5dd0:	80 95       	com	r24
    5dd2:	70 95       	com	r23
    5dd4:	61 95       	neg	r22
    5dd6:	7f 4f       	sbci	r23, 0xFF	; 255
    5dd8:	8f 4f       	sbci	r24, 0xFF	; 255
    5dda:	9f 4f       	sbci	r25, 0xFF	; 255
    5ddc:	99 23       	and	r25, r25
    5dde:	a9 f0       	breq	.+42     	; 0x5e0a <__floatsisf+0x40>
    5de0:	f9 2f       	mov	r31, r25
    5de2:	96 e9       	ldi	r25, 0x96	; 150
    5de4:	bb 27       	eor	r27, r27
    5de6:	93 95       	inc	r25
    5de8:	f6 95       	lsr	r31
    5dea:	87 95       	ror	r24
    5dec:	77 95       	ror	r23
    5dee:	67 95       	ror	r22
    5df0:	b7 95       	ror	r27
    5df2:	f1 11       	cpse	r31, r1
    5df4:	f8 cf       	rjmp	.-16     	; 0x5de6 <__floatsisf+0x1c>
    5df6:	fa f4       	brpl	.+62     	; 0x5e36 <__floatsisf+0x6c>
    5df8:	bb 0f       	add	r27, r27
    5dfa:	11 f4       	brne	.+4      	; 0x5e00 <__floatsisf+0x36>
    5dfc:	60 ff       	sbrs	r22, 0
    5dfe:	1b c0       	rjmp	.+54     	; 0x5e36 <__floatsisf+0x6c>
    5e00:	6f 5f       	subi	r22, 0xFF	; 255
    5e02:	7f 4f       	sbci	r23, 0xFF	; 255
    5e04:	8f 4f       	sbci	r24, 0xFF	; 255
    5e06:	9f 4f       	sbci	r25, 0xFF	; 255
    5e08:	16 c0       	rjmp	.+44     	; 0x5e36 <__floatsisf+0x6c>
    5e0a:	88 23       	and	r24, r24
    5e0c:	11 f0       	breq	.+4      	; 0x5e12 <__floatsisf+0x48>
    5e0e:	96 e9       	ldi	r25, 0x96	; 150
    5e10:	11 c0       	rjmp	.+34     	; 0x5e34 <__floatsisf+0x6a>
    5e12:	77 23       	and	r23, r23
    5e14:	21 f0       	breq	.+8      	; 0x5e1e <__floatsisf+0x54>
    5e16:	9e e8       	ldi	r25, 0x8E	; 142
    5e18:	87 2f       	mov	r24, r23
    5e1a:	76 2f       	mov	r23, r22
    5e1c:	05 c0       	rjmp	.+10     	; 0x5e28 <__floatsisf+0x5e>
    5e1e:	66 23       	and	r22, r22
    5e20:	71 f0       	breq	.+28     	; 0x5e3e <__floatsisf+0x74>
    5e22:	96 e8       	ldi	r25, 0x86	; 134
    5e24:	86 2f       	mov	r24, r22
    5e26:	70 e0       	ldi	r23, 0x00	; 0
    5e28:	60 e0       	ldi	r22, 0x00	; 0
    5e2a:	2a f0       	brmi	.+10     	; 0x5e36 <__floatsisf+0x6c>
    5e2c:	9a 95       	dec	r25
    5e2e:	66 0f       	add	r22, r22
    5e30:	77 1f       	adc	r23, r23
    5e32:	88 1f       	adc	r24, r24
    5e34:	da f7       	brpl	.-10     	; 0x5e2c <__floatsisf+0x62>
    5e36:	88 0f       	add	r24, r24
    5e38:	96 95       	lsr	r25
    5e3a:	87 95       	ror	r24
    5e3c:	97 f9       	bld	r25, 7
    5e3e:	08 95       	ret

00005e40 <__fp_cmp>:
    5e40:	99 0f       	add	r25, r25
    5e42:	00 08       	sbc	r0, r0
    5e44:	55 0f       	add	r21, r21
    5e46:	aa 0b       	sbc	r26, r26
    5e48:	e0 e8       	ldi	r30, 0x80	; 128
    5e4a:	fe ef       	ldi	r31, 0xFE	; 254
    5e4c:	16 16       	cp	r1, r22
    5e4e:	17 06       	cpc	r1, r23
    5e50:	e8 07       	cpc	r30, r24
    5e52:	f9 07       	cpc	r31, r25
    5e54:	c0 f0       	brcs	.+48     	; 0x5e86 <__fp_cmp+0x46>
    5e56:	12 16       	cp	r1, r18
    5e58:	13 06       	cpc	r1, r19
    5e5a:	e4 07       	cpc	r30, r20
    5e5c:	f5 07       	cpc	r31, r21
    5e5e:	98 f0       	brcs	.+38     	; 0x5e86 <__fp_cmp+0x46>
    5e60:	62 1b       	sub	r22, r18
    5e62:	73 0b       	sbc	r23, r19
    5e64:	84 0b       	sbc	r24, r20
    5e66:	95 0b       	sbc	r25, r21
    5e68:	39 f4       	brne	.+14     	; 0x5e78 <__fp_cmp+0x38>
    5e6a:	0a 26       	eor	r0, r26
    5e6c:	61 f0       	breq	.+24     	; 0x5e86 <__fp_cmp+0x46>
    5e6e:	23 2b       	or	r18, r19
    5e70:	24 2b       	or	r18, r20
    5e72:	25 2b       	or	r18, r21
    5e74:	21 f4       	brne	.+8      	; 0x5e7e <__fp_cmp+0x3e>
    5e76:	08 95       	ret
    5e78:	0a 26       	eor	r0, r26
    5e7a:	09 f4       	brne	.+2      	; 0x5e7e <__fp_cmp+0x3e>
    5e7c:	a1 40       	sbci	r26, 0x01	; 1
    5e7e:	a6 95       	lsr	r26
    5e80:	8f ef       	ldi	r24, 0xFF	; 255
    5e82:	81 1d       	adc	r24, r1
    5e84:	81 1d       	adc	r24, r1
    5e86:	08 95       	ret

00005e88 <__fp_inf>:
    5e88:	97 f9       	bld	r25, 7
    5e8a:	9f 67       	ori	r25, 0x7F	; 127
    5e8c:	80 e8       	ldi	r24, 0x80	; 128
    5e8e:	70 e0       	ldi	r23, 0x00	; 0
    5e90:	60 e0       	ldi	r22, 0x00	; 0
    5e92:	08 95       	ret

00005e94 <__fp_nan>:
    5e94:	9f ef       	ldi	r25, 0xFF	; 255
    5e96:	80 ec       	ldi	r24, 0xC0	; 192
    5e98:	08 95       	ret

00005e9a <__fp_pscA>:
    5e9a:	00 24       	eor	r0, r0
    5e9c:	0a 94       	dec	r0
    5e9e:	16 16       	cp	r1, r22
    5ea0:	17 06       	cpc	r1, r23
    5ea2:	18 06       	cpc	r1, r24
    5ea4:	09 06       	cpc	r0, r25
    5ea6:	08 95       	ret

00005ea8 <__fp_pscB>:
    5ea8:	00 24       	eor	r0, r0
    5eaa:	0a 94       	dec	r0
    5eac:	12 16       	cp	r1, r18
    5eae:	13 06       	cpc	r1, r19
    5eb0:	14 06       	cpc	r1, r20
    5eb2:	05 06       	cpc	r0, r21
    5eb4:	08 95       	ret

00005eb6 <__fp_round>:
    5eb6:	09 2e       	mov	r0, r25
    5eb8:	03 94       	inc	r0
    5eba:	00 0c       	add	r0, r0
    5ebc:	11 f4       	brne	.+4      	; 0x5ec2 <__fp_round+0xc>
    5ebe:	88 23       	and	r24, r24
    5ec0:	52 f0       	brmi	.+20     	; 0x5ed6 <__fp_round+0x20>
    5ec2:	bb 0f       	add	r27, r27
    5ec4:	40 f4       	brcc	.+16     	; 0x5ed6 <__fp_round+0x20>
    5ec6:	bf 2b       	or	r27, r31
    5ec8:	11 f4       	brne	.+4      	; 0x5ece <__fp_round+0x18>
    5eca:	60 ff       	sbrs	r22, 0
    5ecc:	04 c0       	rjmp	.+8      	; 0x5ed6 <__fp_round+0x20>
    5ece:	6f 5f       	subi	r22, 0xFF	; 255
    5ed0:	7f 4f       	sbci	r23, 0xFF	; 255
    5ed2:	8f 4f       	sbci	r24, 0xFF	; 255
    5ed4:	9f 4f       	sbci	r25, 0xFF	; 255
    5ed6:	08 95       	ret

00005ed8 <__fp_split3>:
    5ed8:	57 fd       	sbrc	r21, 7
    5eda:	90 58       	subi	r25, 0x80	; 128
    5edc:	44 0f       	add	r20, r20
    5ede:	55 1f       	adc	r21, r21
    5ee0:	59 f0       	breq	.+22     	; 0x5ef8 <__fp_splitA+0x10>
    5ee2:	5f 3f       	cpi	r21, 0xFF	; 255
    5ee4:	71 f0       	breq	.+28     	; 0x5f02 <__fp_splitA+0x1a>
    5ee6:	47 95       	ror	r20

00005ee8 <__fp_splitA>:
    5ee8:	88 0f       	add	r24, r24
    5eea:	97 fb       	bst	r25, 7
    5eec:	99 1f       	adc	r25, r25
    5eee:	61 f0       	breq	.+24     	; 0x5f08 <__fp_splitA+0x20>
    5ef0:	9f 3f       	cpi	r25, 0xFF	; 255
    5ef2:	79 f0       	breq	.+30     	; 0x5f12 <__fp_splitA+0x2a>
    5ef4:	87 95       	ror	r24
    5ef6:	08 95       	ret
    5ef8:	12 16       	cp	r1, r18
    5efa:	13 06       	cpc	r1, r19
    5efc:	14 06       	cpc	r1, r20
    5efe:	55 1f       	adc	r21, r21
    5f00:	f2 cf       	rjmp	.-28     	; 0x5ee6 <__fp_split3+0xe>
    5f02:	46 95       	lsr	r20
    5f04:	f1 df       	rcall	.-30     	; 0x5ee8 <__fp_splitA>
    5f06:	08 c0       	rjmp	.+16     	; 0x5f18 <__fp_splitA+0x30>
    5f08:	16 16       	cp	r1, r22
    5f0a:	17 06       	cpc	r1, r23
    5f0c:	18 06       	cpc	r1, r24
    5f0e:	99 1f       	adc	r25, r25
    5f10:	f1 cf       	rjmp	.-30     	; 0x5ef4 <__fp_splitA+0xc>
    5f12:	86 95       	lsr	r24
    5f14:	71 05       	cpc	r23, r1
    5f16:	61 05       	cpc	r22, r1
    5f18:	08 94       	sec
    5f1a:	08 95       	ret

00005f1c <__fp_zero>:
    5f1c:	e8 94       	clt

00005f1e <__fp_szero>:
    5f1e:	bb 27       	eor	r27, r27
    5f20:	66 27       	eor	r22, r22
    5f22:	77 27       	eor	r23, r23
    5f24:	cb 01       	movw	r24, r22
    5f26:	97 f9       	bld	r25, 7
    5f28:	08 95       	ret

00005f2a <__mulsf3>:
    5f2a:	0b d0       	rcall	.+22     	; 0x5f42 <__mulsf3x>
    5f2c:	c4 cf       	rjmp	.-120    	; 0x5eb6 <__fp_round>
    5f2e:	b5 df       	rcall	.-150    	; 0x5e9a <__fp_pscA>
    5f30:	28 f0       	brcs	.+10     	; 0x5f3c <__mulsf3+0x12>
    5f32:	ba df       	rcall	.-140    	; 0x5ea8 <__fp_pscB>
    5f34:	18 f0       	brcs	.+6      	; 0x5f3c <__mulsf3+0x12>
    5f36:	95 23       	and	r25, r21
    5f38:	09 f0       	breq	.+2      	; 0x5f3c <__mulsf3+0x12>
    5f3a:	a6 cf       	rjmp	.-180    	; 0x5e88 <__fp_inf>
    5f3c:	ab cf       	rjmp	.-170    	; 0x5e94 <__fp_nan>
    5f3e:	11 24       	eor	r1, r1
    5f40:	ee cf       	rjmp	.-36     	; 0x5f1e <__fp_szero>

00005f42 <__mulsf3x>:
    5f42:	ca df       	rcall	.-108    	; 0x5ed8 <__fp_split3>
    5f44:	a0 f3       	brcs	.-24     	; 0x5f2e <__mulsf3+0x4>

00005f46 <__mulsf3_pse>:
    5f46:	95 9f       	mul	r25, r21
    5f48:	d1 f3       	breq	.-12     	; 0x5f3e <__mulsf3+0x14>
    5f4a:	95 0f       	add	r25, r21
    5f4c:	50 e0       	ldi	r21, 0x00	; 0
    5f4e:	55 1f       	adc	r21, r21
    5f50:	62 9f       	mul	r22, r18
    5f52:	f0 01       	movw	r30, r0
    5f54:	72 9f       	mul	r23, r18
    5f56:	bb 27       	eor	r27, r27
    5f58:	f0 0d       	add	r31, r0
    5f5a:	b1 1d       	adc	r27, r1
    5f5c:	63 9f       	mul	r22, r19
    5f5e:	aa 27       	eor	r26, r26
    5f60:	f0 0d       	add	r31, r0
    5f62:	b1 1d       	adc	r27, r1
    5f64:	aa 1f       	adc	r26, r26
    5f66:	64 9f       	mul	r22, r20
    5f68:	66 27       	eor	r22, r22
    5f6a:	b0 0d       	add	r27, r0
    5f6c:	a1 1d       	adc	r26, r1
    5f6e:	66 1f       	adc	r22, r22
    5f70:	82 9f       	mul	r24, r18
    5f72:	22 27       	eor	r18, r18
    5f74:	b0 0d       	add	r27, r0
    5f76:	a1 1d       	adc	r26, r1
    5f78:	62 1f       	adc	r22, r18
    5f7a:	73 9f       	mul	r23, r19
    5f7c:	b0 0d       	add	r27, r0
    5f7e:	a1 1d       	adc	r26, r1
    5f80:	62 1f       	adc	r22, r18
    5f82:	83 9f       	mul	r24, r19
    5f84:	a0 0d       	add	r26, r0
    5f86:	61 1d       	adc	r22, r1
    5f88:	22 1f       	adc	r18, r18
    5f8a:	74 9f       	mul	r23, r20
    5f8c:	33 27       	eor	r19, r19
    5f8e:	a0 0d       	add	r26, r0
    5f90:	61 1d       	adc	r22, r1
    5f92:	23 1f       	adc	r18, r19
    5f94:	84 9f       	mul	r24, r20
    5f96:	60 0d       	add	r22, r0
    5f98:	21 1d       	adc	r18, r1
    5f9a:	82 2f       	mov	r24, r18
    5f9c:	76 2f       	mov	r23, r22
    5f9e:	6a 2f       	mov	r22, r26
    5fa0:	11 24       	eor	r1, r1
    5fa2:	9f 57       	subi	r25, 0x7F	; 127
    5fa4:	50 40       	sbci	r21, 0x00	; 0
    5fa6:	8a f0       	brmi	.+34     	; 0x5fca <__mulsf3_pse+0x84>
    5fa8:	e1 f0       	breq	.+56     	; 0x5fe2 <__mulsf3_pse+0x9c>
    5faa:	88 23       	and	r24, r24
    5fac:	4a f0       	brmi	.+18     	; 0x5fc0 <__mulsf3_pse+0x7a>
    5fae:	ee 0f       	add	r30, r30
    5fb0:	ff 1f       	adc	r31, r31
    5fb2:	bb 1f       	adc	r27, r27
    5fb4:	66 1f       	adc	r22, r22
    5fb6:	77 1f       	adc	r23, r23
    5fb8:	88 1f       	adc	r24, r24
    5fba:	91 50       	subi	r25, 0x01	; 1
    5fbc:	50 40       	sbci	r21, 0x00	; 0
    5fbe:	a9 f7       	brne	.-22     	; 0x5faa <__mulsf3_pse+0x64>
    5fc0:	9e 3f       	cpi	r25, 0xFE	; 254
    5fc2:	51 05       	cpc	r21, r1
    5fc4:	70 f0       	brcs	.+28     	; 0x5fe2 <__mulsf3_pse+0x9c>
    5fc6:	60 cf       	rjmp	.-320    	; 0x5e88 <__fp_inf>
    5fc8:	aa cf       	rjmp	.-172    	; 0x5f1e <__fp_szero>
    5fca:	5f 3f       	cpi	r21, 0xFF	; 255
    5fcc:	ec f3       	brlt	.-6      	; 0x5fc8 <__mulsf3_pse+0x82>
    5fce:	98 3e       	cpi	r25, 0xE8	; 232
    5fd0:	dc f3       	brlt	.-10     	; 0x5fc8 <__mulsf3_pse+0x82>
    5fd2:	86 95       	lsr	r24
    5fd4:	77 95       	ror	r23
    5fd6:	67 95       	ror	r22
    5fd8:	b7 95       	ror	r27
    5fda:	f7 95       	ror	r31
    5fdc:	e7 95       	ror	r30
    5fde:	9f 5f       	subi	r25, 0xFF	; 255
    5fe0:	c1 f7       	brne	.-16     	; 0x5fd2 <__mulsf3_pse+0x8c>
    5fe2:	fe 2b       	or	r31, r30
    5fe4:	88 0f       	add	r24, r24
    5fe6:	91 1d       	adc	r25, r1
    5fe8:	96 95       	lsr	r25
    5fea:	87 95       	ror	r24
    5fec:	97 f9       	bld	r25, 7
    5fee:	08 95       	ret

00005ff0 <__mulsi3>:
    5ff0:	62 9f       	mul	r22, r18
    5ff2:	d0 01       	movw	r26, r0
    5ff4:	73 9f       	mul	r23, r19
    5ff6:	f0 01       	movw	r30, r0
    5ff8:	82 9f       	mul	r24, r18
    5ffa:	e0 0d       	add	r30, r0
    5ffc:	f1 1d       	adc	r31, r1
    5ffe:	64 9f       	mul	r22, r20
    6000:	e0 0d       	add	r30, r0
    6002:	f1 1d       	adc	r31, r1
    6004:	92 9f       	mul	r25, r18
    6006:	f0 0d       	add	r31, r0
    6008:	83 9f       	mul	r24, r19
    600a:	f0 0d       	add	r31, r0
    600c:	74 9f       	mul	r23, r20
    600e:	f0 0d       	add	r31, r0
    6010:	65 9f       	mul	r22, r21
    6012:	f0 0d       	add	r31, r0
    6014:	99 27       	eor	r25, r25
    6016:	72 9f       	mul	r23, r18
    6018:	b0 0d       	add	r27, r0
    601a:	e1 1d       	adc	r30, r1
    601c:	f9 1f       	adc	r31, r25
    601e:	63 9f       	mul	r22, r19
    6020:	b0 0d       	add	r27, r0
    6022:	e1 1d       	adc	r30, r1
    6024:	f9 1f       	adc	r31, r25
    6026:	bd 01       	movw	r22, r26
    6028:	cf 01       	movw	r24, r30
    602a:	11 24       	eor	r1, r1
    602c:	08 95       	ret

0000602e <__udivmodqi4>:
    602e:	99 1b       	sub	r25, r25
    6030:	79 e0       	ldi	r23, 0x09	; 9
    6032:	04 c0       	rjmp	.+8      	; 0x603c <__udivmodqi4_ep>

00006034 <__udivmodqi4_loop>:
    6034:	99 1f       	adc	r25, r25
    6036:	96 17       	cp	r25, r22
    6038:	08 f0       	brcs	.+2      	; 0x603c <__udivmodqi4_ep>
    603a:	96 1b       	sub	r25, r22

0000603c <__udivmodqi4_ep>:
    603c:	88 1f       	adc	r24, r24
    603e:	7a 95       	dec	r23
    6040:	c9 f7       	brne	.-14     	; 0x6034 <__udivmodqi4_loop>
    6042:	80 95       	com	r24
    6044:	08 95       	ret

00006046 <__udivmodhi4>:
    6046:	aa 1b       	sub	r26, r26
    6048:	bb 1b       	sub	r27, r27
    604a:	51 e1       	ldi	r21, 0x11	; 17
    604c:	07 c0       	rjmp	.+14     	; 0x605c <__udivmodhi4_ep>

0000604e <__udivmodhi4_loop>:
    604e:	aa 1f       	adc	r26, r26
    6050:	bb 1f       	adc	r27, r27
    6052:	a6 17       	cp	r26, r22
    6054:	b7 07       	cpc	r27, r23
    6056:	10 f0       	brcs	.+4      	; 0x605c <__udivmodhi4_ep>
    6058:	a6 1b       	sub	r26, r22
    605a:	b7 0b       	sbc	r27, r23

0000605c <__udivmodhi4_ep>:
    605c:	88 1f       	adc	r24, r24
    605e:	99 1f       	adc	r25, r25
    6060:	5a 95       	dec	r21
    6062:	a9 f7       	brne	.-22     	; 0x604e <__udivmodhi4_loop>
    6064:	80 95       	com	r24
    6066:	90 95       	com	r25
    6068:	bc 01       	movw	r22, r24
    606a:	cd 01       	movw	r24, r26
    606c:	08 95       	ret

0000606e <__divmodhi4>:
    606e:	97 fb       	bst	r25, 7
    6070:	09 2e       	mov	r0, r25
    6072:	07 26       	eor	r0, r23
    6074:	0a d0       	rcall	.+20     	; 0x608a <__divmodhi4_neg1>
    6076:	77 fd       	sbrc	r23, 7
    6078:	04 d0       	rcall	.+8      	; 0x6082 <__divmodhi4_neg2>
    607a:	e5 df       	rcall	.-54     	; 0x6046 <__udivmodhi4>
    607c:	06 d0       	rcall	.+12     	; 0x608a <__divmodhi4_neg1>
    607e:	00 20       	and	r0, r0
    6080:	1a f4       	brpl	.+6      	; 0x6088 <__divmodhi4_exit>

00006082 <__divmodhi4_neg2>:
    6082:	70 95       	com	r23
    6084:	61 95       	neg	r22
    6086:	7f 4f       	sbci	r23, 0xFF	; 255

00006088 <__divmodhi4_exit>:
    6088:	08 95       	ret

0000608a <__divmodhi4_neg1>:
    608a:	f6 f7       	brtc	.-4      	; 0x6088 <__divmodhi4_exit>
    608c:	90 95       	com	r25
    608e:	81 95       	neg	r24
    6090:	9f 4f       	sbci	r25, 0xFF	; 255
    6092:	08 95       	ret

00006094 <__udivmodsi4>:
    6094:	a1 e2       	ldi	r26, 0x21	; 33
    6096:	1a 2e       	mov	r1, r26
    6098:	aa 1b       	sub	r26, r26
    609a:	bb 1b       	sub	r27, r27
    609c:	fd 01       	movw	r30, r26
    609e:	0d c0       	rjmp	.+26     	; 0x60ba <__udivmodsi4_ep>

000060a0 <__udivmodsi4_loop>:
    60a0:	aa 1f       	adc	r26, r26
    60a2:	bb 1f       	adc	r27, r27
    60a4:	ee 1f       	adc	r30, r30
    60a6:	ff 1f       	adc	r31, r31
    60a8:	a2 17       	cp	r26, r18
    60aa:	b3 07       	cpc	r27, r19
    60ac:	e4 07       	cpc	r30, r20
    60ae:	f5 07       	cpc	r31, r21
    60b0:	20 f0       	brcs	.+8      	; 0x60ba <__udivmodsi4_ep>
    60b2:	a2 1b       	sub	r26, r18
    60b4:	b3 0b       	sbc	r27, r19
    60b6:	e4 0b       	sbc	r30, r20
    60b8:	f5 0b       	sbc	r31, r21

000060ba <__udivmodsi4_ep>:
    60ba:	66 1f       	adc	r22, r22
    60bc:	77 1f       	adc	r23, r23
    60be:	88 1f       	adc	r24, r24
    60c0:	99 1f       	adc	r25, r25
    60c2:	1a 94       	dec	r1
    60c4:	69 f7       	brne	.-38     	; 0x60a0 <__udivmodsi4_loop>
    60c6:	60 95       	com	r22
    60c8:	70 95       	com	r23
    60ca:	80 95       	com	r24
    60cc:	90 95       	com	r25
    60ce:	9b 01       	movw	r18, r22
    60d0:	ac 01       	movw	r20, r24
    60d2:	bd 01       	movw	r22, r26
    60d4:	cf 01       	movw	r24, r30
    60d6:	08 95       	ret

000060d8 <__divmodsi4>:
    60d8:	97 fb       	bst	r25, 7
    60da:	09 2e       	mov	r0, r25
    60dc:	05 26       	eor	r0, r21
    60de:	0e d0       	rcall	.+28     	; 0x60fc <__divmodsi4_neg1>
    60e0:	57 fd       	sbrc	r21, 7
    60e2:	04 d0       	rcall	.+8      	; 0x60ec <__divmodsi4_neg2>
    60e4:	d7 df       	rcall	.-82     	; 0x6094 <__udivmodsi4>
    60e6:	0a d0       	rcall	.+20     	; 0x60fc <__divmodsi4_neg1>
    60e8:	00 1c       	adc	r0, r0
    60ea:	38 f4       	brcc	.+14     	; 0x60fa <__divmodsi4_exit>

000060ec <__divmodsi4_neg2>:
    60ec:	50 95       	com	r21
    60ee:	40 95       	com	r20
    60f0:	30 95       	com	r19
    60f2:	21 95       	neg	r18
    60f4:	3f 4f       	sbci	r19, 0xFF	; 255
    60f6:	4f 4f       	sbci	r20, 0xFF	; 255
    60f8:	5f 4f       	sbci	r21, 0xFF	; 255

000060fa <__divmodsi4_exit>:
    60fa:	08 95       	ret

000060fc <__divmodsi4_neg1>:
    60fc:	f6 f7       	brtc	.-4      	; 0x60fa <__divmodsi4_exit>
    60fe:	90 95       	com	r25
    6100:	80 95       	com	r24
    6102:	70 95       	com	r23
    6104:	61 95       	neg	r22
    6106:	7f 4f       	sbci	r23, 0xFF	; 255
    6108:	8f 4f       	sbci	r24, 0xFF	; 255
    610a:	9f 4f       	sbci	r25, 0xFF	; 255
    610c:	08 95       	ret

0000610e <__eerd_byte_m32>:
    610e:	e1 99       	sbic	0x1c, 1	; 28
    6110:	fe cf       	rjmp	.-4      	; 0x610e <__eerd_byte_m32>
    6112:	9f bb       	out	0x1f, r25	; 31
    6114:	8e bb       	out	0x1e, r24	; 30
    6116:	e0 9a       	sbi	0x1c, 0	; 28
    6118:	99 27       	eor	r25, r25
    611a:	8d b3       	in	r24, 0x1d	; 29
    611c:	08 95       	ret

0000611e <__eerd_dword_m32>:
    611e:	a6 e1       	ldi	r26, 0x16	; 22
    6120:	b0 e0       	ldi	r27, 0x00	; 0
    6122:	44 e0       	ldi	r20, 0x04	; 4
    6124:	50 e0       	ldi	r21, 0x00	; 0
    6126:	0c 94 b7 30 	jmp	0x616e	; 0x616e <__eerd_blraw_m32>

0000612a <__eerd_word_m32>:
    612a:	a8 e1       	ldi	r26, 0x18	; 24
    612c:	b0 e0       	ldi	r27, 0x00	; 0
    612e:	42 e0       	ldi	r20, 0x02	; 2
    6130:	50 e0       	ldi	r21, 0x00	; 0
    6132:	0c 94 b7 30 	jmp	0x616e	; 0x616e <__eerd_blraw_m32>

00006136 <__eewr_byte_m32>:
    6136:	26 2f       	mov	r18, r22

00006138 <__eewr_r18_m32>:
    6138:	e1 99       	sbic	0x1c, 1	; 28
    613a:	fe cf       	rjmp	.-4      	; 0x6138 <__eewr_r18_m32>
    613c:	9f bb       	out	0x1f, r25	; 31
    613e:	8e bb       	out	0x1e, r24	; 30
    6140:	2d bb       	out	0x1d, r18	; 29
    6142:	0f b6       	in	r0, 0x3f	; 63
    6144:	f8 94       	cli
    6146:	e2 9a       	sbi	0x1c, 2	; 28
    6148:	e1 9a       	sbi	0x1c, 1	; 28
    614a:	0f be       	out	0x3f, r0	; 63
    614c:	01 96       	adiw	r24, 0x01	; 1
    614e:	08 95       	ret

00006150 <__eewr_dword_m32>:
    6150:	24 2f       	mov	r18, r20
    6152:	0e 94 9c 30 	call	0x6138	; 0x6138 <__eewr_r18_m32>
    6156:	25 2f       	mov	r18, r21
    6158:	0e 94 9c 30 	call	0x6138	; 0x6138 <__eewr_r18_m32>
    615c:	0c 94 b0 30 	jmp	0x6160	; 0x6160 <__eewr_word_m32>

00006160 <__eewr_word_m32>:
    6160:	0e 94 9b 30 	call	0x6136	; 0x6136 <__eewr_byte_m32>
    6164:	27 2f       	mov	r18, r23
    6166:	0c 94 9c 30 	jmp	0x6138	; 0x6138 <__eewr_r18_m32>

0000616a <__eerd_block_m32>:
    616a:	dc 01       	movw	r26, r24
    616c:	cb 01       	movw	r24, r22

0000616e <__eerd_blraw_m32>:
    616e:	fc 01       	movw	r30, r24
    6170:	e1 99       	sbic	0x1c, 1	; 28
    6172:	fe cf       	rjmp	.-4      	; 0x6170 <__eerd_blraw_m32+0x2>
    6174:	06 c0       	rjmp	.+12     	; 0x6182 <__eerd_blraw_m32+0x14>
    6176:	ff bb       	out	0x1f, r31	; 31
    6178:	ee bb       	out	0x1e, r30	; 30
    617a:	e0 9a       	sbi	0x1c, 0	; 28
    617c:	31 96       	adiw	r30, 0x01	; 1
    617e:	0d b2       	in	r0, 0x1d	; 29
    6180:	0d 92       	st	X+, r0
    6182:	41 50       	subi	r20, 0x01	; 1
    6184:	50 40       	sbci	r21, 0x00	; 0
    6186:	b8 f7       	brcc	.-18     	; 0x6176 <__eerd_blraw_m32+0x8>
    6188:	08 95       	ret

0000618a <_exit>:
    618a:	f8 94       	cli

0000618c <__stop_program>:
    618c:	ff cf       	rjmp	.-2      	; 0x618c <__stop_program>
